 CourseworkBase2020

 Timestamp is 64227bf1 (Tue Mar 28 13:32:33 2023)

 Preferred load address is 00400000

 Start         Length     Name                   Class
 0001:00000000 000067e0H .text$di                CODE
 0001:000067e0 0003e3e0H .text$mn                CODE
 0001:00044bc0 00004bf0H .text$x                 CODE
 0001:000497b0 00001012H .text$yd                CODE
 0002:00000000 00000104H .CRT$XCA                DATA
 0002:00000104 00000104H .CRT$XCAA               DATA
 0002:00000208 00000104H .CRT$XCL                DATA
 0002:0000030c 00000104H .CRT$XCZ                DATA
 0002:00000410 00000104H .CRT$XIA                DATA
 0002:00000514 00000104H .CRT$XIAA               DATA
 0002:00000618 00000104H .CRT$XIAC               DATA
 0002:0000071c 00000104H .CRT$XIZ                DATA
 0002:00000820 00000104H .CRT$XPA                DATA
 0002:00000924 00000104H .CRT$XPZ                DATA
 0002:00000a28 00000104H .CRT$XTA                DATA
 0002:00000b2c 00000104H .CRT$XTZ                DATA
 0002:00000c30 00010e50H .rdata                  DATA
 0002:00011a80 00000104H .rdata$CastGuardVftablesA DATA
 0002:00011b84 00000104H .rdata$CastGuardVftablesC DATA
 0002:00011c88 00001754H .rdata$r                DATA
 0002:000133dc 000004fcH .rdata$sxdata           DATA
 0002:000138d8 000001c0H .rdata$zzzdbg           DATA
 0002:00013a98 00000104H .rtc$IAA                DATA
 0002:00013b9c 00000104H .rtc$IZZ                DATA
 0002:00013ca0 00000104H .rtc$TAA                DATA
 0002:00013da4 00000104H .rtc$TZZ                DATA
 0002:00013ea8 000036c0H .xdata$x                DATA
 0002:00017568 00000000H .edata                  DATA
 0003:00000000 00000140H .data                   DATA
 0003:00000140 0000027cH .data$r                 DATA
 0003:000003bc 00000904H .data$rs                DATA
 0003:00000cc0 00000460H .bss                    DATA
 0004:00000000 000004d8H .idata$5                DATA
 0004:000004d8 0000008cH .idata$2                DATA
 0004:00000564 00000014H .idata$3                DATA
 0004:00000578 000004d8H .idata$4                DATA
 0004:00000a50 00001dceH .idata$6                DATA
 0005:00000000 00000109H .00cfg                  DATA
 0006:00000000 00000170H .rsrc$01                DATA
 0006:00000170 000002ccH .rsrc$02                DATA

  Address         Publics by Value              Rva+Base       Lib:Object

 0000:00000000       ___dynamic_value_reloc_table 00000000     <absolute>
 0000:00000000       ___AbsoluteZero            00000000     <absolute>
 0000:00000000       ___guard_fids_table        00000000     <absolute>
 0000:00000000       ___hybrid_code_map_count   00000000     <absolute>
 0000:00000000       ___guard_iat_table         00000000     <absolute>
 0000:00000000       ___guard_longjmp_count     00000000     <absolute>
 0000:00000000       ___hybrid_auxiliary_iat    00000000     <absolute>
 0000:00000000       ___hybrid_code_map         00000000     <absolute>
 0000:00000000       ___arm64x_redirection_metadata 00000000     <absolute>
 0000:00000000       ___arm64x_extra_rfe_table_size 00000000     <absolute>
 0000:00000000       ___guard_eh_cont_count     00000000     <absolute>
 0000:00000000       ___enclave_config          00000000     <absolute>
 0000:00000000       ___guard_fids_count        00000000     <absolute>
 0000:00000000       ___volatile_metadata       00000000     <absolute>
 0000:00000000       ___x64_code_ranges_to_entry_points_count 00000000     <absolute>
 0000:00000000       ___hybrid_auxiliary_iat_copy 00000000     <absolute>
 0000:00000000       ___guard_eh_cont_table     00000000     <absolute>
 0000:00000000       ___guard_longjmp_table     00000000     <absolute>
 0000:00000000       ___arm64x_native_entrypoint 00000000     <absolute>
 0000:00000000       ___arm64x_redirection_metadata_count 00000000     <absolute>
 0000:00000000       ___arm64x_extra_rfe_table  00000000     <absolute>
 0000:00000000       ___x64_code_ranges_to_entry_points 00000000     <absolute>
 0000:00000000       ___guard_iat_count         00000000     <absolute>
 0000:00000000       ___guard_check_icall_a64n_fptr 00000000     <absolute>
 0000:000000d4       ___safe_se_handler_count   000000d4     <absolute>
 0000:00000100       ___guard_flags             00000100     <absolute>
 0000:00000000       ___ImageBase               00400000     <linker-defined>
 0001:000067e0       ?virtDraw@BaseEnemyObject@@UAEXXZ 004077e0 f   BaseEnemyObject.obj
 0001:00006930       ?getObjectPixelMap@BaseEnemyObject@@UAE?AV?$vector@V?$vector@HV?$allocator@H@std@@@std@@V?$allocator@V?$vector@HV?$allocator@H@std@@@std@@@2@@std@@XZ 00407930 f   BaseEnemyObject.obj
 0001:00006aa0       ?handleAttacks@BaseEnemyObject@@IAEXXZ 00407aa0 f   BaseEnemyObject.obj
 0001:00006c20       ?getMovingBoundary@BaseEnemyObject@@MAEXXZ 00407c20 f   BaseEnemyObject.obj
 0001:00006d20       ?getBulletPixelMap@BaseEnemyObject@@AAE?AV?$vector@V?$vector@HV?$allocator@H@std@@@std@@V?$allocator@V?$vector@HV?$allocator@H@std@@@std@@@2@@std@@XZ 00407d20 f   BaseEnemyObject.obj
 0001:00007050       ??$?0$$V@?$_Compressed_pair@V?$allocator@D@std@@V?$_String_val@U?$_Simple_types@D@std@@@2@$00@std@@QAE@U_Zero_then_variadic_args_t@1@@Z 00408050 f i BaseEnemyObject.obj
 0001:00007080       ??$?0$$V@?$_Compressed_pair@V?$allocator@U?$_Tree_node@U?$pair@$$CBV?$basic_string@DU?$char_traits@D@std@@V?$allocator@D@2@@std@@V?$shared_ptr@VRawImageData@@@2@@std@@PAX@std@@@std@@V?$_Tree_val@U?$_Tree_simple_types@U?$pair@$$CBV?$basic_string@DU?$char_traits@D@std@@V?$allocator@D@2@@std@@V?$shared_ptr@VRawImageData@@@2@@std@@@std@@@2@$00@std@@QAE@U_Zero_then_variadic_args_t@1@@Z 00408080 f i BaseEnemyObject.obj
 0001:000070b0       ??$?0$$V@?$_Compressed_pair@V?$allocator@U?$_Tree_node@U?$pair@$$CBV?$basic_string@DU?$char_traits@D@std@@V?$allocator@D@2@@std@@V?$weak_ptr@VRawImageData@@@2@@std@@PAX@std@@@std@@V?$_Tree_val@U?$_Tree_simple_types@U?$pair@$$CBV?$basic_string@DU?$char_traits@D@std@@V?$allocator@D@2@@std@@V?$weak_ptr@VRawImageData@@@2@@std@@@std@@@2@$00@std@@QAE@U_Zero_then_variadic_args_t@1@@Z 004080b0 f i BaseEnemyObject.obj
 0001:000070e0       ??$?0AAPAU?$_Tree_node@U?$pair@$$CBV?$basic_string@DU?$char_traits@D@std@@V?$allocator@D@2@@std@@V?$shared_ptr@VRawImageData@@@2@@std@@PAX@std@@_N$0A@@?$pair@PAU?$_Tree_node@U?$pair@$$CBV?$basic_string@DU?$char_traits@D@std@@V?$allocator@D@2@@std@@V?$shared_ptr@VRawImageData@@@2@@std@@PAX@std@@_N@std@@QAE@AAPAU?$_Tree_node@U?$pair@$$CBV?$basic_string@DU?$char_traits@D@std@@V?$allocator@D@2@@std@@V?$shared_ptr@VRawImageData@@@2@@std@@PAX@1@$$QA_N@Z 004080e0 f i BaseEnemyObject.obj
 0001:00007130       ??$?0AAPAU?$_Tree_node@U?$pair@$$CBV?$basic_string@DU?$char_traits@D@std@@V?$allocator@D@2@@std@@V?$weak_ptr@VRawImageData@@@2@@std@@PAX@std@@_N$0A@@?$pair@PAU?$_Tree_node@U?$pair@$$CBV?$basic_string@DU?$char_traits@D@std@@V?$allocator@D@2@@std@@V?$weak_ptr@VRawImageData@@@2@@std@@PAX@std@@_N@std@@QAE@AAPAU?$_Tree_node@U?$pair@$$CBV?$basic_string@DU?$char_traits@D@std@@V?$allocator@D@2@@std@@V?$weak_ptr@VRawImageData@@@2@@std@@PAX@1@$$QA_N@Z 00408130 f i BaseEnemyObject.obj
 0001:00007180       ??$?0AAV?$basic_string@DU?$char_traits@D@std@@V?$allocator@D@2@@std@@AAV?$shared_ptr@VRawImageData@@@1@$0A@@?$pair@V?$basic_string@DU?$char_traits@D@std@@V?$allocator@D@2@@std@@V?$shared_ptr@VRawImageData@@@2@@std@@QAE@AAV?$basic_string@DU?$char_traits@D@std@@V?$allocator@D@2@@1@AAV?$shared_ptr@VRawImageData@@@1@@Z 00408180 f i BaseEnemyObject.obj
 0001:000071d0       ??$?0AAV?$basic_string@DU?$char_traits@D@std@@V?$allocator@D@2@@std@@AAV?$weak_ptr@VRawImageData@@@1@$0A@@?$pair@V?$basic_string@DU?$char_traits@D@std@@V?$allocator@D@2@@std@@V?$weak_ptr@VRawImageData@@@2@@std@@QAE@AAV?$basic_string@DU?$char_traits@D@std@@V?$allocator@D@2@@1@AAV?$weak_ptr@VRawImageData@@@1@@Z 004081d0 f i BaseEnemyObject.obj
 0001:00007220       ??$?0ABU?$less@V?$basic_string@DU?$char_traits@D@std@@V?$allocator@D@2@@std@@@std@@U_Zero_then_variadic_args_t@1@@?$_Compressed_pair@U?$less@V?$basic_string@DU?$char_traits@D@std@@V?$allocator@D@2@@std@@@std@@V?$_Compressed_pair@V?$allocator@U?$_Tree_node@U?$pair@$$CBV?$basic_string@DU?$char_traits@D@std@@V?$allocator@D@2@@std@@V?$shared_ptr@VRawImageData@@@2@@std@@PAX@std@@@std@@V?$_Tree_val@U?$_Tree_simple_types@U?$pair@$$CBV?$basic_string@DU?$char_traits@D@std@@V?$allocator@D@2@@std@@V?$shared_ptr@VRawImageData@@@2@@std@@@std@@@2@$00@2@$00@std@@QAE@U_One_then_variadic_args_t@1@ABU?$less@V?$basic_string@DU?$char_traits@D@std@@V?$allocator@D@2@@std@@@1@$$QAU_Zero_then_variadic_args_t@1@@Z 00408220 f i BaseEnemyObject.obj
 0001:00007270       ??$?0ABU?$less@V?$basic_string@DU?$char_traits@D@std@@V?$allocator@D@2@@std@@@std@@U_Zero_then_variadic_args_t@1@@?$_Compressed_pair@U?$less@V?$basic_string@DU?$char_traits@D@std@@V?$allocator@D@2@@std@@@std@@V?$_Compressed_pair@V?$allocator@U?$_Tree_node@U?$pair@$$CBV?$basic_string@DU?$char_traits@D@std@@V?$allocator@D@2@@std@@V?$weak_ptr@VRawImageData@@@2@@std@@PAX@std@@@std@@V?$_Tree_val@U?$_Tree_simple_types@U?$pair@$$CBV?$basic_string@DU?$char_traits@D@std@@V?$allocator@D@2@@std@@V?$weak_ptr@VRawImageData@@@2@@std@@@std@@@2@$00@2@$00@std@@QAE@U_One_then_variadic_args_t@1@ABU?$less@V?$basic_string@DU?$char_traits@D@std@@V?$allocator@D@2@@std@@@1@$$QAU_Zero_then_variadic_args_t@1@@Z 00408270 f i BaseEnemyObject.obj
 0001:000072c0       ??$?0ABV?$allocator@H@std@@$$V@?$_Compressed_pair@V?$allocator@H@std@@V?$_Vector_val@U?$_Simple_types@H@std@@@2@$00@std@@QAE@U_One_then_variadic_args_t@1@ABV?$allocator@H@1@@Z 004082c0 f i BaseEnemyObject.obj
 0001:000072f0       ??$?0ABV?$allocator@V?$vector@HV?$allocator@H@std@@@std@@@std@@$$V@?$_Compressed_pair@V?$allocator@V?$vector@HV?$allocator@H@std@@@std@@@std@@V?$_Vector_val@U?$_Simple_types@V?$vector@HV?$allocator@H@std@@@std@@@std@@@2@$00@std@@QAE@U_One_then_variadic_args_t@1@ABV?$allocator@V?$vector@HV?$allocator@H@std@@@std@@@1@@Z 004082f0 f i BaseEnemyObject.obj
 0001:00007320       ??$?0D@?$allocator@U_Container_proxy@std@@@std@@QAE@ABV?$allocator@D@1@@Z 00408320 f i BaseEnemyObject.obj
 0001:00007340       ??$?0H@?$allocator@U_Container_proxy@std@@@std@@QAE@ABV?$allocator@H@1@@Z 00408340 f i BaseEnemyObject.obj
 0001:00007360       ??$?0PAU?$_Tree_node@U?$pair@$$CBV?$basic_string@DU?$char_traits@D@std@@V?$allocator@D@2@@std@@V?$shared_ptr@VRawImageData@@@2@@std@@PAX@std@@_N$0A@@?$pair@PAU?$_Tree_node@U?$pair@$$CBV?$basic_string@DU?$char_traits@D@std@@V?$allocator@D@2@@std@@V?$shared_ptr@VRawImageData@@@2@@std@@PAX@std@@_N@std@@QAE@$$QAPAU?$_Tree_node@U?$pair@$$CBV?$basic_string@DU?$char_traits@D@std@@V?$allocator@D@2@@std@@V?$shared_ptr@VRawImageData@@@2@@std@@PAX@1@$$QA_N@Z 00408360 f i BaseEnemyObject.obj
 0001:000073b0       ??$?0PAU?$_Tree_node@U?$pair@$$CBV?$basic_string@DU?$char_traits@D@std@@V?$allocator@D@2@@std@@V?$weak_ptr@VRawImageData@@@2@@std@@PAX@std@@_N$0A@@?$pair@PAU?$_Tree_node@U?$pair@$$CBV?$basic_string@DU?$char_traits@D@std@@V?$allocator@D@2@@std@@V?$weak_ptr@VRawImageData@@@2@@std@@PAX@std@@_N@std@@QAE@$$QAPAU?$_Tree_node@U?$pair@$$CBV?$basic_string@DU?$char_traits@D@std@@V?$allocator@D@2@@std@@V?$weak_ptr@VRawImageData@@@2@@std@@PAX@1@$$QA_N@Z 004083b0 f i BaseEnemyObject.obj
 0001:00007400       ??$?0U?$_Tree_node@U?$pair@$$CBV?$basic_string@DU?$char_traits@D@std@@V?$allocator@D@2@@std@@V?$shared_ptr@VRawImageData@@@2@@std@@PAX@std@@@?$allocator@U_Container_proxy@std@@@std@@QAE@ABV?$allocator@U?$_Tree_node@U?$pair@$$CBV?$basic_string@DU?$char_traits@D@std@@V?$allocator@D@2@@std@@V?$shared_ptr@VRawImageData@@@2@@std@@PAX@std@@@1@@Z 00408400 f i BaseEnemyObject.obj
 0001:00007420       ??$?0U?$_Tree_node@U?$pair@$$CBV?$basic_string@DU?$char_traits@D@std@@V?$allocator@D@2@@std@@V?$weak_ptr@VRawImageData@@@2@@std@@PAX@std@@@?$allocator@U_Container_proxy@std@@@std@@QAE@ABV?$allocator@U?$_Tree_node@U?$pair@$$CBV?$basic_string@DU?$char_traits@D@std@@V?$allocator@D@2@@std@@V?$weak_ptr@VRawImageData@@@2@@std@@PAX@std@@@1@@Z 00408420 f i BaseEnemyObject.obj
 0001:00007440       ??$?0U?$pair@V?$basic_string@DU?$char_traits@D@std@@V?$allocator@D@2@@std@@V?$shared_ptr@VRawImageData@@@2@@std@@@?$_Tree_temp_node@V?$allocator@U?$_Tree_node@U?$pair@$$CBV?$basic_string@DU?$char_traits@D@std@@V?$allocator@D@2@@std@@V?$shared_ptr@VRawImageData@@@2@@std@@PAX@std@@@std@@@std@@QAE@AAV?$allocator@U?$_Tree_node@U?$pair@$$CBV?$basic_string@DU?$char_traits@D@std@@V?$allocator@D@2@@std@@V?$shared_ptr@VRawImageData@@@2@@std@@PAX@std@@@1@PAU?$_Tree_node@U?$pair@$$CBV?$basic_string@DU?$char_traits@D@std@@V?$allocator@D@2@@std@@V?$shared_ptr@VRawImageData@@@2@@std@@PAX@1@$$QAU?$pair@V?$basic_string@DU?$char_traits@D@std@@V?$allocator@D@2@@std@@V?$shared_ptr@VRawImageData@@@2@@1@@Z 00408440 f i BaseEnemyObject.obj
 0001:00007550       ??$?0U?$pair@V?$basic_string@DU?$char_traits@D@std@@V?$allocator@D@2@@std@@V?$weak_ptr@VRawImageData@@@2@@std@@@?$_Tree_temp_node@V?$allocator@U?$_Tree_node@U?$pair@$$CBV?$basic_string@DU?$char_traits@D@std@@V?$allocator@D@2@@std@@V?$weak_ptr@VRawImageData@@@2@@std@@PAX@std@@@std@@@std@@QAE@AAV?$allocator@U?$_Tree_node@U?$pair@$$CBV?$basic_string@DU?$char_traits@D@std@@V?$allocator@D@2@@std@@V?$weak_ptr@VRawImageData@@@2@@std@@PAX@std@@@1@PAU?$_Tree_node@U?$pair@$$CBV?$basic_string@DU?$char_traits@D@std@@V?$allocator@D@2@@std@@V?$weak_ptr@VRawImageData@@@2@@std@@PAX@1@$$QAU?$pair@V?$basic_string@DU?$char_traits@D@std@@V?$allocator@D@2@@std@@V?$weak_ptr@VRawImageData@@@2@@1@@Z 00408550 f i BaseEnemyObject.obj
 0001:00007660       ??$?0V?$_Tree_iterator@V?$_Tree_val@U?$_Tree_simple_types@U?$pair@$$CBV?$basic_string@DU?$char_traits@D@std@@V?$allocator@D@2@@std@@V?$shared_ptr@VRawImageData@@@2@@std@@@std@@@std@@@std@@AB_N$0A@@?$pair@V?$_Tree_iterator@V?$_Tree_val@U?$_Tree_simple_types@U?$pair@$$CBV?$basic_string@DU?$char_traits@D@std@@V?$allocator@D@2@@std@@V?$shared_ptr@VRawImageData@@@2@@std@@@std@@@std@@@std@@_N@std@@QAE@$$QAV?$_Tree_iterator@V?$_Tree_val@U?$_Tree_simple_types@U?$pair@$$CBV?$basic_string@DU?$char_traits@D@std@@V?$allocator@D@2@@std@@V?$shared_ptr@VRawImageData@@@2@@std@@@std@@@std@@@1@AB_N@Z 00408660 f i BaseEnemyObject.obj
 0001:000076b0       ??$?0V?$_Tree_iterator@V?$_Tree_val@U?$_Tree_simple_types@U?$pair@$$CBV?$basic_string@DU?$char_traits@D@std@@V?$allocator@D@2@@std@@V?$weak_ptr@VRawImageData@@@2@@std@@@std@@@std@@@std@@AB_N$0A@@?$pair@V?$_Tree_iterator@V?$_Tree_val@U?$_Tree_simple_types@U?$pair@$$CBV?$basic_string@DU?$char_traits@D@std@@V?$allocator@D@2@@std@@V?$weak_ptr@VRawImageData@@@2@@std@@@std@@@std@@@std@@_N@std@@QAE@$$QAV?$_Tree_iterator@V?$_Tree_val@U?$_Tree_simple_types@U?$pair@$$CBV?$basic_string@DU?$char_traits@D@std@@V?$allocator@D@2@@std@@V?$weak_ptr@VRawImageData@@@2@@std@@@std@@@std@@@1@AB_N@Z 004086b0 f i BaseEnemyObject.obj
 0001:00007700       ??$?0V?$allocator@D@std@@$$V@?$_Compressed_pair@V?$allocator@D@std@@V?$_String_val@U?$_Simple_types@D@std@@@2@$00@std@@QAE@U_One_then_variadic_args_t@1@$$QAV?$allocator@D@1@@Z 00408700 f i BaseEnemyObject.obj
 0001:00007730       ??$?0V?$allocator@H@std@@$$V@?$_Compressed_pair@V?$allocator@H@std@@V?$_Vector_val@U?$_Simple_types@H@std@@@2@$00@std@@QAE@U_One_then_variadic_args_t@1@$$QAV?$allocator@H@1@@Z 00408730 f i BaseEnemyObject.obj
 0001:00007760       ??$?0V?$allocator@V?$vector@HV?$allocator@H@std@@@std@@@std@@PAV?$vector@HV?$allocator@H@std@@@1@PAV21@PAV21@@?$_Compressed_pair@V?$allocator@V?$vector@HV?$allocator@H@std@@@std@@@std@@V?$_Vector_val@U?$_Simple_types@V?$vector@HV?$allocator@H@std@@@std@@@std@@@2@$00@std@@QAE@U_One_then_variadic_args_t@1@$$QAV?$allocator@V?$vector@HV?$allocator@H@std@@@std@@@1@$$QAPAV?$vector@HV?$allocator@H@std@@@1@22@Z 00408760 f i BaseEnemyObject.obj
 0001:000077d0       ??$?0V?$basic_string@DU?$char_traits@D@std@@V?$allocator@D@2@@std@@V?$shared_ptr@VRawImageData@@@1@$0A@@?$pair@$$CBV?$basic_string@DU?$char_traits@D@std@@V?$allocator@D@2@@std@@V?$shared_ptr@VRawImageData@@@2@@std@@QAE@$$QAU?$pair@V?$basic_string@DU?$char_traits@D@std@@V?$allocator@D@2@@std@@V?$shared_ptr@VRawImageData@@@2@@1@@Z 004087d0 f i BaseEnemyObject.obj
 0001:00007820       ??$?0V?$basic_string@DU?$char_traits@D@std@@V?$allocator@D@2@@std@@V?$weak_ptr@VRawImageData@@@1@$0A@@?$pair@$$CBV?$basic_string@DU?$char_traits@D@std@@V?$allocator@D@2@@std@@V?$weak_ptr@VRawImageData@@@2@@std@@QAE@$$QAU?$pair@V?$basic_string@DU?$char_traits@D@std@@V?$allocator@D@2@@std@@V?$weak_ptr@VRawImageData@@@2@@1@@Z 00408820 f i BaseEnemyObject.obj
 0001:00007870       ??$?0V?$vector@HV?$allocator@H@std@@@std@@@?$allocator@U_Container_proxy@std@@@std@@QAE@ABV?$allocator@V?$vector@HV?$allocator@H@std@@@std@@@1@@Z 00408870 f i BaseEnemyObject.obj
 0001:00007890       ??$?0VRawImageData@@$0A@@?$shared_ptr@VRawImageData@@@std@@QAE@PAVRawImageData@@@Z 00408890 f i BaseEnemyObject.obj
 0001:00007980       ??$?0VRawImageData@@$0A@@?$weak_ptr@VRawImageData@@@std@@QAE@ABV?$shared_ptr@VRawImageData@@@1@@Z 00408980 f i BaseEnemyObject.obj
 0001:000079b0       ??$?6DU?$char_traits@D@std@@V?$allocator@D@1@@std@@YAAAV?$basic_ostream@DU?$char_traits@D@std@@@0@AAV10@ABV?$basic_string@DU?$char_traits@D@std@@V?$allocator@D@2@@0@@Z 004089b0 f i BaseEnemyObject.obj
 0001:000079e0       ??$?6U?$char_traits@D@std@@@std@@YAAAV?$basic_ostream@DU?$char_traits@D@std@@@0@AAV10@PBD@Z 004089e0 f i BaseEnemyObject.obj
 0001:00007de0       ??$?9VRawImageData@@@std@@YA_NABV?$shared_ptr@VRawImageData@@@0@$$T@Z 00408de0 f i BaseEnemyObject.obj
 0001:00007e10       ??$?CVRawImageData@@$0A@@?$shared_ptr@VRawImageData@@@std@@QBEPAVRawImageData@@XZ 00408e10 f i BaseEnemyObject.obj
 0001:00007e30       ??$?MDU?$char_traits@D@std@@V?$allocator@D@1@@std@@YA_NABV?$basic_string@DU?$char_traits@D@std@@V?$allocator@D@2@@0@0@Z 00408e30 f i BaseEnemyObject.obj
 0001:00007e70       ??$_Alloc_proxy@V?$allocator@U_Container_proxy@std@@@std@@@_Container_base12@std@@QAEX$$QAV?$allocator@U_Container_proxy@std@@@1@@Z 00408e70 f i BaseEnemyObject.obj
 0001:00007ed0       ??$_Allocate@$07U_Default_allocate_traits@std@@$0A@@std@@YAPAXI@Z 00408ed0 f i BaseEnemyObject.obj
 0001:00007f10       ??$_Allocate_manually_vector_aligned@U_Default_allocate_traits@std@@@std@@YAPAXI@Z 00408f10 f i BaseEnemyObject.obj
 0001:00008000       ??$_Buyheadnode@V?$allocator@U?$_Tree_node@U?$pair@$$CBV?$basic_string@DU?$char_traits@D@std@@V?$allocator@D@2@@std@@V?$shared_ptr@VRawImageData@@@2@@std@@PAX@std@@@std@@@?$_Tree_node@U?$pair@$$CBV?$basic_string@DU?$char_traits@D@std@@V?$allocator@D@2@@std@@V?$shared_ptr@VRawImageData@@@2@@std@@PAX@std@@SAPAU01@AAV?$allocator@U?$_Tree_node@U?$pair@$$CBV?$basic_string@DU?$char_traits@D@std@@V?$allocator@D@2@@std@@V?$shared_ptr@VRawImageData@@@2@@std@@PAX@std@@@1@@Z 00409000 f i BaseEnemyObject.obj
 0001:00008080       ??$_Buyheadnode@V?$allocator@U?$_Tree_node@U?$pair@$$CBV?$basic_string@DU?$char_traits@D@std@@V?$allocator@D@2@@std@@V?$weak_ptr@VRawImageData@@@2@@std@@PAX@std@@@std@@@?$_Tree_node@U?$pair@$$CBV?$basic_string@DU?$char_traits@D@std@@V?$allocator@D@2@@std@@V?$weak_ptr@VRawImageData@@@2@@std@@PAX@std@@SAPAU01@AAV?$allocator@U?$_Tree_node@U?$pair@$$CBV?$basic_string@DU?$char_traits@D@std@@V?$allocator@D@2@@std@@V?$weak_ptr@VRawImageData@@@2@@std@@PAX@std@@@1@@Z 00409080 f i BaseEnemyObject.obj
 0001:00008100       ??$_Construct_from_weak@VRawImageData@@@?$_Ptr_base@VRawImageData@@@std@@IAE_NABV?$weak_ptr@VRawImageData@@@1@@Z 00409100 f i BaseEnemyObject.obj
 0001:00008160       ??$_Construct_in_place@PADAAPAD@std@@YAXAAPAD0@Z 00409160 f i BaseEnemyObject.obj
 0001:000081b0       ??$_Construct_in_place@PADABQAD@std@@YAXAAPADABQAD@Z 004091b0 f i BaseEnemyObject.obj
 0001:00008200       ??$_Construct_in_place@PAU?$_Tree_node@U?$pair@$$CBV?$basic_string@DU?$char_traits@D@std@@V?$allocator@D@2@@std@@V?$shared_ptr@VRawImageData@@@2@@std@@PAX@std@@AAPAU12@@std@@YAXAAPAU?$_Tree_node@U?$pair@$$CBV?$basic_string@DU?$char_traits@D@std@@V?$allocator@D@2@@std@@V?$shared_ptr@VRawImageData@@@2@@std@@PAX@0@0@Z 00409200 f i BaseEnemyObject.obj
 0001:00008250       ??$_Construct_in_place@PAU?$_Tree_node@U?$pair@$$CBV?$basic_string@DU?$char_traits@D@std@@V?$allocator@D@2@@std@@V?$shared_ptr@VRawImageData@@@2@@std@@PAX@std@@ABQAU12@@std@@YAXAAPAU?$_Tree_node@U?$pair@$$CBV?$basic_string@DU?$char_traits@D@std@@V?$allocator@D@2@@std@@V?$shared_ptr@VRawImageData@@@2@@std@@PAX@0@ABQAU10@@Z 00409250 f i BaseEnemyObject.obj
 0001:000082a0       ??$_Construct_in_place@PAU?$_Tree_node@U?$pair@$$CBV?$basic_string@DU?$char_traits@D@std@@V?$allocator@D@2@@std@@V?$weak_ptr@VRawImageData@@@2@@std@@PAX@std@@AAPAU12@@std@@YAXAAPAU?$_Tree_node@U?$pair@$$CBV?$basic_string@DU?$char_traits@D@std@@V?$allocator@D@2@@std@@V?$weak_ptr@VRawImageData@@@2@@std@@PAX@0@0@Z 004092a0 f i BaseEnemyObject.obj
 0001:000082f0       ??$_Construct_in_place@PAU?$_Tree_node@U?$pair@$$CBV?$basic_string@DU?$char_traits@D@std@@V?$allocator@D@2@@std@@V?$weak_ptr@VRawImageData@@@2@@std@@PAX@std@@ABQAU12@@std@@YAXAAPAU?$_Tree_node@U?$pair@$$CBV?$basic_string@DU?$char_traits@D@std@@V?$allocator@D@2@@std@@V?$weak_ptr@VRawImageData@@@2@@std@@PAX@0@ABQAU10@@Z 004092f0 f i BaseEnemyObject.obj
 0001:00008340       ??$_Construct_in_place@U_Container_proxy@std@@PAU_Container_base12@2@@std@@YAXAAU_Container_proxy@0@$$QAPAU_Container_base12@0@@Z 00409340 f i BaseEnemyObject.obj
 0001:000083a0       ??$_Construct_n_copies_of_ty@H@?$vector@HV?$allocator@H@std@@@std@@AAEXIABH@Z 004093a0 f i BaseEnemyObject.obj
 0001:000084b0       ??$_Construct_n_copies_of_ty@V?$vector@HV?$allocator@H@std@@@std@@@?$vector@V?$vector@HV?$allocator@H@std@@@std@@V?$allocator@V?$vector@HV?$allocator@H@std@@@std@@@2@@std@@AAEXIABV?$vector@HV?$allocator@H@std@@@1@@Z 004094b0 f i BaseEnemyObject.obj
 0001:000085c0       ??$_Convert_size@I@std@@YAII@Z 004095c0 f i BaseEnemyObject.obj
 0001:000085d0       ??$_Copy_construct_from@VRawImageData@@@?$_Ptr_base@VRawImageData@@@std@@IAEXABV?$shared_ptr@VRawImageData@@@1@@Z 004095d0 f i BaseEnemyObject.obj
 0001:00008610       ??$_Copy_memmove@PAHPAH@std@@YAPAHPAH00@Z 00409610 f i BaseEnemyObject.obj
 0001:000086a0       ??$_Deallocate@$07$0A@@std@@YAXPAXI@Z 004096a0 f i BaseEnemyObject.obj
 0001:00008720       ??$_Deallocate_plain@V?$allocator@U_Container_proxy@std@@@std@@@std@@YAXAAV?$allocator@U_Container_proxy@std@@@0@QAU_Container_proxy@0@@Z 00409720 f i BaseEnemyObject.obj
 0001:00008780       ??$_Debug_lt_pred@ABU?$less@V?$basic_string@DU?$char_traits@D@std@@V?$allocator@D@2@@std@@@std@@ABV?$basic_string@DU?$char_traits@D@std@@V?$allocator@D@2@@2@ABV32@$0A@@std@@YA_NABU?$less@V?$basic_string@DU?$char_traits@D@std@@V?$allocator@D@2@@std@@@0@ABV?$basic_string@DU?$char_traits@D@std@@V?$allocator@D@2@@0@1@Z 00409780 f i BaseEnemyObject.obj
 0001:00008830       ??$_Delete_plain_internal@V?$allocator@U_Container_proxy@std@@@std@@@std@@YAXAAV?$allocator@U_Container_proxy@std@@@0@QAU_Container_proxy@0@@Z 00409830 f i BaseEnemyObject.obj
 0001:00008850       ??$_Destroy_in_place@PAD@std@@YAXAAPAD@Z 00409850 f i BaseEnemyObject.obj
 0001:00008860       ??$_Destroy_in_place@PAU?$_Tree_node@U?$pair@$$CBV?$basic_string@DU?$char_traits@D@std@@V?$allocator@D@2@@std@@V?$shared_ptr@VRawImageData@@@2@@std@@PAX@std@@@std@@YAXAAPAU?$_Tree_node@U?$pair@$$CBV?$basic_string@DU?$char_traits@D@std@@V?$allocator@D@2@@std@@V?$shared_ptr@VRawImageData@@@2@@std@@PAX@0@@Z 00409860 f i BaseEnemyObject.obj
 0001:00008870       ??$_Destroy_in_place@PAU?$_Tree_node@U?$pair@$$CBV?$basic_string@DU?$char_traits@D@std@@V?$allocator@D@2@@std@@V?$weak_ptr@VRawImageData@@@2@@std@@PAX@std@@@std@@YAXAAPAU?$_Tree_node@U?$pair@$$CBV?$basic_string@DU?$char_traits@D@std@@V?$allocator@D@2@@std@@V?$weak_ptr@VRawImageData@@@2@@std@@PAX@0@@Z 00409870 f i BaseEnemyObject.obj
 0001:00008880       ??$_Destroy_range@V?$allocator@H@std@@@std@@YAXPAHQAHAAV?$allocator@H@0@@Z 00409880 f i BaseEnemyObject.obj
 0001:00008890       ??$_Destroy_range@V?$allocator@V?$vector@HV?$allocator@H@std@@@std@@@std@@@std@@YAXPAV?$vector@HV?$allocator@H@std@@@0@QAV10@AAV?$allocator@V?$vector@HV?$allocator@H@std@@@std@@@0@@Z 00409890 f i BaseEnemyObject.obj
 0001:00008910       ??$_Emplace@U?$pair@V?$basic_string@DU?$char_traits@D@std@@V?$allocator@D@2@@std@@V?$shared_ptr@VRawImageData@@@2@@std@@@?$_Tree@V?$_Tmap_traits@V?$basic_string@DU?$char_traits@D@std@@V?$allocator@D@2@@std@@V?$shared_ptr@VRawImageData@@@2@U?$less@V?$basic_string@DU?$char_traits@D@std@@V?$allocator@D@2@@std@@@2@V?$allocator@U?$pair@$$CBV?$basic_string@DU?$char_traits@D@std@@V?$allocator@D@2@@std@@V?$shared_ptr@VRawImageData@@@2@@std@@@2@$0A@@std@@@std@@IAE?AU?$pair@PAU?$_Tree_node@U?$pair@$$CBV?$basic_string@DU?$char_traits@D@std@@V?$allocator@D@2@@std@@V?$shared_ptr@VRawImageData@@@2@@std@@PAX@std@@_N@1@$$QAU?$pair@V?$basic_string@DU?$char_traits@D@std@@V?$allocator@D@2@@std@@V?$shared_ptr@VRawImageData@@@2@@1@@Z 00409910 f i BaseEnemyObject.obj
 0001:00008a40       ??$_Emplace@U?$pair@V?$basic_string@DU?$char_traits@D@std@@V?$allocator@D@2@@std@@V?$weak_ptr@VRawImageData@@@2@@std@@@?$_Tree@V?$_Tmap_traits@V?$basic_string@DU?$char_traits@D@std@@V?$allocator@D@2@@std@@V?$weak_ptr@VRawImageData@@@2@U?$less@V?$basic_string@DU?$char_traits@D@std@@V?$allocator@D@2@@std@@@2@V?$allocator@U?$pair@$$CBV?$basic_string@DU?$char_traits@D@std@@V?$allocator@D@2@@std@@V?$weak_ptr@VRawImageData@@@2@@std@@@2@$0A@@std@@@std@@IAE?AU?$pair@PAU?$_Tree_node@U?$pair@$$CBV?$basic_string@DU?$char_traits@D@std@@V?$allocator@D@2@@std@@V?$weak_ptr@VRawImageData@@@2@@std@@PAX@std@@_N@1@$$QAU?$pair@V?$basic_string@DU?$char_traits@D@std@@V?$allocator@D@2@@std@@V?$weak_ptr@VRawImageData@@@2@@1@@Z 00409a40 f i BaseEnemyObject.obj
 0001:00008b70       ??$_Emplace_back@AAH@?$_Uninitialized_backout_al@V?$allocator@H@std@@@std@@QAEXAAH@Z 00409b70 f i BaseEnemyObject.obj
 0001:00008bd0       ??$_Emplace_back@ABH@?$_Uninitialized_backout_al@V?$allocator@H@std@@@std@@QAEXABH@Z 00409bd0 f i BaseEnemyObject.obj
 0001:00008c30       ??$_Emplace_back@ABV?$vector@HV?$allocator@H@std@@@std@@@?$_Uninitialized_backout_al@V?$allocator@V?$vector@HV?$allocator@H@std@@@std@@@std@@@std@@QAEXABV?$vector@HV?$allocator@H@std@@@1@@Z 00409c30 f i BaseEnemyObject.obj
 0001:00008c90       ??$_Erase_head@V?$allocator@U?$_Tree_node@U?$pair@$$CBV?$basic_string@DU?$char_traits@D@std@@V?$allocator@D@2@@std@@V?$weak_ptr@VRawImageData@@@2@@std@@PAX@std@@@std@@@?$_Tree_val@U?$_Tree_simple_types@U?$pair@$$CBV?$basic_string@DU?$char_traits@D@std@@V?$allocator@D@2@@std@@V?$weak_ptr@VRawImageData@@@2@@std@@@std@@@std@@QAEXAAV?$allocator@U?$_Tree_node@U?$pair@$$CBV?$basic_string@DU?$char_traits@D@std@@V?$allocator@D@2@@std@@V?$weak_ptr@VRawImageData@@@2@@std@@PAX@std@@@1@@Z 00409c90 f i BaseEnemyObject.obj
 0001:00008ce0       ??$_Erase_tree@V?$allocator@U?$_Tree_node@U?$pair@$$CBV?$basic_string@DU?$char_traits@D@std@@V?$allocator@D@2@@std@@V?$weak_ptr@VRawImageData@@@2@@std@@PAX@std@@@std@@@?$_Tree_val@U?$_Tree_simple_types@U?$pair@$$CBV?$basic_string@DU?$char_traits@D@std@@V?$allocator@D@2@@std@@V?$weak_ptr@VRawImageData@@@2@@std@@@std@@@std@@QAEXAAV?$allocator@U?$_Tree_node@U?$pair@$$CBV?$basic_string@DU?$char_traits@D@std@@V?$allocator@D@2@@std@@V?$weak_ptr@VRawImageData@@@2@@std@@PAX@std@@@1@PAU?$_Tree_node@U?$pair@$$CBV?$basic_string@DU?$char_traits@D@std@@V?$allocator@D@2@@std@@V?$weak_ptr@VRawImageData@@@2@@std@@PAX@1@@Z 00409ce0 f i BaseEnemyObject.obj
 0001:00008d40       ??$_Fill_zero_memset@PAH@std@@YAXPAHI@Z 00409d40 f i BaseEnemyObject.obj
 0001:00008d70       ??$_Find@V?$basic_string@DU?$char_traits@D@std@@V?$allocator@D@2@@std@@@?$_Tree@V?$_Tmap_traits@V?$basic_string@DU?$char_traits@D@std@@V?$allocator@D@2@@std@@V?$weak_ptr@VRawImageData@@@2@U?$less@V?$basic_string@DU?$char_traits@D@std@@V?$allocator@D@2@@std@@@2@V?$allocator@U?$pair@$$CBV?$basic_string@DU?$char_traits@D@std@@V?$allocator@D@2@@std@@V?$weak_ptr@VRawImageData@@@2@@std@@@2@$0A@@std@@@std@@ABEPAU?$_Tree_node@U?$pair@$$CBV?$basic_string@DU?$char_traits@D@std@@V?$allocator@D@2@@std@@V?$weak_ptr@VRawImageData@@@2@@std@@PAX@1@ABV?$basic_string@DU?$char_traits@D@std@@V?$allocator@D@2@@1@@Z 00409d70 f i BaseEnemyObject.obj
 0001:00008dd0       ??$_Find_lower_bound@V?$basic_string@DU?$char_traits@D@std@@V?$allocator@D@2@@std@@@?$_Tree@V?$_Tmap_traits@V?$basic_string@DU?$char_traits@D@std@@V?$allocator@D@2@@std@@V?$shared_ptr@VRawImageData@@@2@U?$less@V?$basic_string@DU?$char_traits@D@std@@V?$allocator@D@2@@std@@@2@V?$allocator@U?$pair@$$CBV?$basic_string@DU?$char_traits@D@std@@V?$allocator@D@2@@std@@V?$shared_ptr@VRawImageData@@@2@@std@@@2@$0A@@std@@@std@@IBE?AU?$_Tree_find_result@PAU?$_Tree_node@U?$pair@$$CBV?$basic_string@DU?$char_traits@D@std@@V?$allocator@D@2@@std@@V?$shared_ptr@VRawImageData@@@2@@std@@PAX@std@@@1@ABV?$basic_string@DU?$char_traits@D@std@@V?$allocator@D@2@@1@@Z 00409dd0 f i BaseEnemyObject.obj
 0001:00008ec0       ??$_Find_lower_bound@V?$basic_string@DU?$char_traits@D@std@@V?$allocator@D@2@@std@@@?$_Tree@V?$_Tmap_traits@V?$basic_string@DU?$char_traits@D@std@@V?$allocator@D@2@@std@@V?$weak_ptr@VRawImageData@@@2@U?$less@V?$basic_string@DU?$char_traits@D@std@@V?$allocator@D@2@@std@@@2@V?$allocator@U?$pair@$$CBV?$basic_string@DU?$char_traits@D@std@@V?$allocator@D@2@@std@@V?$weak_ptr@VRawImageData@@@2@@std@@@2@$0A@@std@@@std@@IBE?AU?$_Tree_find_result@PAU?$_Tree_node@U?$pair@$$CBV?$basic_string@DU?$char_traits@D@std@@V?$allocator@D@2@@std@@V?$weak_ptr@VRawImageData@@@2@@std@@PAX@std@@@1@ABV?$basic_string@DU?$char_traits@D@std@@V?$allocator@D@2@@1@@Z 00409ec0 f i BaseEnemyObject.obj
 0001:00008fb0       ??$_Freenode0@V?$allocator@U?$_Tree_node@U?$pair@$$CBV?$basic_string@DU?$char_traits@D@std@@V?$allocator@D@2@@std@@V?$weak_ptr@VRawImageData@@@2@@std@@PAX@std@@@std@@@?$_Tree_node@U?$pair@$$CBV?$basic_string@DU?$char_traits@D@std@@V?$allocator@D@2@@std@@V?$weak_ptr@VRawImageData@@@2@@std@@PAX@std@@SAXAAV?$allocator@U?$_Tree_node@U?$pair@$$CBV?$basic_string@DU?$char_traits@D@std@@V?$allocator@D@2@@std@@V?$weak_ptr@VRawImageData@@@2@@std@@PAX@std@@@1@PAU01@@Z 00409fb0 f i BaseEnemyObject.obj
 0001:00009040       ??$_Freenode@V?$allocator@U?$_Tree_node@U?$pair@$$CBV?$basic_string@DU?$char_traits@D@std@@V?$allocator@D@2@@std@@V?$weak_ptr@VRawImageData@@@2@@std@@PAX@std@@@std@@@?$_Tree_node@U?$pair@$$CBV?$basic_string@DU?$char_traits@D@std@@V?$allocator@D@2@@std@@V?$weak_ptr@VRawImageData@@@2@@std@@PAX@std@@SAXAAV?$allocator@U?$_Tree_node@U?$pair@$$CBV?$basic_string@DU?$char_traits@D@std@@V?$allocator@D@2@@std@@V?$weak_ptr@VRawImageData@@@2@@std@@PAX@std@@@1@PAU01@@Z 0040a040 f i BaseEnemyObject.obj
 0001:000090c0       ??$_Get_size_of_n@$00@std@@YAII@Z 0040a0c0 f i BaseEnemyObject.obj
 0001:000090e0       ??$_Get_size_of_n@$03@std@@YAII@Z 0040a0e0 f i BaseEnemyObject.obj
 0001:00009120       ??$_Get_size_of_n@$07@std@@YAII@Z 0040a120 f i BaseEnemyObject.obj
 0001:00009160       ??$_Get_size_of_n@$0BA@@std@@YAII@Z 0040a160 f i BaseEnemyObject.obj
 0001:000091a0       ??$_Get_size_of_n@$0DE@@std@@YAII@Z 0040a1a0 f i BaseEnemyObject.obj
 0001:000091d0       ??$_Get_unwrapped@ABQAH@std@@YA?A_TABQAH@Z 0040a1d0 f i BaseEnemyObject.obj
 0001:000091e0       ??$_Insert_string@DU?$char_traits@D@std@@I@std@@YAAAV?$basic_ostream@DU?$char_traits@D@std@@@0@AAV10@QBDI@Z 0040a1e0 f i BaseEnemyObject.obj
 0001:00009560       ??$_Is_all_bits_zero@H@std@@YA_NABH@Z 0040a560 f i BaseEnemyObject.obj
 0001:000095b0       ??$_Kfn@$$CBV?$basic_string@DU?$char_traits@D@std@@V?$allocator@D@2@@std@@V?$shared_ptr@VRawImageData@@@2@@?$_Tmap_traits@V?$basic_string@DU?$char_traits@D@std@@V?$allocator@D@2@@std@@V?$shared_ptr@VRawImageData@@@2@U?$less@V?$basic_string@DU?$char_traits@D@std@@V?$allocator@D@2@@std@@@2@V?$allocator@U?$pair@$$CBV?$basic_string@DU?$char_traits@D@std@@V?$allocator@D@2@@std@@V?$shared_ptr@VRawImageData@@@2@@std@@@2@$0A@@std@@SAABV?$basic_string@DU?$char_traits@D@std@@V?$allocator@D@2@@1@ABU?$pair@$$CBV?$basic_string@DU?$char_traits@D@std@@V?$allocator@D@2@@std@@V?$shared_ptr@VRawImageData@@@2@@1@@Z 0040a5b0 f i BaseEnemyObject.obj
 0001:000095c0       ??$_Kfn@$$CBV?$basic_string@DU?$char_traits@D@std@@V?$allocator@D@2@@std@@V?$weak_ptr@VRawImageData@@@2@@?$_Tmap_traits@V?$basic_string@DU?$char_traits@D@std@@V?$allocator@D@2@@std@@V?$weak_ptr@VRawImageData@@@2@U?$less@V?$basic_string@DU?$char_traits@D@std@@V?$allocator@D@2@@std@@@2@V?$allocator@U?$pair@$$CBV?$basic_string@DU?$char_traits@D@std@@V?$allocator@D@2@@std@@V?$weak_ptr@VRawImageData@@@2@@std@@@2@$0A@@std@@SAABV?$basic_string@DU?$char_traits@D@std@@V?$allocator@D@2@@1@ABU?$pair@$$CBV?$basic_string@DU?$char_traits@D@std@@V?$allocator@D@2@@std@@V?$weak_ptr@VRawImageData@@@2@@1@@Z 0040a5c0 f i BaseEnemyObject.obj
 0001:000095d0       ??$_Lower_bound_duplicate@V?$basic_string@DU?$char_traits@D@std@@V?$allocator@D@2@@std@@@?$_Tree@V?$_Tmap_traits@V?$basic_string@DU?$char_traits@D@std@@V?$allocator@D@2@@std@@V?$shared_ptr@VRawImageData@@@2@U?$less@V?$basic_string@DU?$char_traits@D@std@@V?$allocator@D@2@@std@@@2@V?$allocator@U?$pair@$$CBV?$basic_string@DU?$char_traits@D@std@@V?$allocator@D@2@@std@@V?$shared_ptr@VRawImageData@@@2@@std@@@2@$0A@@std@@@std@@IBE_NQAU?$_Tree_node@U?$pair@$$CBV?$basic_string@DU?$char_traits@D@std@@V?$allocator@D@2@@std@@V?$shared_ptr@VRawImageData@@@2@@std@@PAX@1@ABV?$basic_string@DU?$char_traits@D@std@@V?$allocator@D@2@@1@@Z 0040a5d0 f i BaseEnemyObject.obj
 0001:00009640       ??$_Lower_bound_duplicate@V?$basic_string@DU?$char_traits@D@std@@V?$allocator@D@2@@std@@@?$_Tree@V?$_Tmap_traits@V?$basic_string@DU?$char_traits@D@std@@V?$allocator@D@2@@std@@V?$weak_ptr@VRawImageData@@@2@U?$less@V?$basic_string@DU?$char_traits@D@std@@V?$allocator@D@2@@std@@@2@V?$allocator@U?$pair@$$CBV?$basic_string@DU?$char_traits@D@std@@V?$allocator@D@2@@std@@V?$weak_ptr@VRawImageData@@@2@@std@@@2@$0A@@std@@@std@@IBE_NQAU?$_Tree_node@U?$pair@$$CBV?$basic_string@DU?$char_traits@D@std@@V?$allocator@D@2@@std@@V?$weak_ptr@VRawImageData@@@2@@std@@PAX@1@ABV?$basic_string@DU?$char_traits@D@std@@V?$allocator@D@2@@1@@Z 0040a640 f i BaseEnemyObject.obj
 0001:000096b0       ??$_Move_construct_from@VRawImageData@@@?$_Ptr_base@VRawImageData@@@std@@IAEX$$QAV01@@Z 0040a6b0 f i BaseEnemyObject.obj
 0001:00009700       ??$_Reallocate_for@V<lambda_9366063389c5f42a00a5088cf24e69de>@@PBD@?$basic_string@DU?$char_traits@D@std@@V?$allocator@D@2@@std@@AAEAAV01@IV<lambda_9366063389c5f42a00a5088cf24e69de>@@PBD@Z 0040a700 f i BaseEnemyObject.obj
 0001:00009800       ??$_Set_ptr_rep_and_enable_shared@VRawImageData@@@?$shared_ptr@VRawImageData@@@std@@AAEXQAVRawImageData@@QAV_Ref_count_base@1@@Z 0040a800 f i BaseEnemyObject.obj
 0001:00009830       ??$_To_address@PAH@std@@YA?A_PABQAH@Z 0040a830 f i BaseEnemyObject.obj
 0001:00009840       ??$_Traits_compare@U?$char_traits@D@std@@@std@@YAHQBDI0I@Z 0040a840 f i BaseEnemyObject.obj
 0001:000098b0       ??$_Ucopy@PAH@?$vector@HV?$allocator@H@std@@@std@@AAEPAHPAH00@Z 0040a8b0 f i BaseEnemyObject.obj
 0001:000098f0       ??$_Unfancy@D@std@@YAPADPAD@Z 0040a8f0 f i BaseEnemyObject.obj
 0001:00009900       ??$_Unfancy@H@std@@YAPAHPAH@Z 0040a900 f i BaseEnemyObject.obj
 0001:00009910       ??$_Unfancy@U_Container_proxy@std@@@std@@YAPAU_Container_proxy@0@PAU10@@Z 0040a910 f i BaseEnemyObject.obj
 0001:00009920       ??$_Unfancy@V?$vector@HV?$allocator@H@std@@@std@@@std@@YAPAV?$vector@HV?$allocator@H@std@@@0@PAV10@@Z 0040a920 f i BaseEnemyObject.obj
 0001:00009930       ??$_Uninitialized_copy@PAHV?$allocator@H@std@@@std@@YAPAHQAH0PAHAAV?$allocator@H@0@@Z 0040a930 f i BaseEnemyObject.obj
 0001:00009a50       ??$_Uninitialized_fill_n@V?$allocator@H@std@@@std@@YAPAHPAHIABHAAV?$allocator@H@0@@Z 0040aa50 f i BaseEnemyObject.obj
 0001:00009b40       ??$_Uninitialized_fill_n@V?$allocator@V?$vector@HV?$allocator@H@std@@@std@@@std@@@std@@YAPAV?$vector@HV?$allocator@H@std@@@0@PAV10@IABV10@AAV?$allocator@V?$vector@HV?$allocator@H@std@@@std@@@0@@Z 0040ab40 f i BaseEnemyObject.obj
 0001:00009bf0       ??$_Voidify_iter@PAH@std@@YAPAXPAH@Z 0040abf0 f i BaseEnemyObject.obj
 0001:00009c00       ??$_Voidify_iter@PAPAD@std@@YAPAXPAPAD@Z 0040ac00 f i BaseEnemyObject.obj
 0001:00009c10       ??$_Voidify_iter@PAPAU?$_Tree_node@U?$pair@$$CBV?$basic_string@DU?$char_traits@D@std@@V?$allocator@D@2@@std@@V?$shared_ptr@VRawImageData@@@2@@std@@PAX@std@@@std@@YAPAXPAPAU?$_Tree_node@U?$pair@$$CBV?$basic_string@DU?$char_traits@D@std@@V?$allocator@D@2@@std@@V?$shared_ptr@VRawImageData@@@2@@std@@PAX@0@@Z 0040ac10 f i BaseEnemyObject.obj
 0001:00009c20       ??$_Voidify_iter@PAPAU?$_Tree_node@U?$pair@$$CBV?$basic_string@DU?$char_traits@D@std@@V?$allocator@D@2@@std@@V?$weak_ptr@VRawImageData@@@2@@std@@PAX@std@@@std@@YAPAXPAPAU?$_Tree_node@U?$pair@$$CBV?$basic_string@DU?$char_traits@D@std@@V?$allocator@D@2@@std@@V?$weak_ptr@VRawImageData@@@2@@std@@PAX@0@@Z 0040ac20 f i BaseEnemyObject.obj
 0001:00009c30       ??$_Voidify_iter@PAU?$pair@$$CBV?$basic_string@DU?$char_traits@D@std@@V?$allocator@D@2@@std@@V?$shared_ptr@VRawImageData@@@2@@std@@@std@@YAPAXPAU?$pair@$$CBV?$basic_string@DU?$char_traits@D@std@@V?$allocator@D@2@@std@@V?$shared_ptr@VRawImageData@@@2@@0@@Z 0040ac30 f i BaseEnemyObject.obj
 0001:00009c40       ??$_Voidify_iter@PAU?$pair@$$CBV?$basic_string@DU?$char_traits@D@std@@V?$allocator@D@2@@std@@V?$weak_ptr@VRawImageData@@@2@@std@@@std@@YAPAXPAU?$pair@$$CBV?$basic_string@DU?$char_traits@D@std@@V?$allocator@D@2@@std@@V?$weak_ptr@VRawImageData@@@2@@0@@Z 0040ac40 f i BaseEnemyObject.obj
 0001:00009c50       ??$_Voidify_iter@PAU_Container_proxy@std@@@std@@YAPAXPAU_Container_proxy@0@@Z 0040ac50 f i BaseEnemyObject.obj
 0001:00009c60       ??$_Voidify_iter@PAV?$vector@HV?$allocator@H@std@@@std@@@std@@YAPAXPAV?$vector@HV?$allocator@H@std@@@0@@Z 0040ac60 f i BaseEnemyObject.obj
 0001:00009c70       ??$_Weakly_construct_from@VRawImageData@@@?$_Ptr_base@VRawImageData@@@std@@IAEXABV01@@Z 0040ac70 f i BaseEnemyObject.obj
 0001:00009cc0       ??$addressof@$$CBV?$_String_val@U?$_Simple_types@D@std@@@std@@@std@@YAPBV?$_String_val@U?$_Simple_types@D@std@@@0@ABV10@@Z 0040acc0 f i BaseEnemyObject.obj
 0001:00009cd0       ??$addressof@$$CBV?$_Tree_val@U?$_Tree_simple_types@U?$pair@$$CBV?$basic_string@DU?$char_traits@D@std@@V?$allocator@D@2@@std@@V?$shared_ptr@VRawImageData@@@2@@std@@@std@@@std@@@std@@YAPBV?$_Tree_val@U?$_Tree_simple_types@U?$pair@$$CBV?$basic_string@DU?$char_traits@D@std@@V?$allocator@D@2@@std@@V?$shared_ptr@VRawImageData@@@2@@std@@@std@@@0@ABV10@@Z 0040acd0 f i BaseEnemyObject.obj
 0001:00009ce0       ??$addressof@$$CBV?$_Tree_val@U?$_Tree_simple_types@U?$pair@$$CBV?$basic_string@DU?$char_traits@D@std@@V?$allocator@D@2@@std@@V?$weak_ptr@VRawImageData@@@2@@std@@@std@@@std@@@std@@YAPBV?$_Tree_val@U?$_Tree_simple_types@U?$pair@$$CBV?$basic_string@DU?$char_traits@D@std@@V?$allocator@D@2@@std@@V?$weak_ptr@VRawImageData@@@2@@std@@@std@@@0@ABV10@@Z 0040ace0 f i BaseEnemyObject.obj
 0001:00009cf0       ??$addressof@PAD@std@@YAPAPADAAPAD@Z 0040acf0 f i BaseEnemyObject.obj
 0001:00009d00       ??$addressof@PAU?$_Tree_node@U?$pair@$$CBV?$basic_string@DU?$char_traits@D@std@@V?$allocator@D@2@@std@@V?$shared_ptr@VRawImageData@@@2@@std@@PAX@std@@@std@@YAPAPAU?$_Tree_node@U?$pair@$$CBV?$basic_string@DU?$char_traits@D@std@@V?$allocator@D@2@@std@@V?$shared_ptr@VRawImageData@@@2@@std@@PAX@0@AAPAU10@@Z 0040ad00 f i BaseEnemyObject.obj
 0001:00009d10       ??$addressof@PAU?$_Tree_node@U?$pair@$$CBV?$basic_string@DU?$char_traits@D@std@@V?$allocator@D@2@@std@@V?$weak_ptr@VRawImageData@@@2@@std@@PAX@std@@@std@@YAPAPAU?$_Tree_node@U?$pair@$$CBV?$basic_string@DU?$char_traits@D@std@@V?$allocator@D@2@@std@@V?$weak_ptr@VRawImageData@@@2@@std@@PAX@0@AAPAU10@@Z 0040ad10 f i BaseEnemyObject.obj
 0001:00009d20       ??$addressof@U?$pair@$$CBV?$basic_string@DU?$char_traits@D@std@@V?$allocator@D@2@@std@@V?$shared_ptr@VRawImageData@@@2@@std@@@std@@YAPAU?$pair@$$CBV?$basic_string@DU?$char_traits@D@std@@V?$allocator@D@2@@std@@V?$shared_ptr@VRawImageData@@@2@@0@AAU10@@Z 0040ad20 f i BaseEnemyObject.obj
 0001:00009d30       ??$addressof@U?$pair@$$CBV?$basic_string@DU?$char_traits@D@std@@V?$allocator@D@2@@std@@V?$weak_ptr@VRawImageData@@@2@@std@@@std@@YAPAU?$pair@$$CBV?$basic_string@DU?$char_traits@D@std@@V?$allocator@D@2@@std@@V?$weak_ptr@VRawImageData@@@2@@0@AAU10@@Z 0040ad30 f i BaseEnemyObject.obj
 0001:00009d40       ??$addressof@U_Container_base12@std@@@std@@YAPAU_Container_base12@0@AAU10@@Z 0040ad40 f i BaseEnemyObject.obj
 0001:00009d50       ??$addressof@U_Container_proxy@std@@@std@@YAPAU_Container_proxy@0@AAU10@@Z 0040ad50 f i BaseEnemyObject.obj
 0001:00009d60       ??$addressof@V?$_String_val@U?$_Simple_types@D@std@@@std@@@std@@YAPAV?$_String_val@U?$_Simple_types@D@std@@@0@AAV10@@Z 0040ad60 f i BaseEnemyObject.obj
 0001:00009d70       ??$addressof@V?$_Tree_val@U?$_Tree_simple_types@U?$pair@$$CBV?$basic_string@DU?$char_traits@D@std@@V?$allocator@D@2@@std@@V?$shared_ptr@VRawImageData@@@2@@std@@@std@@@std@@@std@@YAPAV?$_Tree_val@U?$_Tree_simple_types@U?$pair@$$CBV?$basic_string@DU?$char_traits@D@std@@V?$allocator@D@2@@std@@V?$shared_ptr@VRawImageData@@@2@@std@@@std@@@0@AAV10@@Z 0040ad70 f i BaseEnemyObject.obj
 0001:00009d80       ??$addressof@V?$_Tree_val@U?$_Tree_simple_types@U?$pair@$$CBV?$basic_string@DU?$char_traits@D@std@@V?$allocator@D@2@@std@@V?$weak_ptr@VRawImageData@@@2@@std@@@std@@@std@@@std@@YAPAV?$_Tree_val@U?$_Tree_simple_types@U?$pair@$$CBV?$basic_string@DU?$char_traits@D@std@@V?$allocator@D@2@@std@@V?$weak_ptr@VRawImageData@@@2@@std@@@std@@@0@AAV10@@Z 0040ad80 f i BaseEnemyObject.obj
 0001:00009d90       ??$construct@HAAH@?$_Default_allocator_traits@V?$allocator@H@std@@@std@@SAXAAV?$allocator@H@1@QAHAAH@Z 0040ad90 f i BaseEnemyObject.obj
 0001:00009de0       ??$construct@HABH@?$_Default_allocator_traits@V?$allocator@H@std@@@std@@SAXAAV?$allocator@H@1@QAHABH@Z 0040ade0 f i BaseEnemyObject.obj
 0001:00009e30       ??$construct@U?$pair@$$CBV?$basic_string@DU?$char_traits@D@std@@V?$allocator@D@2@@std@@V?$shared_ptr@VRawImageData@@@2@@std@@U?$pair@V?$basic_string@DU?$char_traits@D@std@@V?$allocator@D@2@@std@@V?$shared_ptr@VRawImageData@@@2@@2@@?$_Default_allocator_traits@V?$allocator@U?$_Tree_node@U?$pair@$$CBV?$basic_string@DU?$char_traits@D@std@@V?$allocator@D@2@@std@@V?$shared_ptr@VRawImageData@@@2@@std@@PAX@std@@@std@@@std@@SAXAAV?$allocator@U?$_Tree_node@U?$pair@$$CBV?$basic_string@DU?$char_traits@D@std@@V?$allocator@D@2@@std@@V?$shared_ptr@VRawImageData@@@2@@std@@PAX@std@@@1@QAU?$pair@$$CBV?$basic_string@DU?$char_traits@D@std@@V?$allocator@D@2@@std@@V?$shared_ptr@VRawImageData@@@2@@1@$$QAU?$pair@V?$basic_string@DU?$char_traits@D@std@@V?$allocator@D@2@@std@@V?$shared_ptr@VRawImageData@@@2@@1@@Z 0040ae30 f i BaseEnemyObject.obj
 0001:00009e80       ??$construct@U?$pair@$$CBV?$basic_string@DU?$char_traits@D@std@@V?$allocator@D@2@@std@@V?$weak_ptr@VRawImageData@@@2@@std@@U?$pair@V?$basic_string@DU?$char_traits@D@std@@V?$allocator@D@2@@std@@V?$weak_ptr@VRawImageData@@@2@@2@@?$_Default_allocator_traits@V?$allocator@U?$_Tree_node@U?$pair@$$CBV?$basic_string@DU?$char_traits@D@std@@V?$allocator@D@2@@std@@V?$weak_ptr@VRawImageData@@@2@@std@@PAX@std@@@std@@@std@@SAXAAV?$allocator@U?$_Tree_node@U?$pair@$$CBV?$basic_string@DU?$char_traits@D@std@@V?$allocator@D@2@@std@@V?$weak_ptr@VRawImageData@@@2@@std@@PAX@std@@@1@QAU?$pair@$$CBV?$basic_string@DU?$char_traits@D@std@@V?$allocator@D@2@@std@@V?$weak_ptr@VRawImageData@@@2@@1@$$QAU?$pair@V?$basic_string@DU?$char_traits@D@std@@V?$allocator@D@2@@std@@V?$weak_ptr@VRawImageData@@@2@@1@@Z 0040ae80 f i BaseEnemyObject.obj
 0001:00009ed0       ??$construct@V?$vector@HV?$allocator@H@std@@@std@@ABV12@@?$_Default_allocator_traits@V?$allocator@V?$vector@HV?$allocator@H@std@@@std@@@std@@@std@@SAXAAV?$allocator@V?$vector@HV?$allocator@H@std@@@std@@@1@QAV?$vector@HV?$allocator@H@std@@@1@ABV31@@Z 0040aed0 f i BaseEnemyObject.obj
 0001:00009f20       ??$destroy@U?$pair@$$CBV?$basic_string@DU?$char_traits@D@std@@V?$allocator@D@2@@std@@V?$shared_ptr@VRawImageData@@@2@@std@@@?$_Default_allocator_traits@V?$allocator@U?$_Tree_node@U?$pair@$$CBV?$basic_string@DU?$char_traits@D@std@@V?$allocator@D@2@@std@@V?$shared_ptr@VRawImageData@@@2@@std@@PAX@std@@@std@@@std@@SAXAAV?$allocator@U?$_Tree_node@U?$pair@$$CBV?$basic_string@DU?$char_traits@D@std@@V?$allocator@D@2@@std@@V?$shared_ptr@VRawImageData@@@2@@std@@PAX@std@@@1@QAU?$pair@$$CBV?$basic_string@DU?$char_traits@D@std@@V?$allocator@D@2@@std@@V?$shared_ptr@VRawImageData@@@2@@1@@Z 0040af20 f i BaseEnemyObject.obj
 0001:00009f40       ??$destroy@U?$pair@$$CBV?$basic_string@DU?$char_traits@D@std@@V?$allocator@D@2@@std@@V?$weak_ptr@VRawImageData@@@2@@std@@@?$_Default_allocator_traits@V?$allocator@U?$_Tree_node@U?$pair@$$CBV?$basic_string@DU?$char_traits@D@std@@V?$allocator@D@2@@std@@V?$weak_ptr@VRawImageData@@@2@@std@@PAX@std@@@std@@@std@@SAXAAV?$allocator@U?$_Tree_node@U?$pair@$$CBV?$basic_string@DU?$char_traits@D@std@@V?$allocator@D@2@@std@@V?$weak_ptr@VRawImageData@@@2@@std@@PAX@std@@@1@QAU?$pair@$$CBV?$basic_string@DU?$char_traits@D@std@@V?$allocator@D@2@@std@@V?$weak_ptr@VRawImageData@@@2@@1@@Z 0040af40 f i BaseEnemyObject.obj
 0001:00009f60       ??$destroy@V?$vector@HV?$allocator@H@std@@@std@@@?$_Default_allocator_traits@V?$allocator@V?$vector@HV?$allocator@H@std@@@std@@@std@@@std@@SAXAAV?$allocator@V?$vector@HV?$allocator@H@std@@@std@@@1@QAV?$vector@HV?$allocator@H@std@@@1@@Z 0040af60 f i BaseEnemyObject.obj
 0001:00009f80       ??$emplace@U?$pair@V?$basic_string@DU?$char_traits@D@std@@V?$allocator@D@2@@std@@V?$shared_ptr@VRawImageData@@@2@@std@@@?$_Tree@V?$_Tmap_traits@V?$basic_string@DU?$char_traits@D@std@@V?$allocator@D@2@@std@@V?$shared_ptr@VRawImageData@@@2@U?$less@V?$basic_string@DU?$char_traits@D@std@@V?$allocator@D@2@@std@@@2@V?$allocator@U?$pair@$$CBV?$basic_string@DU?$char_traits@D@std@@V?$allocator@D@2@@std@@V?$shared_ptr@VRawImageData@@@2@@std@@@2@$0A@@std@@@std@@QAE?AU?$pair@V?$_Tree_iterator@V?$_Tree_val@U?$_Tree_simple_types@U?$pair@$$CBV?$basic_string@DU?$char_traits@D@std@@V?$allocator@D@2@@std@@V?$shared_ptr@VRawImageData@@@2@@std@@@std@@@std@@@std@@_N@1@$$QAU?$pair@V?$basic_string@DU?$char_traits@D@std@@V?$allocator@D@2@@std@@V?$shared_ptr@VRawImageData@@@2@@1@@Z 0040af80 f i BaseEnemyObject.obj
 0001:0000a010       ??$emplace@U?$pair@V?$basic_string@DU?$char_traits@D@std@@V?$allocator@D@2@@std@@V?$weak_ptr@VRawImageData@@@2@@std@@@?$_Tree@V?$_Tmap_traits@V?$basic_string@DU?$char_traits@D@std@@V?$allocator@D@2@@std@@V?$weak_ptr@VRawImageData@@@2@U?$less@V?$basic_string@DU?$char_traits@D@std@@V?$allocator@D@2@@std@@@2@V?$allocator@U?$pair@$$CBV?$basic_string@DU?$char_traits@D@std@@V?$allocator@D@2@@std@@V?$weak_ptr@VRawImageData@@@2@@std@@@2@$0A@@std@@@std@@QAE?AU?$pair@V?$_Tree_iterator@V?$_Tree_val@U?$_Tree_simple_types@U?$pair@$$CBV?$basic_string@DU?$char_traits@D@std@@V?$allocator@D@2@@std@@V?$weak_ptr@VRawImageData@@@2@@std@@@std@@@std@@@std@@_N@1@$$QAU?$pair@V?$basic_string@DU?$char_traits@D@std@@V?$allocator@D@2@@std@@V?$weak_ptr@VRawImageData@@@2@@1@@Z 0040b010 f i BaseEnemyObject.obj
 0001:0000a0a0       ??$endl@DU?$char_traits@D@std@@@std@@YAAAV?$basic_ostream@DU?$char_traits@D@std@@@0@AAV10@@Z 0040b0a0 f i BaseEnemyObject.obj
 0001:0000a0e0       ??$erase@V?$_Tree_iterator@V?$_Tree_val@U?$_Tree_simple_types@U?$pair@$$CBV?$basic_string@DU?$char_traits@D@std@@V?$allocator@D@2@@std@@V?$weak_ptr@VRawImageData@@@2@@std@@@std@@@std@@@std@@$0A@@?$_Tree@V?$_Tmap_traits@V?$basic_string@DU?$char_traits@D@std@@V?$allocator@D@2@@std@@V?$weak_ptr@VRawImageData@@@2@U?$less@V?$basic_string@DU?$char_traits@D@std@@V?$allocator@D@2@@std@@@2@V?$allocator@U?$pair@$$CBV?$basic_string@DU?$char_traits@D@std@@V?$allocator@D@2@@std@@V?$weak_ptr@VRawImageData@@@2@@std@@@2@$0A@@std@@@std@@QAE?AV?$_Tree_iterator@V?$_Tree_val@U?$_Tree_simple_types@U?$pair@$$CBV?$basic_string@DU?$char_traits@D@std@@V?$allocator@D@2@@std@@V?$weak_ptr@VRawImageData@@@2@@std@@@std@@@std@@@1@V21@@Z 0040b0e0 f i BaseEnemyObject.obj
 0001:0000a230       ??$exchange@PAU?$_Tree_node@U?$pair@$$CBV?$basic_string@DU?$char_traits@D@std@@V?$allocator@D@2@@std@@V?$shared_ptr@VRawImageData@@@2@@std@@PAX@std@@$$T@std@@YAPAU?$_Tree_node@U?$pair@$$CBV?$basic_string@DU?$char_traits@D@std@@V?$allocator@D@2@@std@@V?$shared_ptr@VRawImageData@@@2@@std@@PAX@0@AAPAU10@$$QA$$T@Z 0040b230 f i BaseEnemyObject.obj
 0001:0000a260       ??$exchange@PAU?$_Tree_node@U?$pair@$$CBV?$basic_string@DU?$char_traits@D@std@@V?$allocator@D@2@@std@@V?$weak_ptr@VRawImageData@@@2@@std@@PAX@std@@$$T@std@@YAPAU?$_Tree_node@U?$pair@$$CBV?$basic_string@DU?$char_traits@D@std@@V?$allocator@D@2@@std@@V?$weak_ptr@VRawImageData@@@2@@std@@PAX@0@AAPAU10@$$QA$$T@Z 0040b260 f i BaseEnemyObject.obj
 0001:0000a290       ??$exchange@PAU?$_Tree_node@U?$pair@$$CBV?$basic_string@DU?$char_traits@D@std@@V?$allocator@D@2@@std@@V?$weak_ptr@VRawImageData@@@2@@std@@PAX@std@@AAPAU12@@std@@YAPAU?$_Tree_node@U?$pair@$$CBV?$basic_string@DU?$char_traits@D@std@@V?$allocator@D@2@@std@@V?$weak_ptr@VRawImageData@@@2@@std@@PAX@0@AAPAU10@0@Z 0040b290 f i BaseEnemyObject.obj
 0001:0000a2c0       ??$exchange@PAU_Container_proxy@std@@$$T@std@@YAPAU_Container_proxy@0@AAPAU10@$$QA$$T@Z 0040b2c0 f i BaseEnemyObject.obj
 0001:0000a2f0       ??$exchange@PAV?$vector@HV?$allocator@H@std@@@std@@$$T@std@@YAPAV?$vector@HV?$allocator@H@std@@@0@AAPAV10@$$QA$$T@Z 0040b2f0 f i BaseEnemyObject.obj
 0001:0000a320       ??$forward@AAH@std@@YAAAHAAH@Z 0040b320 f i BaseEnemyObject.obj
 0001:0000a330       ??$forward@AAPAD@std@@YAAAPADAAPAD@Z 0040b330 f i BaseEnemyObject.obj
 0001:0000a340       ??$forward@AAPAU?$_Tree_node@U?$pair@$$CBV?$basic_string@DU?$char_traits@D@std@@V?$allocator@D@2@@std@@V?$shared_ptr@VRawImageData@@@2@@std@@PAX@std@@@std@@YAAAPAU?$_Tree_node@U?$pair@$$CBV?$basic_string@DU?$char_traits@D@std@@V?$allocator@D@2@@std@@V?$shared_ptr@VRawImageData@@@2@@std@@PAX@0@AAPAU10@@Z 0040b340 f i BaseEnemyObject.obj
 0001:0000a350       ??$forward@AAPAU?$_Tree_node@U?$pair@$$CBV?$basic_string@DU?$char_traits@D@std@@V?$allocator@D@2@@std@@V?$weak_ptr@VRawImageData@@@2@@std@@PAX@std@@@std@@YAAAPAU?$_Tree_node@U?$pair@$$CBV?$basic_string@DU?$char_traits@D@std@@V?$allocator@D@2@@std@@V?$weak_ptr@VRawImageData@@@2@@std@@PAX@0@AAPAU10@@Z 0040b350 f i BaseEnemyObject.obj
 0001:0000a360       ??$forward@AAV?$basic_string@DU?$char_traits@D@std@@V?$allocator@D@2@@std@@@std@@YAAAV?$basic_string@DU?$char_traits@D@std@@V?$allocator@D@2@@0@AAV10@@Z 0040b360 f i BaseEnemyObject.obj
 0001:0000a370       ??$forward@AAV?$shared_ptr@VRawImageData@@@std@@@std@@YAAAV?$shared_ptr@VRawImageData@@@0@AAV10@@Z 0040b370 f i BaseEnemyObject.obj
 0001:0000a380       ??$forward@AAV?$weak_ptr@VRawImageData@@@std@@@std@@YAAAV?$weak_ptr@VRawImageData@@@0@AAV10@@Z 0040b380 f i BaseEnemyObject.obj
 0001:0000a390       ??$forward@ABH@std@@YAABHABH@Z 0040b390 f i BaseEnemyObject.obj
 0001:0000a3a0       ??$forward@ABQAD@std@@YAABQADABQAD@Z 0040b3a0 f i BaseEnemyObject.obj
 0001:0000a3b0       ??$forward@ABQAU?$_Tree_node@U?$pair@$$CBV?$basic_string@DU?$char_traits@D@std@@V?$allocator@D@2@@std@@V?$shared_ptr@VRawImageData@@@2@@std@@PAX@std@@@std@@YAABQAU?$_Tree_node@U?$pair@$$CBV?$basic_string@DU?$char_traits@D@std@@V?$allocator@D@2@@std@@V?$shared_ptr@VRawImageData@@@2@@std@@PAX@0@ABQAU10@@Z 0040b3b0 f i BaseEnemyObject.obj
 0001:0000a3c0       ??$forward@ABQAU?$_Tree_node@U?$pair@$$CBV?$basic_string@DU?$char_traits@D@std@@V?$allocator@D@2@@std@@V?$weak_ptr@VRawImageData@@@2@@std@@PAX@std@@@std@@YAABQAU?$_Tree_node@U?$pair@$$CBV?$basic_string@DU?$char_traits@D@std@@V?$allocator@D@2@@std@@V?$weak_ptr@VRawImageData@@@2@@std@@PAX@0@ABQAU10@@Z 0040b3c0 f i BaseEnemyObject.obj
 0001:0000a3d0       ??$forward@ABU?$less@V?$basic_string@DU?$char_traits@D@std@@V?$allocator@D@2@@std@@@std@@@std@@YAABU?$less@V?$basic_string@DU?$char_traits@D@std@@V?$allocator@D@2@@std@@@0@ABU10@@Z 0040b3d0 f i BaseEnemyObject.obj
 0001:0000a3e0       ??$forward@ABV?$allocator@H@std@@@std@@YAABV?$allocator@H@0@ABV10@@Z 0040b3e0 f i BaseEnemyObject.obj
 0001:0000a3f0       ??$forward@ABV?$allocator@V?$vector@HV?$allocator@H@std@@@std@@@std@@@std@@YAABV?$allocator@V?$vector@HV?$allocator@H@std@@@std@@@0@ABV10@@Z 0040b3f0 f i BaseEnemyObject.obj
 0001:0000a400       ??$forward@ABV?$vector@HV?$allocator@H@std@@@std@@@std@@YAABV?$vector@HV?$allocator@H@std@@@0@ABV10@@Z 0040b400 f i BaseEnemyObject.obj
 0001:0000a410       ??$forward@AB_N@std@@YAAB_NAB_N@Z 0040b410 f i BaseEnemyObject.obj
 0001:0000a420       ??$forward@PAU?$_Tree_node@U?$pair@$$CBV?$basic_string@DU?$char_traits@D@std@@V?$allocator@D@2@@std@@V?$shared_ptr@VRawImageData@@@2@@std@@PAX@std@@@std@@YA$$QAPAU?$_Tree_node@U?$pair@$$CBV?$basic_string@DU?$char_traits@D@std@@V?$allocator@D@2@@std@@V?$shared_ptr@VRawImageData@@@2@@std@@PAX@0@AAPAU10@@Z 0040b420 f i BaseEnemyObject.obj
 0001:0000a430       ??$forward@PAU?$_Tree_node@U?$pair@$$CBV?$basic_string@DU?$char_traits@D@std@@V?$allocator@D@2@@std@@V?$weak_ptr@VRawImageData@@@2@@std@@PAX@std@@@std@@YA$$QAPAU?$_Tree_node@U?$pair@$$CBV?$basic_string@DU?$char_traits@D@std@@V?$allocator@D@2@@std@@V?$weak_ptr@VRawImageData@@@2@@std@@PAX@0@AAPAU10@@Z 0040b430 f i BaseEnemyObject.obj
 0001:0000a440       ??$forward@PAU_Container_base12@std@@@std@@YA$$QAPAU_Container_base12@0@AAPAU10@@Z 0040b440 f i BaseEnemyObject.obj
 0001:0000a450       ??$forward@PAV?$vector@HV?$allocator@H@std@@@std@@@std@@YA$$QAPAV?$vector@HV?$allocator@H@std@@@0@AAPAV10@@Z 0040b450 f i BaseEnemyObject.obj
 0001:0000a460       ??$forward@U?$pair@V?$basic_string@DU?$char_traits@D@std@@V?$allocator@D@2@@std@@V?$shared_ptr@VRawImageData@@@2@@std@@@std@@YA$$QAU?$pair@V?$basic_string@DU?$char_traits@D@std@@V?$allocator@D@2@@std@@V?$shared_ptr@VRawImageData@@@2@@0@AAU10@@Z 0040b460 f i BaseEnemyObject.obj
 0001:0000a470       ??$forward@U?$pair@V?$basic_string@DU?$char_traits@D@std@@V?$allocator@D@2@@std@@V?$weak_ptr@VRawImageData@@@2@@std@@@std@@YA$$QAU?$pair@V?$basic_string@DU?$char_traits@D@std@@V?$allocator@D@2@@std@@V?$weak_ptr@VRawImageData@@@2@@0@AAU10@@Z 0040b470 f i BaseEnemyObject.obj
 0001:0000a480       ??$forward@U_Zero_then_variadic_args_t@std@@@std@@YA$$QAU_Zero_then_variadic_args_t@0@AAU10@@Z 0040b480 f i BaseEnemyObject.obj
 0001:0000a490       ??$forward@V?$_Tree_iterator@V?$_Tree_val@U?$_Tree_simple_types@U?$pair@$$CBV?$basic_string@DU?$char_traits@D@std@@V?$allocator@D@2@@std@@V?$shared_ptr@VRawImageData@@@2@@std@@@std@@@std@@@std@@@std@@YA$$QAV?$_Tree_iterator@V?$_Tree_val@U?$_Tree_simple_types@U?$pair@$$CBV?$basic_string@DU?$char_traits@D@std@@V?$allocator@D@2@@std@@V?$shared_ptr@VRawImageData@@@2@@std@@@std@@@std@@@0@AAV10@@Z 0040b490 f i BaseEnemyObject.obj
 0001:0000a4a0       ??$forward@V?$_Tree_iterator@V?$_Tree_val@U?$_Tree_simple_types@U?$pair@$$CBV?$basic_string@DU?$char_traits@D@std@@V?$allocator@D@2@@std@@V?$weak_ptr@VRawImageData@@@2@@std@@@std@@@std@@@std@@@std@@YA$$QAV?$_Tree_iterator@V?$_Tree_val@U?$_Tree_simple_types@U?$pair@$$CBV?$basic_string@DU?$char_traits@D@std@@V?$allocator@D@2@@std@@V?$weak_ptr@VRawImageData@@@2@@std@@@std@@@std@@@0@AAV10@@Z 0040b4a0 f i BaseEnemyObject.obj
 0001:0000a4b0       ??$forward@V?$allocator@D@std@@@std@@YA$$QAV?$allocator@D@0@AAV10@@Z 0040b4b0 f i BaseEnemyObject.obj
 0001:0000a4c0       ??$forward@V?$allocator@H@std@@@std@@YA$$QAV?$allocator@H@0@AAV10@@Z 0040b4c0 f i BaseEnemyObject.obj
 0001:0000a4d0       ??$forward@V?$allocator@V?$vector@HV?$allocator@H@std@@@std@@@std@@@std@@YA$$QAV?$allocator@V?$vector@HV?$allocator@H@std@@@std@@@0@AAV10@@Z 0040b4d0 f i BaseEnemyObject.obj
 0001:0000a4e0       ??$forward@V?$basic_string@DU?$char_traits@D@std@@V?$allocator@D@2@@std@@@std@@YA$$QAV?$basic_string@DU?$char_traits@D@std@@V?$allocator@D@2@@0@AAV10@@Z 0040b4e0 f i BaseEnemyObject.obj
 0001:0000a4f0       ??$forward@V?$shared_ptr@VRawImageData@@@std@@@std@@YA$$QAV?$shared_ptr@VRawImageData@@@0@AAV10@@Z 0040b4f0 f i BaseEnemyObject.obj
 0001:0000a500       ??$forward@V?$weak_ptr@VRawImageData@@@std@@@std@@YA$$QAV?$weak_ptr@VRawImageData@@@0@AAV10@@Z 0040b500 f i BaseEnemyObject.obj
 0001:0000a510       ??$forward@_N@std@@YA$$QA_NAA_N@Z 0040b510 f i BaseEnemyObject.obj
 0001:0000a520       ??$insert@U?$pair@V?$basic_string@DU?$char_traits@D@std@@V?$allocator@D@2@@std@@V?$shared_ptr@VRawImageData@@@2@@std@@$0A@@?$map@V?$basic_string@DU?$char_traits@D@std@@V?$allocator@D@2@@std@@V?$shared_ptr@VRawImageData@@@2@U?$less@V?$basic_string@DU?$char_traits@D@std@@V?$allocator@D@2@@std@@@2@V?$allocator@U?$pair@$$CBV?$basic_string@DU?$char_traits@D@std@@V?$allocator@D@2@@std@@V?$shared_ptr@VRawImageData@@@2@@std@@@2@@std@@QAE?AU?$pair@V?$_Tree_iterator@V?$_Tree_val@U?$_Tree_simple_types@U?$pair@$$CBV?$basic_string@DU?$char_traits@D@std@@V?$allocator@D@2@@std@@V?$shared_ptr@VRawImageData@@@2@@std@@@std@@@std@@@std@@_N@1@$$QAU?$pair@V?$basic_string@DU?$char_traits@D@std@@V?$allocator@D@2@@std@@V?$shared_ptr@VRawImageData@@@2@@1@@Z 0040b520 f i BaseEnemyObject.obj
 0001:0000a570       ??$insert@U?$pair@V?$basic_string@DU?$char_traits@D@std@@V?$allocator@D@2@@std@@V?$weak_ptr@VRawImageData@@@2@@std@@$0A@@?$map@V?$basic_string@DU?$char_traits@D@std@@V?$allocator@D@2@@std@@V?$weak_ptr@VRawImageData@@@2@U?$less@V?$basic_string@DU?$char_traits@D@std@@V?$allocator@D@2@@std@@@2@V?$allocator@U?$pair@$$CBV?$basic_string@DU?$char_traits@D@std@@V?$allocator@D@2@@std@@V?$weak_ptr@VRawImageData@@@2@@std@@@2@@std@@QAE?AU?$pair@V?$_Tree_iterator@V?$_Tree_val@U?$_Tree_simple_types@U?$pair@$$CBV?$basic_string@DU?$char_traits@D@std@@V?$allocator@D@2@@std@@V?$weak_ptr@VRawImageData@@@2@@std@@@std@@@std@@@std@@_N@1@$$QAU?$pair@V?$basic_string@DU?$char_traits@D@std@@V?$allocator@D@2@@std@@V?$weak_ptr@VRawImageData@@@2@@1@@Z 0040b570 f i BaseEnemyObject.obj
 0001:0000a5c0       ??$max@I@std@@YAABIABI0@Z  0040b5c0 f i BaseEnemyObject.obj
 0001:0000a600       ??$min@I@std@@YAABIABI0@Z  0040b600 f i BaseEnemyObject.obj
 0001:0000a640       ??$move@AAD@std@@YA$$QADAAD@Z 0040b640 f i BaseEnemyObject.obj
 0001:0000a650       ??$move@AAV?$allocator@D@std@@@std@@YA$$QAV?$allocator@D@0@AAV10@@Z 0040b650 f i BaseEnemyObject.obj
 0001:0000a660       ??$move@AAV?$allocator@V?$vector@HV?$allocator@H@std@@@std@@@std@@@std@@YA$$QAV?$allocator@V?$vector@HV?$allocator@H@std@@@std@@@0@AAV10@@Z 0040b660 f i BaseEnemyObject.obj
 0001:0000a670       ??$move@AAV?$shared_ptr@VRawImageData@@@std@@@std@@YA$$QAV?$shared_ptr@VRawImageData@@@0@AAV10@@Z 0040b670 f i BaseEnemyObject.obj
 0001:0000a680       ??$move@AAV?$weak_ptr@VRawImageData@@@std@@@std@@YA$$QAV?$weak_ptr@VRawImageData@@@0@AAV10@@Z 0040b680 f i BaseEnemyObject.obj
 0001:0000a690       ??$swap@D$0A@@std@@YAXAAD0@Z 0040b690 f i BaseEnemyObject.obj
 0001:0000a6e0       ??0?$_Alloc_construct_ptr@V?$allocator@U?$_Tree_node@U?$pair@$$CBV?$basic_string@DU?$char_traits@D@std@@V?$allocator@D@2@@std@@V?$shared_ptr@VRawImageData@@@2@@std@@PAX@std@@@std@@@std@@QAE@AAV?$allocator@U?$_Tree_node@U?$pair@$$CBV?$basic_string@DU?$char_traits@D@std@@V?$allocator@D@2@@std@@V?$shared_ptr@VRawImageData@@@2@@std@@PAX@std@@@1@@Z 0040b6e0 f i BaseEnemyObject.obj
 0001:0000a710       ??0?$_Alloc_construct_ptr@V?$allocator@U?$_Tree_node@U?$pair@$$CBV?$basic_string@DU?$char_traits@D@std@@V?$allocator@D@2@@std@@V?$weak_ptr@VRawImageData@@@2@@std@@PAX@std@@@std@@@std@@QAE@AAV?$allocator@U?$_Tree_node@U?$pair@$$CBV?$basic_string@DU?$char_traits@D@std@@V?$allocator@D@2@@std@@V?$weak_ptr@VRawImageData@@@2@@std@@PAX@std@@@1@@Z 0040b710 f i BaseEnemyObject.obj
 0001:0000a740       ??0?$_Container_proxy_ptr12@V?$allocator@U_Container_proxy@std@@@std@@@std@@QAE@AAV?$allocator@U_Container_proxy@std@@@1@AAU_Container_base12@1@@Z 0040b740 f i BaseEnemyObject.obj
 0001:0000a7c0       ??0?$_Ptr_base@VRawImageData@@@std@@IAE@XZ 0040b7c0 f i BaseEnemyObject.obj
 0001:0000a7f0       ??0?$_Ref_count@VRawImageData@@@std@@QAE@PAVRawImageData@@@Z 0040b7f0 f i BaseEnemyObject.obj
 0001:0000a840       ??0?$_String_val@U?$_Simple_types@D@std@@@std@@QAE@XZ 0040b840 f i BaseEnemyObject.obj
 0001:0000a890       ??0?$_Temporary_owner@VRawImageData@@@std@@QAE@QAVRawImageData@@@Z 0040b890 f i BaseEnemyObject.obj
 0001:0000a8b0       ??0?$_Tree@V?$_Tmap_traits@V?$basic_string@DU?$char_traits@D@std@@V?$allocator@D@2@@std@@V?$shared_ptr@VRawImageData@@@2@U?$less@V?$basic_string@DU?$char_traits@D@std@@V?$allocator@D@2@@std@@@2@V?$allocator@U?$pair@$$CBV?$basic_string@DU?$char_traits@D@std@@V?$allocator@D@2@@std@@V?$shared_ptr@VRawImageData@@@2@@std@@@2@$0A@@std@@@std@@QAE@ABU?$less@V?$basic_string@DU?$char_traits@D@std@@V?$allocator@D@2@@std@@@1@@Z 0040b8b0 f i BaseEnemyObject.obj
 0001:0000a8f0       ??0?$_Tree@V?$_Tmap_traits@V?$basic_string@DU?$char_traits@D@std@@V?$allocator@D@2@@std@@V?$weak_ptr@VRawImageData@@@2@U?$less@V?$basic_string@DU?$char_traits@D@std@@V?$allocator@D@2@@std@@@2@V?$allocator@U?$pair@$$CBV?$basic_string@DU?$char_traits@D@std@@V?$allocator@D@2@@std@@V?$weak_ptr@VRawImageData@@@2@@std@@@2@$0A@@std@@@std@@QAE@ABU?$less@V?$basic_string@DU?$char_traits@D@std@@V?$allocator@D@2@@std@@@1@@Z 0040b8f0 f i BaseEnemyObject.obj
 0001:0000a930       ??0?$_Tree_const_iterator@V?$_Tree_val@U?$_Tree_simple_types@U?$pair@$$CBV?$basic_string@DU?$char_traits@D@std@@V?$allocator@D@2@@std@@V?$shared_ptr@VRawImageData@@@2@@std@@@std@@@std@@@std@@QAE@$$QAV01@@Z 0040b930 f i BaseEnemyObject.obj
 0001:0000a960       ??0?$_Tree_const_iterator@V?$_Tree_val@U?$_Tree_simple_types@U?$pair@$$CBV?$basic_string@DU?$char_traits@D@std@@V?$allocator@D@2@@std@@V?$shared_ptr@VRawImageData@@@2@@std@@@std@@@std@@@std@@QAE@PAU?$_Tree_node@U?$pair@$$CBV?$basic_string@DU?$char_traits@D@std@@V?$allocator@D@2@@std@@V?$shared_ptr@VRawImageData@@@2@@std@@PAX@1@PBV?$_Tree_val@U?$_Tree_simple_types@U?$pair@$$CBV?$basic_string@DU?$char_traits@D@std@@V?$allocator@D@2@@std@@V?$shared_ptr@VRawImageData@@@2@@std@@@std@@@1@@Z 0040b960 f i BaseEnemyObject.obj
 0001:0000a990       ??0?$_Tree_const_iterator@V?$_Tree_val@U?$_Tree_simple_types@U?$pair@$$CBV?$basic_string@DU?$char_traits@D@std@@V?$allocator@D@2@@std@@V?$weak_ptr@VRawImageData@@@2@@std@@@std@@@std@@@std@@QAE@$$QAV01@@Z 0040b990 f i BaseEnemyObject.obj
 0001:0000a9c0       ??0?$_Tree_const_iterator@V?$_Tree_val@U?$_Tree_simple_types@U?$pair@$$CBV?$basic_string@DU?$char_traits@D@std@@V?$allocator@D@2@@std@@V?$weak_ptr@VRawImageData@@@2@@std@@@std@@@std@@@std@@QAE@ABV01@@Z 0040b9c0 f i BaseEnemyObject.obj
 0001:0000a9f0       ??0?$_Tree_const_iterator@V?$_Tree_val@U?$_Tree_simple_types@U?$pair@$$CBV?$basic_string@DU?$char_traits@D@std@@V?$allocator@D@2@@std@@V?$weak_ptr@VRawImageData@@@2@@std@@@std@@@std@@@std@@QAE@PAU?$_Tree_node@U?$pair@$$CBV?$basic_string@DU?$char_traits@D@std@@V?$allocator@D@2@@std@@V?$weak_ptr@VRawImageData@@@2@@std@@PAX@1@PBV?$_Tree_val@U?$_Tree_simple_types@U?$pair@$$CBV?$basic_string@DU?$char_traits@D@std@@V?$allocator@D@2@@std@@V?$weak_ptr@VRawImageData@@@2@@std@@@std@@@1@@Z 0040b9f0 f i BaseEnemyObject.obj
 0001:0000aa20       ??0?$_Tree_iterator@V?$_Tree_val@U?$_Tree_simple_types@U?$pair@$$CBV?$basic_string@DU?$char_traits@D@std@@V?$allocator@D@2@@std@@V?$shared_ptr@VRawImageData@@@2@@std@@@std@@@std@@@std@@QAE@$$QAV01@@Z 0040ba20 f i BaseEnemyObject.obj
 0001:0000aa50       ??0?$_Tree_iterator@V?$_Tree_val@U?$_Tree_simple_types@U?$pair@$$CBV?$basic_string@DU?$char_traits@D@std@@V?$allocator@D@2@@std@@V?$shared_ptr@VRawImageData@@@2@@std@@@std@@@std@@@std@@QAE@PAU?$_Tree_node@U?$pair@$$CBV?$basic_string@DU?$char_traits@D@std@@V?$allocator@D@2@@std@@V?$shared_ptr@VRawImageData@@@2@@std@@PAX@1@PBV?$_Tree_val@U?$_Tree_simple_types@U?$pair@$$CBV?$basic_string@DU?$char_traits@D@std@@V?$allocator@D@2@@std@@V?$shared_ptr@VRawImageData@@@2@@std@@@std@@@1@@Z 0040ba50 f i BaseEnemyObject.obj
 0001:0000aa80       ??0?$_Tree_iterator@V?$_Tree_val@U?$_Tree_simple_types@U?$pair@$$CBV?$basic_string@DU?$char_traits@D@std@@V?$allocator@D@2@@std@@V?$weak_ptr@VRawImageData@@@2@@std@@@std@@@std@@@std@@QAE@$$QAV01@@Z 0040ba80 f i BaseEnemyObject.obj
 0001:0000aab0       ??0?$_Tree_iterator@V?$_Tree_val@U?$_Tree_simple_types@U?$pair@$$CBV?$basic_string@DU?$char_traits@D@std@@V?$allocator@D@2@@std@@V?$weak_ptr@VRawImageData@@@2@@std@@@std@@@std@@@std@@QAE@ABV01@@Z 0040bab0 f i BaseEnemyObject.obj
 0001:0000aae0       ??0?$_Tree_iterator@V?$_Tree_val@U?$_Tree_simple_types@U?$pair@$$CBV?$basic_string@DU?$char_traits@D@std@@V?$allocator@D@2@@std@@V?$weak_ptr@VRawImageData@@@2@@std@@@std@@@std@@@std@@QAE@PAU?$_Tree_node@U?$pair@$$CBV?$basic_string@DU?$char_traits@D@std@@V?$allocator@D@2@@std@@V?$weak_ptr@VRawImageData@@@2@@std@@PAX@1@PBV?$_Tree_val@U?$_Tree_simple_types@U?$pair@$$CBV?$basic_string@DU?$char_traits@D@std@@V?$allocator@D@2@@std@@V?$weak_ptr@VRawImageData@@@2@@std@@@std@@@1@@Z 0040bae0 f i BaseEnemyObject.obj
 0001:0000ab10       ??0?$_Tree_temp_node_alloc@V?$allocator@U?$_Tree_node@U?$pair@$$CBV?$basic_string@DU?$char_traits@D@std@@V?$allocator@D@2@@std@@V?$shared_ptr@VRawImageData@@@2@@std@@PAX@std@@@std@@@std@@QAE@AAV?$allocator@U?$_Tree_node@U?$pair@$$CBV?$basic_string@DU?$char_traits@D@std@@V?$allocator@D@2@@std@@V?$shared_ptr@VRawImageData@@@2@@std@@PAX@std@@@1@@Z 0040bb10 f i BaseEnemyObject.obj
 0001:0000ab90       ??0?$_Tree_temp_node_alloc@V?$allocator@U?$_Tree_node@U?$pair@$$CBV?$basic_string@DU?$char_traits@D@std@@V?$allocator@D@2@@std@@V?$weak_ptr@VRawImageData@@@2@@std@@PAX@std@@@std@@@std@@QAE@AAV?$allocator@U?$_Tree_node@U?$pair@$$CBV?$basic_string@DU?$char_traits@D@std@@V?$allocator@D@2@@std@@V?$weak_ptr@VRawImageData@@@2@@std@@PAX@std@@@1@@Z 0040bb90 f i BaseEnemyObject.obj
 0001:0000ac10       ??0?$_Tree_unchecked_const_iterator@V?$_Tree_val@U?$_Tree_simple_types@U?$pair@$$CBV?$basic_string@DU?$char_traits@D@std@@V?$allocator@D@2@@std@@V?$shared_ptr@VRawImageData@@@2@@std@@@std@@@std@@U_Iterator_base12@2@@std@@QAE@$$QAV01@@Z 0040bc10 f i BaseEnemyObject.obj
 0001:0000ac50       ??0?$_Tree_unchecked_const_iterator@V?$_Tree_val@U?$_Tree_simple_types@U?$pair@$$CBV?$basic_string@DU?$char_traits@D@std@@V?$allocator@D@2@@std@@V?$shared_ptr@VRawImageData@@@2@@std@@@std@@@std@@U_Iterator_base12@2@@std@@QAE@PAU?$_Tree_node@U?$pair@$$CBV?$basic_string@DU?$char_traits@D@std@@V?$allocator@D@2@@std@@V?$shared_ptr@VRawImageData@@@2@@std@@PAX@1@PBV?$_Tree_val@U?$_Tree_simple_types@U?$pair@$$CBV?$basic_string@DU?$char_traits@D@std@@V?$allocator@D@2@@std@@V?$shared_ptr@VRawImageData@@@2@@std@@@std@@@1@@Z 0040bc50 f i BaseEnemyObject.obj
 0001:0000ac90       ??0?$_Tree_unchecked_const_iterator@V?$_Tree_val@U?$_Tree_simple_types@U?$pair@$$CBV?$basic_string@DU?$char_traits@D@std@@V?$allocator@D@2@@std@@V?$weak_ptr@VRawImageData@@@2@@std@@@std@@@std@@U_Iterator_base0@2@@std@@QAE@PAU?$_Tree_node@U?$pair@$$CBV?$basic_string@DU?$char_traits@D@std@@V?$allocator@D@2@@std@@V?$weak_ptr@VRawImageData@@@2@@std@@PAX@1@PBV?$_Tree_val@U?$_Tree_simple_types@U?$pair@$$CBV?$basic_string@DU?$char_traits@D@std@@V?$allocator@D@2@@std@@V?$weak_ptr@VRawImageData@@@2@@std@@@std@@@1@@Z 0040bc90 f i BaseEnemyObject.obj
 0001:0000acc0       ??0?$_Tree_unchecked_const_iterator@V?$_Tree_val@U?$_Tree_simple_types@U?$pair@$$CBV?$basic_string@DU?$char_traits@D@std@@V?$allocator@D@2@@std@@V?$weak_ptr@VRawImageData@@@2@@std@@@std@@@std@@U_Iterator_base12@2@@std@@QAE@$$QAV01@@Z 0040bcc0 f i BaseEnemyObject.obj
 0001:0000ad00       ??0?$_Tree_unchecked_const_iterator@V?$_Tree_val@U?$_Tree_simple_types@U?$pair@$$CBV?$basic_string@DU?$char_traits@D@std@@V?$allocator@D@2@@std@@V?$weak_ptr@VRawImageData@@@2@@std@@@std@@@std@@U_Iterator_base12@2@@std@@QAE@ABV01@@Z 0040bd00 f i BaseEnemyObject.obj
 0001:0000ad40       ??0?$_Tree_unchecked_const_iterator@V?$_Tree_val@U?$_Tree_simple_types@U?$pair@$$CBV?$basic_string@DU?$char_traits@D@std@@V?$allocator@D@2@@std@@V?$weak_ptr@VRawImageData@@@2@@std@@@std@@@std@@U_Iterator_base12@2@@std@@QAE@PAU?$_Tree_node@U?$pair@$$CBV?$basic_string@DU?$char_traits@D@std@@V?$allocator@D@2@@std@@V?$weak_ptr@VRawImageData@@@2@@std@@PAX@1@PBV?$_Tree_val@U?$_Tree_simple_types@U?$pair@$$CBV?$basic_string@DU?$char_traits@D@std@@V?$allocator@D@2@@std@@V?$weak_ptr@VRawImageData@@@2@@std@@@std@@@1@@Z 0040bd40 f i BaseEnemyObject.obj
 0001:0000ad80       ??0?$_Tree_unchecked_iterator@V?$_Tree_val@U?$_Tree_simple_types@U?$pair@$$CBV?$basic_string@DU?$char_traits@D@std@@V?$allocator@D@2@@std@@V?$weak_ptr@VRawImageData@@@2@@std@@@std@@@std@@@std@@QAE@PAU?$_Tree_node@U?$pair@$$CBV?$basic_string@DU?$char_traits@D@std@@V?$allocator@D@2@@std@@V?$weak_ptr@VRawImageData@@@2@@std@@PAX@1@PBV?$_Tree_val@U?$_Tree_simple_types@U?$pair@$$CBV?$basic_string@DU?$char_traits@D@std@@V?$allocator@D@2@@std@@V?$weak_ptr@VRawImageData@@@2@@std@@@std@@@1@@Z 0040bd80 f i BaseEnemyObject.obj
 0001:0000adb0       ??0?$_Tree_val@U?$_Tree_simple_types@U?$pair@$$CBV?$basic_string@DU?$char_traits@D@std@@V?$allocator@D@2@@std@@V?$shared_ptr@VRawImageData@@@2@@std@@@std@@@std@@QAE@XZ 0040bdb0 f i BaseEnemyObject.obj
 0001:0000adf0       ??0?$_Tree_val@U?$_Tree_simple_types@U?$pair@$$CBV?$basic_string@DU?$char_traits@D@std@@V?$allocator@D@2@@std@@V?$weak_ptr@VRawImageData@@@2@@std@@@std@@@std@@QAE@XZ 0040bdf0 f i BaseEnemyObject.obj
 0001:0000ae30       ??0?$_Uninitialized_backout_al@V?$allocator@H@std@@@std@@QAE@PAHAAV?$allocator@H@1@@Z 0040be30 f i BaseEnemyObject.obj
 0001:0000ae70       ??0?$_Uninitialized_backout_al@V?$allocator@V?$vector@HV?$allocator@H@std@@@std@@@std@@@std@@QAE@PAV?$vector@HV?$allocator@H@std@@@1@AAV?$allocator@V?$vector@HV?$allocator@H@std@@@std@@@1@@Z 0040be70 f i BaseEnemyObject.obj
 0001:0000aeb0       ??0?$_Vector_val@U?$_Simple_types@H@std@@@std@@QAE@XZ 0040beb0 f i BaseEnemyObject.obj
 0001:0000af00       ??0?$_Vector_val@U?$_Simple_types@V?$vector@HV?$allocator@H@std@@@std@@@std@@@std@@QAE@PAV?$vector@HV?$allocator@H@std@@@1@00@Z 0040bf00 f i BaseEnemyObject.obj
 0001:0000af40       ??0?$_Vector_val@U?$_Simple_types@V?$vector@HV?$allocator@H@std@@@std@@@std@@@std@@QAE@XZ 0040bf40 f i BaseEnemyObject.obj
 0001:0000af90       ??0?$allocator@D@std@@QAE@XZ 0040bf90 f i BaseEnemyObject.obj
 0001:0000afb0       ??0?$allocator@H@std@@QAE@XZ 0040bfb0 f i BaseEnemyObject.obj
 0001:0000afd0       ??0?$allocator@U?$_Tree_node@U?$pair@$$CBV?$basic_string@DU?$char_traits@D@std@@V?$allocator@D@2@@std@@V?$shared_ptr@VRawImageData@@@2@@std@@PAX@std@@@std@@QAE@XZ 0040bfd0 f i BaseEnemyObject.obj
 0001:0000aff0       ??0?$allocator@U?$_Tree_node@U?$pair@$$CBV?$basic_string@DU?$char_traits@D@std@@V?$allocator@D@2@@std@@V?$weak_ptr@VRawImageData@@@2@@std@@PAX@std@@@std@@QAE@XZ 0040bff0 f i BaseEnemyObject.obj
 0001:0000b010       ??0?$allocator@V?$vector@HV?$allocator@H@std@@@std@@@std@@QAE@XZ 0040c010 f i BaseEnemyObject.obj
 0001:0000b030       ??0?$basic_string@DU?$char_traits@D@std@@V?$allocator@D@2@@std@@QAE@$$QAV01@@Z 0040c030 f i BaseEnemyObject.obj
 0001:0000b0e0       ??0?$basic_string@DU?$char_traits@D@std@@V?$allocator@D@2@@std@@QAE@ABV01@@Z 0040c0e0 f i BaseEnemyObject.obj
 0001:0000b1d0       ??0?$basic_string@DU?$char_traits@D@std@@V?$allocator@D@2@@std@@QAE@QBD@Z 0040c1d0 f i BaseEnemyObject.obj
 0001:0000b2b0       ??0?$map@V?$basic_string@DU?$char_traits@D@std@@V?$allocator@D@2@@std@@V?$shared_ptr@VRawImageData@@@2@U?$less@V?$basic_string@DU?$char_traits@D@std@@V?$allocator@D@2@@std@@@2@V?$allocator@U?$pair@$$CBV?$basic_string@DU?$char_traits@D@std@@V?$allocator@D@2@@std@@V?$shared_ptr@VRawImageData@@@2@@std@@@2@@std@@QAE@XZ 0040c2b0 f i BaseEnemyObject.obj
 0001:0000b2e0       ??0?$map@V?$basic_string@DU?$char_traits@D@std@@V?$allocator@D@2@@std@@V?$weak_ptr@VRawImageData@@@2@U?$less@V?$basic_string@DU?$char_traits@D@std@@V?$allocator@D@2@@std@@@2@V?$allocator@U?$pair@$$CBV?$basic_string@DU?$char_traits@D@std@@V?$allocator@D@2@@std@@V?$weak_ptr@VRawImageData@@@2@@std@@@2@@std@@QAE@XZ 0040c2e0 f i BaseEnemyObject.obj
 0001:0000b310       ??0?$shared_ptr@VRawImageData@@@std@@QAE@$$QAV01@@Z 0040c310 f i BaseEnemyObject.obj
 0001:0000b350       ??0?$shared_ptr@VRawImageData@@@std@@QAE@$$T@Z 0040c350 f i BaseEnemyObject.obj
 0001:0000b370       ??0?$shared_ptr@VRawImageData@@@std@@QAE@ABV01@@Z 0040c370 f i BaseEnemyObject.obj
 0001:0000b3a0       ??0?$shared_ptr@VRawImageData@@@std@@QAE@XZ 0040c3a0 f i BaseEnemyObject.obj
 0001:0000b3c0       ??0?$vector@HV?$allocator@H@std@@@std@@QAE@ABV01@@Z 0040c3c0 f i BaseEnemyObject.obj
 0001:0000b520       ??0?$vector@HV?$allocator@H@std@@@std@@QAE@IABHABV?$allocator@H@1@@Z 0040c520 f i BaseEnemyObject.obj
 0001:0000b560       ??0?$vector@V?$vector@HV?$allocator@H@std@@@std@@V?$allocator@V?$vector@HV?$allocator@H@std@@@std@@@2@@std@@QAE@$$QAV01@@Z 0040c560 f i BaseEnemyObject.obj
 0001:0000b690       ??0?$vector@V?$vector@HV?$allocator@H@std@@@std@@V?$allocator@V?$vector@HV?$allocator@H@std@@@std@@@2@@std@@QAE@IABV?$vector@HV?$allocator@H@std@@@1@ABV?$allocator@V?$vector@HV?$allocator@H@std@@@std@@@1@@Z 0040c690 f i BaseEnemyObject.obj
 0001:0000b6d0       ??0?$weak_ptr@VRawImageData@@@std@@QAE@$$QAV01@@Z 0040c6d0 f i BaseEnemyObject.obj
 0001:0000b710       ??0?$weak_ptr@VRawImageData@@@std@@QAE@ABV01@@Z 0040c710 f i BaseEnemyObject.obj
 0001:0000b740       ??0ImageManager@@QAE@XZ    0040c740 f i BaseEnemyObject.obj
 0001:0000b7b0       ??0RawImageData@@QAE@V?$basic_string@DU?$char_traits@D@std@@V?$allocator@D@2@@std@@@Z 0040c7b0 f i BaseEnemyObject.obj
 0001:0000b860       ??0SimpleImage@@QAE@ABV0@@Z 0040c860 f i BaseEnemyObject.obj
 0001:0000b8b0       ??0_Basic_container_proxy_ptr12@std@@IAE@XZ 0040c8b0 f i BaseEnemyObject.obj
 0001:0000b8d0       ??0_Bxty@?$_String_val@U?$_Simple_types@D@std@@@std@@QAE@XZ 0040c8d0 f i BaseEnemyObject.obj
 0001:0000b8f0       ??0_Container_base12@std@@QAE@XZ 0040c8f0 f i BaseEnemyObject.obj
 0001:0000b910       ??0_Container_proxy@std@@QAE@PAU_Container_base12@1@@Z 0040c910 f i BaseEnemyObject.obj
 0001:0000b940       ??0_Iterator_base12@std@@QAE@ABU01@@Z 0040c940 f i BaseEnemyObject.obj
 0001:0000b980       ??0_Iterator_base12@std@@QAE@XZ 0040c980 f i BaseEnemyObject.obj
 0001:0000b9b0       ??0_Ref_count_base@std@@IAE@XZ 0040c9b0 f i BaseEnemyObject.obj
 0001:0000b9e0       ??0_Sentry_base@?$basic_ostream@DU?$char_traits@D@std@@@std@@QAE@AAV12@@Z 0040c9e0 f i BaseEnemyObject.obj
 0001:0000ba40       ??0bad_alloc@std@@AAE@QBD@Z 0040ca40 f i BaseEnemyObject.obj
 0001:0000ba70       ??0bad_alloc@std@@QAE@ABV01@@Z 0040ca70 f i BaseEnemyObject.obj
 0001:0000baa0       ??0bad_array_new_length@std@@QAE@ABV01@@Z 0040caa0 f i BaseEnemyObject.obj
 0001:0000bad0       ??0bad_array_new_length@std@@QAE@XZ 0040cad0 f i BaseEnemyObject.obj
 0001:0000bb00       ??0exception@std@@QAE@ABV01@@Z 0040cb00 f i BaseEnemyObject.obj
 0001:0000bb50       ??0exception@std@@QAE@QBDH@Z 0040cb50 f i BaseEnemyObject.obj
 0001:0000bb90       ??0sentry@?$basic_ostream@DU?$char_traits@D@std@@@std@@QAE@AAV12@@Z 0040cb90 f i BaseEnemyObject.obj
 0001:0000bc90       ??1?$_Alloc_construct_ptr@V?$allocator@U?$_Tree_node@U?$pair@$$CBV?$basic_string@DU?$char_traits@D@std@@V?$allocator@D@2@@std@@V?$shared_ptr@VRawImageData@@@2@@std@@PAX@std@@@std@@@std@@QAE@XZ 0040cc90 f i BaseEnemyObject.obj
 0001:0000bd00       ??1?$_Alloc_construct_ptr@V?$allocator@U?$_Tree_node@U?$pair@$$CBV?$basic_string@DU?$char_traits@D@std@@V?$allocator@D@2@@std@@V?$weak_ptr@VRawImageData@@@2@@std@@PAX@std@@@std@@@std@@QAE@XZ 0040cd00 f i BaseEnemyObject.obj
 0001:0000bd70       ??1?$_Compressed_pair@V?$allocator@D@std@@V?$_String_val@U?$_Simple_types@D@std@@@2@$00@std@@QAE@XZ 0040cd70 f i BaseEnemyObject.obj
 0001:0000bd90       ??1?$_Container_proxy_ptr12@V?$allocator@U_Container_proxy@std@@@std@@@std@@QAE@XZ 0040cd90 f i BaseEnemyObject.obj
 0001:0000bdd0       ??1?$_Ref_count@VRawImageData@@@std@@UAE@XZ 0040cdd0 f i BaseEnemyObject.obj
 0001:0000bdf0       ??1?$_String_val@U?$_Simple_types@D@std@@@std@@QAE@XZ 0040cdf0 f i BaseEnemyObject.obj
 0001:0000be10       ??1?$_Temporary_owner@VRawImageData@@@std@@QAE@XZ 0040ce10 f i BaseEnemyObject.obj
 0001:0000be50       ??1?$_Tidy_guard@V?$vector@HV?$allocator@H@std@@@std@@@std@@QAE@XZ 0040ce50 f i BaseEnemyObject.obj
 0001:0000be80       ??1?$_Tidy_guard@V?$vector@V?$vector@HV?$allocator@H@std@@@std@@V?$allocator@V?$vector@HV?$allocator@H@std@@@std@@@2@@std@@@std@@QAE@XZ 0040ce80 f i BaseEnemyObject.obj
 0001:0000beb0       ??1?$_Tree@V?$_Tmap_traits@V?$basic_string@DU?$char_traits@D@std@@V?$allocator@D@2@@std@@V?$weak_ptr@VRawImageData@@@2@U?$less@V?$basic_string@DU?$char_traits@D@std@@V?$allocator@D@2@@std@@@2@V?$allocator@U?$pair@$$CBV?$basic_string@DU?$char_traits@D@std@@V?$allocator@D@2@@std@@V?$weak_ptr@VRawImageData@@@2@@std@@@2@$0A@@std@@@std@@QAE@XZ 0040ceb0 f i BaseEnemyObject.obj
 0001:0000bf20       ??1?$_Tree_const_iterator@V?$_Tree_val@U?$_Tree_simple_types@U?$pair@$$CBV?$basic_string@DU?$char_traits@D@std@@V?$allocator@D@2@@std@@V?$shared_ptr@VRawImageData@@@2@@std@@@std@@@std@@@std@@QAE@XZ 0040cf20 f i BaseEnemyObject.obj
 0001:0000bf40       ??1?$_Tree_const_iterator@V?$_Tree_val@U?$_Tree_simple_types@U?$pair@$$CBV?$basic_string@DU?$char_traits@D@std@@V?$allocator@D@2@@std@@V?$weak_ptr@VRawImageData@@@2@@std@@@std@@@std@@@std@@QAE@XZ 0040cf40 f i BaseEnemyObject.obj
 0001:0000bf60       ??1?$_Tree_iterator@V?$_Tree_val@U?$_Tree_simple_types@U?$pair@$$CBV?$basic_string@DU?$char_traits@D@std@@V?$allocator@D@2@@std@@V?$shared_ptr@VRawImageData@@@2@@std@@@std@@@std@@@std@@QAE@XZ 0040cf60 f i BaseEnemyObject.obj
 0001:0000bf80       ??1?$_Tree_iterator@V?$_Tree_val@U?$_Tree_simple_types@U?$pair@$$CBV?$basic_string@DU?$char_traits@D@std@@V?$allocator@D@2@@std@@V?$weak_ptr@VRawImageData@@@2@@std@@@std@@@std@@@std@@QAE@XZ 0040cf80 f i BaseEnemyObject.obj
 0001:0000bfa0       ??1?$_Tree_temp_node@V?$allocator@U?$_Tree_node@U?$pair@$$CBV?$basic_string@DU?$char_traits@D@std@@V?$allocator@D@2@@std@@V?$shared_ptr@VRawImageData@@@2@@std@@PAX@std@@@std@@@std@@QAE@XZ 0040cfa0 f i BaseEnemyObject.obj
 0001:0000c070       ??1?$_Tree_temp_node@V?$allocator@U?$_Tree_node@U?$pair@$$CBV?$basic_string@DU?$char_traits@D@std@@V?$allocator@D@2@@std@@V?$weak_ptr@VRawImageData@@@2@@std@@PAX@std@@@std@@@std@@QAE@XZ 0040d070 f i BaseEnemyObject.obj
 0001:0000c140       ??1?$_Tree_temp_node_alloc@V?$allocator@U?$_Tree_node@U?$pair@$$CBV?$basic_string@DU?$char_traits@D@std@@V?$allocator@D@2@@std@@V?$shared_ptr@VRawImageData@@@2@@std@@PAX@std@@@std@@@std@@QAE@XZ 0040d140 f i BaseEnemyObject.obj
 0001:0000c160       ??1?$_Tree_temp_node_alloc@V?$allocator@U?$_Tree_node@U?$pair@$$CBV?$basic_string@DU?$char_traits@D@std@@V?$allocator@D@2@@std@@V?$weak_ptr@VRawImageData@@@2@@std@@PAX@std@@@std@@@std@@QAE@XZ 0040d160 f i BaseEnemyObject.obj
 0001:0000c180       ??1?$_Tree_unchecked_const_iterator@V?$_Tree_val@U?$_Tree_simple_types@U?$pair@$$CBV?$basic_string@DU?$char_traits@D@std@@V?$allocator@D@2@@std@@V?$shared_ptr@VRawImageData@@@2@@std@@@std@@@std@@U_Iterator_base12@2@@std@@QAE@XZ 0040d180 f i BaseEnemyObject.obj
 0001:0000c1a0       ??1?$_Tree_unchecked_const_iterator@V?$_Tree_val@U?$_Tree_simple_types@U?$pair@$$CBV?$basic_string@DU?$char_traits@D@std@@V?$allocator@D@2@@std@@V?$weak_ptr@VRawImageData@@@2@@std@@@std@@@std@@U_Iterator_base12@2@@std@@QAE@XZ 0040d1a0 f i BaseEnemyObject.obj
 0001:0000c1c0       ??1?$_Uninitialized_backout_al@V?$allocator@H@std@@@std@@QAE@XZ 0040d1c0 f i BaseEnemyObject.obj
 0001:0000c1f0       ??1?$_Uninitialized_backout_al@V?$allocator@V?$vector@HV?$allocator@H@std@@@std@@@std@@@std@@QAE@XZ 0040d1f0 f i BaseEnemyObject.obj
 0001:0000c220       ??1?$basic_string@DU?$char_traits@D@std@@V?$allocator@D@2@@std@@QAE@XZ 0040d220 f i BaseEnemyObject.obj
 0001:0000c290       ??1?$map@V?$basic_string@DU?$char_traits@D@std@@V?$allocator@D@2@@std@@V?$weak_ptr@VRawImageData@@@2@U?$less@V?$basic_string@DU?$char_traits@D@std@@V?$allocator@D@2@@std@@@2@V?$allocator@U?$pair@$$CBV?$basic_string@DU?$char_traits@D@std@@V?$allocator@D@2@@std@@V?$weak_ptr@VRawImageData@@@2@@std@@@2@@std@@QAE@XZ 0040d290 f i BaseEnemyObject.obj
 0001:0000c2b0       ??1?$pair@$$CBV?$basic_string@DU?$char_traits@D@std@@V?$allocator@D@2@@std@@V?$shared_ptr@VRawImageData@@@2@@std@@QAE@XZ 0040d2b0 f i BaseEnemyObject.obj
 0001:0000c2e0       ??1?$pair@$$CBV?$basic_string@DU?$char_traits@D@std@@V?$allocator@D@2@@std@@V?$weak_ptr@VRawImageData@@@2@@std@@QAE@XZ 0040d2e0 f i BaseEnemyObject.obj
 0001:0000c310       ??1?$pair@V?$_Tree_iterator@V?$_Tree_val@U?$_Tree_simple_types@U?$pair@$$CBV?$basic_string@DU?$char_traits@D@std@@V?$allocator@D@2@@std@@V?$shared_ptr@VRawImageData@@@2@@std@@@std@@@std@@@std@@_N@std@@QAE@XZ 0040d310 f i BaseEnemyObject.obj
 0001:0000c330       ??1?$pair@V?$_Tree_iterator@V?$_Tree_val@U?$_Tree_simple_types@U?$pair@$$CBV?$basic_string@DU?$char_traits@D@std@@V?$allocator@D@2@@std@@V?$weak_ptr@VRawImageData@@@2@@std@@@std@@@std@@@std@@_N@std@@QAE@XZ 0040d330 f i BaseEnemyObject.obj
 0001:0000c350       ??1?$pair@V?$basic_string@DU?$char_traits@D@std@@V?$allocator@D@2@@std@@V?$shared_ptr@VRawImageData@@@2@@std@@QAE@XZ 0040d350 f i BaseEnemyObject.obj
 0001:0000c380       ??1?$pair@V?$basic_string@DU?$char_traits@D@std@@V?$allocator@D@2@@std@@V?$weak_ptr@VRawImageData@@@2@@std@@QAE@XZ 0040d380 f i BaseEnemyObject.obj
 0001:0000c3b0       ??1?$shared_ptr@VRawImageData@@@std@@QAE@XZ 0040d3b0 f i BaseEnemyObject.obj
 0001:0000c3d0       ??1?$vector@HV?$allocator@H@std@@@std@@QAE@XZ 0040d3d0 f i BaseEnemyObject.obj
 0001:0000c440       ??1?$vector@V?$vector@HV?$allocator@H@std@@@std@@V?$allocator@V?$vector@HV?$allocator@H@std@@@std@@@2@@std@@QAE@XZ 0040d440 f i BaseEnemyObject.obj
 0001:0000c4b0       ??1?$weak_ptr@VRawImageData@@@std@@QAE@XZ 0040d4b0 f i BaseEnemyObject.obj
 0001:0000c4d0       ??1RawImageData@@QAE@XZ    0040d4d0 f i BaseEnemyObject.obj
 0001:0000c530       ??1SimpleImage@@QAE@XZ     0040d530 f i BaseEnemyObject.obj
 0001:0000c580       ??1_Bxty@?$_String_val@U?$_Simple_types@D@std@@@std@@QAE@XZ 0040d580 f i BaseEnemyObject.obj
 0001:0000c590       ??1_Iterator_base12@std@@QAE@XZ 0040d590 f i BaseEnemyObject.obj
 0001:0000c5b0       ??1_Ref_count_base@std@@UAE@XZ 0040d5b0 f i BaseEnemyObject.obj
 0001:0000c5c0       ??1_Sentry_base@?$basic_ostream@DU?$char_traits@D@std@@@std@@QAE@XZ 0040d5c0 f i BaseEnemyObject.obj
 0001:0000c650       ??1bad_alloc@std@@UAE@XZ   0040d650 f i BaseEnemyObject.obj
 0001:0000c670       ??1bad_array_new_length@std@@UAE@XZ 0040d670 f i BaseEnemyObject.obj
 0001:0000c690       ??1exception@std@@UAE@XZ   0040d690 f i BaseEnemyObject.obj
 0001:0000c6c0       ??1sentry@?$basic_ostream@DU?$char_traits@D@std@@@std@@QAE@XZ 0040d6c0 f i BaseEnemyObject.obj
 0001:0000c750       ??2@YAPAXIPAX@Z            0040d750 f i BaseEnemyObject.obj
 0001:0000c760       ??4_Iterator_base12@std@@QAEAAU01@ABU01@@Z 0040d760 f i BaseEnemyObject.obj
 0001:0000c790       ??8?$_Tree_const_iterator@V?$_Tree_val@U?$_Tree_simple_types@U?$pair@$$CBV?$basic_string@DU?$char_traits@D@std@@V?$allocator@D@2@@std@@V?$weak_ptr@VRawImageData@@@2@@std@@@std@@@std@@@std@@QBE_NABV01@@Z 0040d790 f i BaseEnemyObject.obj
 0001:0000c850       ??9?$_Tree_const_iterator@V?$_Tree_val@U?$_Tree_simple_types@U?$pair@$$CBV?$basic_string@DU?$char_traits@D@std@@V?$allocator@D@2@@std@@V?$weak_ptr@VRawImageData@@@2@@std@@@std@@@std@@@std@@QBE_NABV01@@Z 0040d850 f i BaseEnemyObject.obj
 0001:0000c8a0       ??A?$vector@HV?$allocator@H@std@@@std@@QAEAAHI@Z 0040d8a0 f i BaseEnemyObject.obj
 0001:0000c950       ??A?$vector@PAVDisplayableObject@@V?$allocator@PAVDisplayableObject@@@std@@@std@@QBEABQAVDisplayableObject@@I@Z 0040d950 f i BaseEnemyObject.obj
 0001:0000ca00       ??A?$vector@V?$vector@HV?$allocator@H@std@@@std@@V?$allocator@V?$vector@HV?$allocator@H@std@@@std@@@2@@std@@QAEAAV?$vector@HV?$allocator@H@std@@@1@I@Z 0040da00 f i BaseEnemyObject.obj
 0001:0000cab0       ??A?$vector@VSimpleImage@@V?$allocator@VSimpleImage@@@std@@@std@@QBEABVSimpleImage@@I@Z 0040dab0 f i BaseEnemyObject.obj
 0001:0000cb60       ??Bsentry@?$basic_ostream@DU?$char_traits@D@std@@@std@@QBE_NXZ 0040db60 f i BaseEnemyObject.obj
 0001:0000cb80       ??C?$_Tree_iterator@V?$_Tree_val@U?$_Tree_simple_types@U?$pair@$$CBV?$basic_string@DU?$char_traits@D@std@@V?$allocator@D@2@@std@@V?$weak_ptr@VRawImageData@@@2@@std@@@std@@@std@@@std@@QBEPAU?$pair@$$CBV?$basic_string@DU?$char_traits@D@std@@V?$allocator@D@2@@std@@V?$weak_ptr@VRawImageData@@@2@@1@XZ 0040db80 f i BaseEnemyObject.obj
 0001:0000cbb0       ??D?$_Tree_const_iterator@V?$_Tree_val@U?$_Tree_simple_types@U?$pair@$$CBV?$basic_string@DU?$char_traits@D@std@@V?$allocator@D@2@@std@@V?$weak_ptr@VRawImageData@@@2@@std@@@std@@@std@@@std@@QBEABU?$pair@$$CBV?$basic_string@DU?$char_traits@D@std@@V?$allocator@D@2@@std@@V?$weak_ptr@VRawImageData@@@2@@1@XZ 0040dbb0 f i BaseEnemyObject.obj
 0001:0000ccc0       ??D?$_Tree_iterator@V?$_Tree_val@U?$_Tree_simple_types@U?$pair@$$CBV?$basic_string@DU?$char_traits@D@std@@V?$allocator@D@2@@std@@V?$weak_ptr@VRawImageData@@@2@@std@@@std@@@std@@@std@@QBEAAU?$pair@$$CBV?$basic_string@DU?$char_traits@D@std@@V?$allocator@D@2@@std@@V?$weak_ptr@VRawImageData@@@2@@1@XZ 0040dcc0 f i BaseEnemyObject.obj
 0001:0000cce0       ??E?$_Tree_unchecked_const_iterator@V?$_Tree_val@U?$_Tree_simple_types@U?$pair@$$CBV?$basic_string@DU?$char_traits@D@std@@V?$allocator@D@2@@std@@V?$weak_ptr@VRawImageData@@@2@@std@@@std@@@std@@U_Iterator_base0@2@@std@@QAEAAV01@XZ 0040dce0 f i BaseEnemyObject.obj
 0001:0000cd70       ??R<lambda_9366063389c5f42a00a5088cf24e69de>@@QBE@QADIQBD@Z 0040dd70 f i BaseEnemyObject.obj
 0001:0000cdc0       ??R?$less@V?$basic_string@DU?$char_traits@D@std@@V?$allocator@D@2@@std@@@std@@QBE_NABV?$basic_string@DU?$char_traits@D@std@@V?$allocator@D@2@@1@0@Z 0040ddc0 f i BaseEnemyObject.obj
 0001:0000cdf0       ??_E?$_Ref_count@VRawImageData@@@std@@UAEPAXI@Z 0040ddf0 f i BaseEnemyObject.obj
 0001:0000cdf0       ??_G?$_Ref_count@VRawImageData@@@std@@UAEPAXI@Z 0040ddf0 f i BaseEnemyObject.obj
 0001:0000ce30       ??_G?$pair@$$CBV?$basic_string@DU?$char_traits@D@std@@V?$allocator@D@2@@std@@V?$shared_ptr@VRawImageData@@@2@@std@@QAEPAXI@Z 0040de30 f i BaseEnemyObject.obj
 0001:0000ce70       ??_G?$pair@$$CBV?$basic_string@DU?$char_traits@D@std@@V?$allocator@D@2@@std@@V?$weak_ptr@VRawImageData@@@2@@std@@QAEPAXI@Z 0040de70 f i BaseEnemyObject.obj
 0001:0000ceb0       ??_G?$vector@HV?$allocator@H@std@@@std@@QAEPAXI@Z 0040deb0 f i BaseEnemyObject.obj
 0001:0000cef0       ??_GRawImageData@@QAEPAXI@Z 0040def0 f i BaseEnemyObject.obj
 0001:0000cf30       ??_Ebad_alloc@std@@UAEPAXI@Z 0040df30 f i BaseEnemyObject.obj
 0001:0000cf30       ??_Gbad_alloc@std@@UAEPAXI@Z 0040df30 f i BaseEnemyObject.obj
 0001:0000cf70       ??_Ebad_array_new_length@std@@UAEPAXI@Z 0040df70 f i BaseEnemyObject.obj
 0001:0000cf70       ??_Gbad_array_new_length@std@@UAEPAXI@Z 0040df70 f i BaseEnemyObject.obj
 0001:0000cfb0       ??_Eexception@std@@UAEPAXI@Z 0040dfb0 f i BaseEnemyObject.obj
 0001:0000cfb0       ??_Gexception@std@@UAEPAXI@Z 0040dfb0 f i BaseEnemyObject.obj
 0001:0000cff0       ?_Adjust_manually_vector_aligned@std@@YAXAAPAXAAI@Z 0040dff0 f i BaseEnemyObject.obj
 0001:0000d140       ?_Adopt@_Iterator_base0@std@@QAEXPBX@Z 0040e140 f i BaseEnemyObject.obj
 0001:0000d150       ?_Adopt@_Iterator_base12@std@@QAEXPBU_Container_base12@2@@Z 0040e150 f i BaseEnemyObject.obj
 0001:0000d170       ?_Adopt_locked@_Iterator_base12@std@@AAEXPBU_Container_base12@2@@Z 0040e170 f i BaseEnemyObject.obj
 0001:0000d1b0       ?_Adopt_unlocked@_Iterator_base12@std@@AAEXPBU_Container_base12@2@@Z 0040e1b0 f i BaseEnemyObject.obj
 0001:0000d230       ?_Alloc_sentinel_and_proxy@?$_Tree@V?$_Tmap_traits@V?$basic_string@DU?$char_traits@D@std@@V?$allocator@D@2@@std@@V?$shared_ptr@VRawImageData@@@2@U?$less@V?$basic_string@DU?$char_traits@D@std@@V?$allocator@D@2@@std@@@2@V?$allocator@U?$pair@$$CBV?$basic_string@DU?$char_traits@D@std@@V?$allocator@D@2@@std@@V?$shared_ptr@VRawImageData@@@2@@std@@@2@$0A@@std@@@std@@IAEXXZ 0040e230 f i BaseEnemyObject.obj
 0001:0000d300       ?_Alloc_sentinel_and_proxy@?$_Tree@V?$_Tmap_traits@V?$basic_string@DU?$char_traits@D@std@@V?$allocator@D@2@@std@@V?$weak_ptr@VRawImageData@@@2@U?$less@V?$basic_string@DU?$char_traits@D@std@@V?$allocator@D@2@@std@@@2@V?$allocator@U?$pair@$$CBV?$basic_string@DU?$char_traits@D@std@@V?$allocator@D@2@@std@@V?$weak_ptr@VRawImageData@@@2@@std@@@2@$0A@@std@@@std@@IAEXXZ 0040e300 f i BaseEnemyObject.obj
 0001:0000d3d0       ?_Allocate@?$_Alloc_construct_ptr@V?$allocator@U?$_Tree_node@U?$pair@$$CBV?$basic_string@DU?$char_traits@D@std@@V?$allocator@D@2@@std@@V?$shared_ptr@VRawImageData@@@2@@std@@PAX@std@@@std@@@std@@QAEXXZ 0040e3d0 f i BaseEnemyObject.obj
 0001:0000d400       ?_Allocate@?$_Alloc_construct_ptr@V?$allocator@U?$_Tree_node@U?$pair@$$CBV?$basic_string@DU?$char_traits@D@std@@V?$allocator@D@2@@std@@V?$weak_ptr@VRawImageData@@@2@@std@@PAX@std@@@std@@@std@@QAEXXZ 0040e400 f i BaseEnemyObject.obj
 0001:0000d430       ?_Allocate@_Default_allocate_traits@std@@SAPAXI@Z 0040e430 f i BaseEnemyObject.obj
 0001:0000d450       ?_Assign_locked@_Iterator_base12@std@@AAEXABU12@@Z 0040e450 f i BaseEnemyObject.obj
 0001:0000d490       ?_Assign_unlocked@_Iterator_base12@std@@AAEXABU12@@Z 0040e490 f i BaseEnemyObject.obj
 0001:0000d4e0       ?_Buy_nonzero@?$vector@HV?$allocator@H@std@@@std@@AAEXI@Z 0040e4e0 f i BaseEnemyObject.obj
 0001:0000d520       ?_Buy_nonzero@?$vector@V?$vector@HV?$allocator@H@std@@@std@@V?$allocator@V?$vector@HV?$allocator@H@std@@@std@@@2@@std@@AAEXI@Z 0040e520 f i BaseEnemyObject.obj
 0001:0000d560       ?_Buy_raw@?$vector@HV?$allocator@H@std@@@std@@AAEXI@Z 0040e560 f i BaseEnemyObject.obj
 0001:0000d5e0       ?_Buy_raw@?$vector@V?$vector@HV?$allocator@H@std@@@std@@V?$allocator@V?$vector@HV?$allocator@H@std@@@std@@@2@@std@@AAEXI@Z 0040e5e0 f i BaseEnemyObject.obj
 0001:0000d660       ?_Calculate_growth@?$basic_string@DU?$char_traits@D@std@@V?$allocator@D@2@@std@@ABEII@Z 0040e660 f i BaseEnemyObject.obj
 0001:0000d6a0       ?_Calculate_growth@?$basic_string@DU?$char_traits@D@std@@V?$allocator@D@2@@std@@CAIIII@Z 0040e6a0 f i BaseEnemyObject.obj
 0001:0000d710       ?_Check_grow_by_1@?$_Tree@V?$_Tmap_traits@V?$basic_string@DU?$char_traits@D@std@@V?$allocator@D@2@@std@@V?$shared_ptr@VRawImageData@@@2@U?$less@V?$basic_string@DU?$char_traits@D@std@@V?$allocator@D@2@@std@@@2@V?$allocator@U?$pair@$$CBV?$basic_string@DU?$char_traits@D@std@@V?$allocator@D@2@@std@@V?$shared_ptr@VRawImageData@@@2@@std@@@2@$0A@@std@@@std@@IAEXXZ 0040e710 f i BaseEnemyObject.obj
 0001:0000d750       ?_Check_grow_by_1@?$_Tree@V?$_Tmap_traits@V?$basic_string@DU?$char_traits@D@std@@V?$allocator@D@2@@std@@V?$weak_ptr@VRawImageData@@@2@U?$less@V?$basic_string@DU?$char_traits@D@std@@V?$allocator@D@2@@std@@@2@V?$allocator@U?$pair@$$CBV?$basic_string@DU?$char_traits@D@std@@V?$allocator@D@2@@std@@V?$weak_ptr@VRawImageData@@@2@@std@@@2@$0A@@std@@@std@@IAEXXZ 0040e750 f i BaseEnemyObject.obj
 0001:0000d790       ?_Construct_lv_contents@?$basic_string@DU?$char_traits@D@std@@V?$allocator@D@2@@std@@AAEXABV12@@Z 0040e790 f i BaseEnemyObject.obj
 0001:0000d8e0       ?_Decref@?$_Ptr_base@VRawImageData@@@std@@IAEXXZ 0040e8e0 f i BaseEnemyObject.obj
 0001:0000d910       ?_Decref@_Ref_count_base@std@@QAEXXZ 0040e910 f i BaseEnemyObject.obj
 0001:0000d950       ?_Decwref@?$_Ptr_base@VRawImageData@@@std@@IAEXXZ 0040e950 f i BaseEnemyObject.obj
 0001:0000d980       ?_Decwref@_Ref_count_base@std@@QAEXXZ 0040e980 f i BaseEnemyObject.obj
 0001:0000d9c0       ?_Delete_this@?$_Ref_count@VRawImageData@@@std@@EAEXXZ 0040e9c0 f i BaseEnemyObject.obj
 0001:0000da10       ?_Destroy@?$_Ref_count@VRawImageData@@@std@@EAEXXZ 0040ea10 f i BaseEnemyObject.obj
 0001:0000da50       ?_Destroy@?$vector@HV?$allocator@H@std@@@std@@AAEXPAH0@Z 0040ea50 f i BaseEnemyObject.obj
 0001:0000da80       ?_Destroy@?$vector@V?$vector@HV?$allocator@H@std@@@std@@V?$allocator@V?$vector@HV?$allocator@H@std@@@std@@@2@@std@@AAEXPAV?$vector@HV?$allocator@H@std@@@2@0@Z 0040ea80 f i BaseEnemyObject.obj
 0001:0000dab0       ?_Erase_unchecked@?$_Tree@V?$_Tmap_traits@V?$basic_string@DU?$char_traits@D@std@@V?$allocator@D@2@@std@@V?$weak_ptr@VRawImageData@@@2@U?$less@V?$basic_string@DU?$char_traits@D@std@@V?$allocator@D@2@@std@@@2@V?$allocator@U?$pair@$$CBV?$basic_string@DU?$char_traits@D@std@@V?$allocator@D@2@@std@@V?$weak_ptr@VRawImageData@@@2@@std@@@2@$0A@@std@@@std@@AAEPAU?$_Tree_node@U?$pair@$$CBV?$basic_string@DU?$char_traits@D@std@@V?$allocator@D@2@@std@@V?$weak_ptr@VRawImageData@@@2@@std@@PAX@2@V?$_Tree_unchecked_const_iterator@V?$_Tree_val@U?$_Tree_simple_types@U?$pair@$$CBV?$basic_string@DU?$char_traits@D@std@@V?$allocator@D@2@@std@@V?$weak_ptr@VRawImageData@@@2@@std@@@std@@@std@@U_Iterator_base0@2@@2@@Z 0040eab0 f i BaseEnemyObject.obj
 0001:0000db30       ?_Extract@?$_In_place_key_extract_map@V?$basic_string@DU?$char_traits@D@std@@V?$allocator@D@2@@std@@U?$pair@V?$basic_string@DU?$char_traits@D@std@@V?$allocator@D@2@@std@@V?$shared_ptr@VRawImageData@@@2@@2@@std@@SAABV?$basic_string@DU?$char_traits@D@std@@V?$allocator@D@2@@2@ABU?$pair@V?$basic_string@DU?$char_traits@D@std@@V?$allocator@D@2@@std@@V?$shared_ptr@VRawImageData@@@2@@2@@Z 0040eb30 f i BaseEnemyObject.obj
 0001:0000db40       ?_Extract@?$_In_place_key_extract_map@V?$basic_string@DU?$char_traits@D@std@@V?$allocator@D@2@@std@@U?$pair@V?$basic_string@DU?$char_traits@D@std@@V?$allocator@D@2@@std@@V?$weak_ptr@VRawImageData@@@2@@2@@std@@SAABV?$basic_string@DU?$char_traits@D@std@@V?$allocator@D@2@@2@ABU?$pair@V?$basic_string@DU?$char_traits@D@std@@V?$allocator@D@2@@std@@V?$weak_ptr@VRawImageData@@@2@@2@@Z 0040eb40 f i BaseEnemyObject.obj
 0001:0000db50       ?_Extract@?$_Tree_val@U?$_Tree_simple_types@U?$pair@$$CBV?$basic_string@DU?$char_traits@D@std@@V?$allocator@D@2@@std@@V?$weak_ptr@VRawImageData@@@2@@std@@@std@@@std@@QAEPAU?$_Tree_node@U?$pair@$$CBV?$basic_string@DU?$char_traits@D@std@@V?$allocator@D@2@@std@@V?$weak_ptr@VRawImageData@@@2@@std@@PAX@2@V?$_Tree_unchecked_const_iterator@V?$_Tree_val@U?$_Tree_simple_types@U?$pair@$$CBV?$basic_string@DU?$char_traits@D@std@@V?$allocator@D@2@@std@@V?$weak_ptr@VRawImageData@@@2@@std@@@std@@@std@@U_Iterator_base0@2@@2@@Z 0040eb50 f i BaseEnemyObject.obj
 0001:0000e090       ?_Get_deleter@_Ref_count_base@std@@UBEPAXABVtype_info@@@Z 0040f090 f i BaseEnemyObject.obj
 0001:0000e0b0       ?_Get_first@?$_Compressed_pair@U?$less@V?$basic_string@DU?$char_traits@D@std@@V?$allocator@D@2@@std@@@std@@V?$_Compressed_pair@V?$allocator@U?$_Tree_node@U?$pair@$$CBV?$basic_string@DU?$char_traits@D@std@@V?$allocator@D@2@@std@@V?$shared_ptr@VRawImageData@@@2@@std@@PAX@std@@@std@@V?$_Tree_val@U?$_Tree_simple_types@U?$pair@$$CBV?$basic_string@DU?$char_traits@D@std@@V?$allocator@D@2@@std@@V?$shared_ptr@VRawImageData@@@2@@std@@@std@@@2@$00@2@$00@std@@QBEABU?$less@V?$basic_string@DU?$char_traits@D@std@@V?$allocator@D@2@@std@@@2@XZ 0040f0b0 f i BaseEnemyObject.obj
 0001:0000e0d0       ?_Get_first@?$_Compressed_pair@U?$less@V?$basic_string@DU?$char_traits@D@std@@V?$allocator@D@2@@std@@@std@@V?$_Compressed_pair@V?$allocator@U?$_Tree_node@U?$pair@$$CBV?$basic_string@DU?$char_traits@D@std@@V?$allocator@D@2@@std@@V?$weak_ptr@VRawImageData@@@2@@std@@PAX@std@@@std@@V?$_Tree_val@U?$_Tree_simple_types@U?$pair@$$CBV?$basic_string@DU?$char_traits@D@std@@V?$allocator@D@2@@std@@V?$weak_ptr@VRawImageData@@@2@@std@@@std@@@2@$00@2@$00@std@@QBEABU?$less@V?$basic_string@DU?$char_traits@D@std@@V?$allocator@D@2@@std@@@2@XZ 0040f0d0 f i BaseEnemyObject.obj
 0001:0000e0f0       ?_Get_first@?$_Compressed_pair@V?$allocator@D@std@@V?$_String_val@U?$_Simple_types@D@std@@@2@$00@std@@QAEAAV?$allocator@D@2@XZ 0040f0f0 f i BaseEnemyObject.obj
 0001:0000e110       ?_Get_first@?$_Compressed_pair@V?$allocator@D@std@@V?$_String_val@U?$_Simple_types@D@std@@@2@$00@std@@QBEABV?$allocator@D@2@XZ 0040f110 f i BaseEnemyObject.obj
 0001:0000e130       ?_Get_first@?$_Compressed_pair@V?$allocator@H@std@@V?$_Vector_val@U?$_Simple_types@H@std@@@2@$00@std@@QAEAAV?$allocator@H@2@XZ 0040f130 f i BaseEnemyObject.obj
 0001:0000e150       ?_Get_first@?$_Compressed_pair@V?$allocator@H@std@@V?$_Vector_val@U?$_Simple_types@H@std@@@2@$00@std@@QBEABV?$allocator@H@2@XZ 0040f150 f i BaseEnemyObject.obj
 0001:0000e170       ?_Get_first@?$_Compressed_pair@V?$allocator@U?$_Tree_node@U?$pair@$$CBV?$basic_string@DU?$char_traits@D@std@@V?$allocator@D@2@@std@@V?$shared_ptr@VRawImageData@@@2@@std@@PAX@std@@@std@@V?$_Tree_val@U?$_Tree_simple_types@U?$pair@$$CBV?$basic_string@DU?$char_traits@D@std@@V?$allocator@D@2@@std@@V?$shared_ptr@VRawImageData@@@2@@std@@@std@@@2@$00@std@@QAEAAV?$allocator@U?$_Tree_node@U?$pair@$$CBV?$basic_string@DU?$char_traits@D@std@@V?$allocator@D@2@@std@@V?$shared_ptr@VRawImageData@@@2@@std@@PAX@std@@@2@XZ 0040f170 f i BaseEnemyObject.obj
 0001:0000e190       ?_Get_first@?$_Compressed_pair@V?$allocator@U?$_Tree_node@U?$pair@$$CBV?$basic_string@DU?$char_traits@D@std@@V?$allocator@D@2@@std@@V?$shared_ptr@VRawImageData@@@2@@std@@PAX@std@@@std@@V?$_Tree_val@U?$_Tree_simple_types@U?$pair@$$CBV?$basic_string@DU?$char_traits@D@std@@V?$allocator@D@2@@std@@V?$shared_ptr@VRawImageData@@@2@@std@@@std@@@2@$00@std@@QBEABV?$allocator@U?$_Tree_node@U?$pair@$$CBV?$basic_string@DU?$char_traits@D@std@@V?$allocator@D@2@@std@@V?$shared_ptr@VRawImageData@@@2@@std@@PAX@std@@@2@XZ 0040f190 f i BaseEnemyObject.obj
 0001:0000e1b0       ?_Get_first@?$_Compressed_pair@V?$allocator@U?$_Tree_node@U?$pair@$$CBV?$basic_string@DU?$char_traits@D@std@@V?$allocator@D@2@@std@@V?$weak_ptr@VRawImageData@@@2@@std@@PAX@std@@@std@@V?$_Tree_val@U?$_Tree_simple_types@U?$pair@$$CBV?$basic_string@DU?$char_traits@D@std@@V?$allocator@D@2@@std@@V?$weak_ptr@VRawImageData@@@2@@std@@@std@@@2@$00@std@@QAEAAV?$allocator@U?$_Tree_node@U?$pair@$$CBV?$basic_string@DU?$char_traits@D@std@@V?$allocator@D@2@@std@@V?$weak_ptr@VRawImageData@@@2@@std@@PAX@std@@@2@XZ 0040f1b0 f i BaseEnemyObject.obj
 0001:0000e1d0       ?_Get_first@?$_Compressed_pair@V?$allocator@U?$_Tree_node@U?$pair@$$CBV?$basic_string@DU?$char_traits@D@std@@V?$allocator@D@2@@std@@V?$weak_ptr@VRawImageData@@@2@@std@@PAX@std@@@std@@V?$_Tree_val@U?$_Tree_simple_types@U?$pair@$$CBV?$basic_string@DU?$char_traits@D@std@@V?$allocator@D@2@@std@@V?$weak_ptr@VRawImageData@@@2@@std@@@std@@@2@$00@std@@QBEABV?$allocator@U?$_Tree_node@U?$pair@$$CBV?$basic_string@DU?$char_traits@D@std@@V?$allocator@D@2@@std@@V?$weak_ptr@VRawImageData@@@2@@std@@PAX@std@@@2@XZ 0040f1d0 f i BaseEnemyObject.obj
 0001:0000e1f0       ?_Get_first@?$_Compressed_pair@V?$allocator@V?$vector@HV?$allocator@H@std@@@std@@@std@@V?$_Vector_val@U?$_Simple_types@V?$vector@HV?$allocator@H@std@@@std@@@std@@@2@$00@std@@QAEAAV?$allocator@V?$vector@HV?$allocator@H@std@@@std@@@2@XZ 0040f1f0 f i BaseEnemyObject.obj
 0001:0000e210       ?_Get_first@?$_Compressed_pair@V?$allocator@V?$vector@HV?$allocator@H@std@@@std@@@std@@V?$_Vector_val@U?$_Simple_types@V?$vector@HV?$allocator@H@std@@@std@@@std@@@2@$00@std@@QBEABV?$allocator@V?$vector@HV?$allocator@H@std@@@std@@@2@XZ 0040f210 f i BaseEnemyObject.obj
 0001:0000e230       ?_Get_scary@?$_Tree@V?$_Tmap_traits@V?$basic_string@DU?$char_traits@D@std@@V?$allocator@D@2@@std@@V?$shared_ptr@VRawImageData@@@2@U?$less@V?$basic_string@DU?$char_traits@D@std@@V?$allocator@D@2@@std@@@2@V?$allocator@U?$pair@$$CBV?$basic_string@DU?$char_traits@D@std@@V?$allocator@D@2@@std@@V?$shared_ptr@VRawImageData@@@2@@std@@@2@$0A@@std@@@std@@IAEPAV?$_Tree_val@U?$_Tree_simple_types@U?$pair@$$CBV?$basic_string@DU?$char_traits@D@std@@V?$allocator@D@2@@std@@V?$shared_ptr@VRawImageData@@@2@@std@@@std@@@2@XZ 0040f230 f i BaseEnemyObject.obj
 0001:0000e250       ?_Get_scary@?$_Tree@V?$_Tmap_traits@V?$basic_string@DU?$char_traits@D@std@@V?$allocator@D@2@@std@@V?$shared_ptr@VRawImageData@@@2@U?$less@V?$basic_string@DU?$char_traits@D@std@@V?$allocator@D@2@@std@@@2@V?$allocator@U?$pair@$$CBV?$basic_string@DU?$char_traits@D@std@@V?$allocator@D@2@@std@@V?$shared_ptr@VRawImageData@@@2@@std@@@2@$0A@@std@@@std@@IBEPBV?$_Tree_val@U?$_Tree_simple_types@U?$pair@$$CBV?$basic_string@DU?$char_traits@D@std@@V?$allocator@D@2@@std@@V?$shared_ptr@VRawImageData@@@2@@std@@@std@@@2@XZ 0040f250 f i BaseEnemyObject.obj
 0001:0000e270       ?_Get_scary@?$_Tree@V?$_Tmap_traits@V?$basic_string@DU?$char_traits@D@std@@V?$allocator@D@2@@std@@V?$weak_ptr@VRawImageData@@@2@U?$less@V?$basic_string@DU?$char_traits@D@std@@V?$allocator@D@2@@std@@@2@V?$allocator@U?$pair@$$CBV?$basic_string@DU?$char_traits@D@std@@V?$allocator@D@2@@std@@V?$weak_ptr@VRawImageData@@@2@@std@@@2@$0A@@std@@@std@@IAEPAV?$_Tree_val@U?$_Tree_simple_types@U?$pair@$$CBV?$basic_string@DU?$char_traits@D@std@@V?$allocator@D@2@@std@@V?$weak_ptr@VRawImageData@@@2@@std@@@std@@@2@XZ 0040f270 f i BaseEnemyObject.obj
 0001:0000e290       ?_Get_scary@?$_Tree@V?$_Tmap_traits@V?$basic_string@DU?$char_traits@D@std@@V?$allocator@D@2@@std@@V?$weak_ptr@VRawImageData@@@2@U?$less@V?$basic_string@DU?$char_traits@D@std@@V?$allocator@D@2@@std@@@2@V?$allocator@U?$pair@$$CBV?$basic_string@DU?$char_traits@D@std@@V?$allocator@D@2@@std@@V?$weak_ptr@VRawImageData@@@2@@std@@@2@$0A@@std@@@std@@IBEPBV?$_Tree_val@U?$_Tree_simple_types@U?$pair@$$CBV?$basic_string@DU?$char_traits@D@std@@V?$allocator@D@2@@std@@V?$weak_ptr@VRawImageData@@@2@@std@@@std@@@2@XZ 0040f290 f i BaseEnemyObject.obj
 0001:0000e2b0       ?_Getal@?$_Tree@V?$_Tmap_traits@V?$basic_string@DU?$char_traits@D@std@@V?$allocator@D@2@@std@@V?$shared_ptr@VRawImageData@@@2@U?$less@V?$basic_string@DU?$char_traits@D@std@@V?$allocator@D@2@@std@@@2@V?$allocator@U?$pair@$$CBV?$basic_string@DU?$char_traits@D@std@@V?$allocator@D@2@@std@@V?$shared_ptr@VRawImageData@@@2@@std@@@2@$0A@@std@@@std@@IAEAAV?$allocator@U?$_Tree_node@U?$pair@$$CBV?$basic_string@DU?$char_traits@D@std@@V?$allocator@D@2@@std@@V?$shared_ptr@VRawImageData@@@2@@std@@PAX@std@@@2@XZ 0040f2b0 f i BaseEnemyObject.obj
 0001:0000e2d0       ?_Getal@?$_Tree@V?$_Tmap_traits@V?$basic_string@DU?$char_traits@D@std@@V?$allocator@D@2@@std@@V?$shared_ptr@VRawImageData@@@2@U?$less@V?$basic_string@DU?$char_traits@D@std@@V?$allocator@D@2@@std@@@2@V?$allocator@U?$pair@$$CBV?$basic_string@DU?$char_traits@D@std@@V?$allocator@D@2@@std@@V?$shared_ptr@VRawImageData@@@2@@std@@@2@$0A@@std@@@std@@IBEABV?$allocator@U?$_Tree_node@U?$pair@$$CBV?$basic_string@DU?$char_traits@D@std@@V?$allocator@D@2@@std@@V?$shared_ptr@VRawImageData@@@2@@std@@PAX@std@@@2@XZ 0040f2d0 f i BaseEnemyObject.obj
 0001:0000e2f0       ?_Getal@?$_Tree@V?$_Tmap_traits@V?$basic_string@DU?$char_traits@D@std@@V?$allocator@D@2@@std@@V?$weak_ptr@VRawImageData@@@2@U?$less@V?$basic_string@DU?$char_traits@D@std@@V?$allocator@D@2@@std@@@2@V?$allocator@U?$pair@$$CBV?$basic_string@DU?$char_traits@D@std@@V?$allocator@D@2@@std@@V?$weak_ptr@VRawImageData@@@2@@std@@@2@$0A@@std@@@std@@IAEAAV?$allocator@U?$_Tree_node@U?$pair@$$CBV?$basic_string@DU?$char_traits@D@std@@V?$allocator@D@2@@std@@V?$weak_ptr@VRawImageData@@@2@@std@@PAX@std@@@2@XZ 0040f2f0 f i BaseEnemyObject.obj
 0001:0000e310       ?_Getal@?$_Tree@V?$_Tmap_traits@V?$basic_string@DU?$char_traits@D@std@@V?$allocator@D@2@@std@@V?$weak_ptr@VRawImageData@@@2@U?$less@V?$basic_string@DU?$char_traits@D@std@@V?$allocator@D@2@@std@@@2@V?$allocator@U?$pair@$$CBV?$basic_string@DU?$char_traits@D@std@@V?$allocator@D@2@@std@@V?$weak_ptr@VRawImageData@@@2@@std@@@2@$0A@@std@@@std@@IBEABV?$allocator@U?$_Tree_node@U?$pair@$$CBV?$basic_string@DU?$char_traits@D@std@@V?$allocator@D@2@@std@@V?$weak_ptr@VRawImageData@@@2@@std@@PAX@std@@@2@XZ 0040f310 f i BaseEnemyObject.obj
 0001:0000e330       ?_Getal@?$basic_string@DU?$char_traits@D@std@@V?$allocator@D@2@@std@@AAEAAV?$allocator@D@2@XZ 0040f330 f i BaseEnemyObject.obj
 0001:0000e350       ?_Getal@?$basic_string@DU?$char_traits@D@std@@V?$allocator@D@2@@std@@ABEABV?$allocator@D@2@XZ 0040f350 f i BaseEnemyObject.obj
 0001:0000e370       ?_Getal@?$vector@HV?$allocator@H@std@@@std@@AAEAAV?$allocator@H@2@XZ 0040f370 f i BaseEnemyObject.obj
 0001:0000e390       ?_Getal@?$vector@HV?$allocator@H@std@@@std@@ABEABV?$allocator@H@2@XZ 0040f390 f i BaseEnemyObject.obj
 0001:0000e3b0       ?_Getal@?$vector@V?$vector@HV?$allocator@H@std@@@std@@V?$allocator@V?$vector@HV?$allocator@H@std@@@std@@@2@@std@@AAEAAV?$allocator@V?$vector@HV?$allocator@H@std@@@std@@@2@XZ 0040f3b0 f i BaseEnemyObject.obj
 0001:0000e3d0       ?_Getal@?$vector@V?$vector@HV?$allocator@H@std@@@std@@V?$allocator@V?$vector@HV?$allocator@H@std@@@std@@@2@@std@@ABEABV?$allocator@V?$vector@HV?$allocator@H@std@@@std@@@2@XZ 0040f3d0 f i BaseEnemyObject.obj
 0001:0000e3f0       ?_Getcomp@?$_Tree@V?$_Tmap_traits@V?$basic_string@DU?$char_traits@D@std@@V?$allocator@D@2@@std@@V?$shared_ptr@VRawImageData@@@2@U?$less@V?$basic_string@DU?$char_traits@D@std@@V?$allocator@D@2@@std@@@2@V?$allocator@U?$pair@$$CBV?$basic_string@DU?$char_traits@D@std@@V?$allocator@D@2@@std@@V?$shared_ptr@VRawImageData@@@2@@std@@@2@$0A@@std@@@std@@IBEABU?$less@V?$basic_string@DU?$char_traits@D@std@@V?$allocator@D@2@@std@@@2@XZ 0040f3f0 f i BaseEnemyObject.obj
 0001:0000e410       ?_Getcomp@?$_Tree@V?$_Tmap_traits@V?$basic_string@DU?$char_traits@D@std@@V?$allocator@D@2@@std@@V?$weak_ptr@VRawImageData@@@2@U?$less@V?$basic_string@DU?$char_traits@D@std@@V?$allocator@D@2@@std@@@2@V?$allocator@U?$pair@$$CBV?$basic_string@DU?$char_traits@D@std@@V?$allocator@D@2@@std@@V?$weak_ptr@VRawImageData@@@2@@std@@@2@$0A@@std@@@std@@IBEABU?$less@V?$basic_string@DU?$char_traits@D@std@@V?$allocator@D@2@@std@@@2@XZ 0040f410 f i BaseEnemyObject.obj
 0001:0000e430       ?_Getcont@_Iterator_base12@std@@QBEPBU_Container_base12@2@XZ 0040f430 f i BaseEnemyObject.obj
 0001:0000e470       ?_Incref@?$_Ptr_base@VRawImageData@@@std@@IBEXXZ 0040f470 f i BaseEnemyObject.obj
 0001:0000e4a0       ?_Incref@_Ref_count_base@std@@QAEXXZ 0040f4a0 f i BaseEnemyObject.obj
 0001:0000e4c0       ?_Incref_nz@_Ref_count_base@std@@QAE_NXZ 0040f4c0 f i BaseEnemyObject.obj
 0001:0000e530       ?_Incwref@_Ref_count_base@std@@QAEXXZ 0040f530 f i BaseEnemyObject.obj
 0001:0000e550       ?_Insert_node@?$_Tree_val@U?$_Tree_simple_types@U?$pair@$$CBV?$basic_string@DU?$char_traits@D@std@@V?$allocator@D@2@@std@@V?$shared_ptr@VRawImageData@@@2@@std@@@std@@@std@@QAEPAU?$_Tree_node@U?$pair@$$CBV?$basic_string@DU?$char_traits@D@std@@V?$allocator@D@2@@std@@V?$shared_ptr@VRawImageData@@@2@@std@@PAX@2@U?$_Tree_id@PAU?$_Tree_node@U?$pair@$$CBV?$basic_string@DU?$char_traits@D@std@@V?$allocator@D@2@@std@@V?$shared_ptr@VRawImageData@@@2@@std@@PAX@std@@@2@QAU32@@Z 0040f550 f i BaseEnemyObject.obj
 0001:0000e7e0       ?_Insert_node@?$_Tree_val@U?$_Tree_simple_types@U?$pair@$$CBV?$basic_string@DU?$char_traits@D@std@@V?$allocator@D@2@@std@@V?$weak_ptr@VRawImageData@@@2@@std@@@std@@@std@@QAEPAU?$_Tree_node@U?$pair@$$CBV?$basic_string@DU?$char_traits@D@std@@V?$allocator@D@2@@std@@V?$weak_ptr@VRawImageData@@@2@@std@@PAX@2@U?$_Tree_id@PAU?$_Tree_node@U?$pair@$$CBV?$basic_string@DU?$char_traits@D@std@@V?$allocator@D@2@@std@@V?$weak_ptr@VRawImageData@@@2@@std@@PAX@std@@@2@QAU32@@Z 0040f7e0 f i BaseEnemyObject.obj
 0001:0000ea70       ?_Large_string_engaged@?$_String_val@U?$_Simple_types@D@std@@@std@@QBE_NXZ 0040fa70 f i BaseEnemyObject.obj
 0001:0000eab0       ?_Lrotate@?$_Tree_val@U?$_Tree_simple_types@U?$pair@$$CBV?$basic_string@DU?$char_traits@D@std@@V?$allocator@D@2@@std@@V?$shared_ptr@VRawImageData@@@2@@std@@@std@@@std@@QAEXPAU?$_Tree_node@U?$pair@$$CBV?$basic_string@DU?$char_traits@D@std@@V?$allocator@D@2@@std@@V?$shared_ptr@VRawImageData@@@2@@std@@PAX@2@@Z 0040fab0 f i BaseEnemyObject.obj
 0001:0000eb70       ?_Lrotate@?$_Tree_val@U?$_Tree_simple_types@U?$pair@$$CBV?$basic_string@DU?$char_traits@D@std@@V?$allocator@D@2@@std@@V?$weak_ptr@VRawImageData@@@2@@std@@@std@@@std@@QAEXPAU?$_Tree_node@U?$pair@$$CBV?$basic_string@DU?$char_traits@D@std@@V?$allocator@D@2@@std@@V?$weak_ptr@VRawImageData@@@2@@std@@PAX@2@@Z 0040fb70 f i BaseEnemyObject.obj
 0001:0000ec30       ?_Max@?$_Tree_val@U?$_Tree_simple_types@U?$pair@$$CBV?$basic_string@DU?$char_traits@D@std@@V?$allocator@D@2@@std@@V?$weak_ptr@VRawImageData@@@2@@std@@@std@@@std@@SAPAU?$_Tree_node@U?$pair@$$CBV?$basic_string@DU?$char_traits@D@std@@V?$allocator@D@2@@std@@V?$weak_ptr@VRawImageData@@@2@@std@@PAX@2@PAU32@@Z 0040fc30 f i BaseEnemyObject.obj
 0001:0000ec60       ?_Memcpy_val_from@?$basic_string@DU?$char_traits@D@std@@V?$allocator@D@2@@std@@AAEXABV12@@Z 0040fc60 f i BaseEnemyObject.obj
 0001:0000ecc0       ?_Min@?$_Tree_val@U?$_Tree_simple_types@U?$pair@$$CBV?$basic_string@DU?$char_traits@D@std@@V?$allocator@D@2@@std@@V?$weak_ptr@VRawImageData@@@2@@std@@@std@@@std@@SAPAU?$_Tree_node@U?$pair@$$CBV?$basic_string@DU?$char_traits@D@std@@V?$allocator@D@2@@std@@V?$weak_ptr@VRawImageData@@@2@@std@@PAX@2@PAU32@@Z 0040fcc0 f i BaseEnemyObject.obj
 0001:0000ecf0       ?_Myptr@?$_String_val@U?$_Simple_types@D@std@@@std@@QAEPADXZ 0040fcf0 f i BaseEnemyObject.obj
 0001:0000ed40       ?_Myptr@?$_String_val@U?$_Simple_types@D@std@@@std@@QBEPBDXZ 0040fd40 f i BaseEnemyObject.obj
 0001:0000ed90       ?_Orphan_all@_Container_base12@std@@QAEXXZ 0040fd90 f i BaseEnemyObject.obj
 0001:0000edb0       ?_Orphan_all_locked_v3@_Container_base12@std@@AAEXXZ 0040fdb0 f i BaseEnemyObject.obj
 0001:0000edf0       ?_Orphan_all_unlocked_v3@_Container_base12@std@@AAEXXZ 0040fdf0 f i BaseEnemyObject.obj
 0001:0000ee60       ?_Orphan_me_locked_v3@_Iterator_base12@std@@AAEXXZ 0040fe60 f i BaseEnemyObject.obj
 0001:0000eea0       ?_Orphan_me_unlocked_v3@_Iterator_base12@std@@AAEXXZ 0040fea0 f i BaseEnemyObject.obj
 0001:0000ef90       ?_Orphan_ptr@?$_Tree_val@U?$_Tree_simple_types@U?$pair@$$CBV?$basic_string@DU?$char_traits@D@std@@V?$allocator@D@2@@std@@V?$weak_ptr@VRawImageData@@@2@@std@@@std@@@std@@QAEXQAU?$_Tree_node@U?$pair@$$CBV?$basic_string@DU?$char_traits@D@std@@V?$allocator@D@2@@std@@V?$weak_ptr@VRawImageData@@@2@@std@@PAX@2@@Z 0040ff90 f i BaseEnemyObject.obj
 0001:0000f040       ?_Release@?$_Alloc_construct_ptr@V?$allocator@U?$_Tree_node@U?$pair@$$CBV?$basic_string@DU?$char_traits@D@std@@V?$allocator@D@2@@std@@V?$shared_ptr@VRawImageData@@@2@@std@@PAX@std@@@std@@@std@@QAEPAU?$_Tree_node@U?$pair@$$CBV?$basic_string@DU?$char_traits@D@std@@V?$allocator@D@2@@std@@V?$shared_ptr@VRawImageData@@@2@@std@@PAX@2@XZ 00410040 f i BaseEnemyObject.obj
 0001:0000f070       ?_Release@?$_Alloc_construct_ptr@V?$allocator@U?$_Tree_node@U?$pair@$$CBV?$basic_string@DU?$char_traits@D@std@@V?$allocator@D@2@@std@@V?$weak_ptr@VRawImageData@@@2@@std@@PAX@std@@@std@@@std@@QAEPAU?$_Tree_node@U?$pair@$$CBV?$basic_string@DU?$char_traits@D@std@@V?$allocator@D@2@@std@@V?$weak_ptr@VRawImageData@@@2@@std@@PAX@2@XZ 00410070 f i BaseEnemyObject.obj
 0001:0000f0a0       ?_Release@?$_Uninitialized_backout_al@V?$allocator@H@std@@@std@@QAEPAHXZ 004100a0 f i BaseEnemyObject.obj
 0001:0000f0d0       ?_Release@?$_Uninitialized_backout_al@V?$allocator@V?$vector@HV?$allocator@H@std@@@std@@@std@@@std@@QAEPAV?$vector@HV?$allocator@H@std@@@2@XZ 004100d0 f i BaseEnemyObject.obj
 0001:0000f100       ?_Release@_Basic_container_proxy_ptr12@std@@QAEXXZ 00410100 f i BaseEnemyObject.obj
 0001:0000f120       ?_Rrotate@?$_Tree_val@U?$_Tree_simple_types@U?$pair@$$CBV?$basic_string@DU?$char_traits@D@std@@V?$allocator@D@2@@std@@V?$shared_ptr@VRawImageData@@@2@@std@@@std@@@std@@QAEXPAU?$_Tree_node@U?$pair@$$CBV?$basic_string@DU?$char_traits@D@std@@V?$allocator@D@2@@std@@V?$shared_ptr@VRawImageData@@@2@@std@@PAX@2@@Z 00410120 f i BaseEnemyObject.obj
 0001:0000f1f0       ?_Rrotate@?$_Tree_val@U?$_Tree_simple_types@U?$pair@$$CBV?$basic_string@DU?$char_traits@D@std@@V?$allocator@D@2@@std@@V?$weak_ptr@VRawImageData@@@2@@std@@@std@@@std@@QAEXPAU?$_Tree_node@U?$pair@$$CBV?$basic_string@DU?$char_traits@D@std@@V?$allocator@D@2@@std@@V?$weak_ptr@VRawImageData@@@2@@std@@PAX@2@@Z 004101f0 f i BaseEnemyObject.obj
 0001:0000f2c0       ?_Swap_proxy_and_iterators@?$basic_string@DU?$char_traits@D@std@@V?$allocator@D@2@@std@@AAEXAAV12@@Z 004102c0 f i BaseEnemyObject.obj
 0001:0000f2e0       ?_Swap_proxy_and_iterators@_Container_base12@std@@QAEXAAU12@@Z 004102e0 f i BaseEnemyObject.obj
 0001:0000f300       ?_Swap_proxy_and_iterators_locked@_Container_base12@std@@AAEXAAU12@@Z 00410300 f i BaseEnemyObject.obj
 0001:0000f340       ?_Swap_proxy_and_iterators_unlocked@_Container_base12@std@@AAEXAAU12@@Z 00410340 f i BaseEnemyObject.obj
 0001:0000f3a0       ?_Take_contents@?$basic_string@DU?$char_traits@D@std@@V?$allocator@D@2@@std@@AAEXAAV12@@Z 004103a0 f i BaseEnemyObject.obj
 0001:0000f4f0       ?_Throw_bad_array_new_length@std@@YAXXZ 004104f0 f i BaseEnemyObject.obj
 0001:0000f520       ?_Throw_tree_length_error@std@@YAXXZ 00410520 f i BaseEnemyObject.obj
 0001:0000f540       ?_Tidy@?$vector@HV?$allocator@H@std@@@std@@AAEXXZ 00410540 f i BaseEnemyObject.obj
 0001:0000f630       ?_Tidy@?$vector@V?$vector@HV?$allocator@H@std@@@std@@V?$allocator@V?$vector@HV?$allocator@H@std@@@std@@@2@@std@@AAEXXZ 00410630 f i BaseEnemyObject.obj
 0001:0000f720       ?_Tidy_deallocate@?$basic_string@DU?$char_traits@D@std@@V?$allocator@D@2@@std@@AAEXXZ 00410720 f i BaseEnemyObject.obj
 0001:0000f810       ?_Tidy_init@?$basic_string@DU?$char_traits@D@std@@V?$allocator@D@2@@std@@AAEXXZ 00410810 f i BaseEnemyObject.obj
 0001:0000f870       ?_Ufill@?$vector@HV?$allocator@H@std@@@std@@AAEPAHPAHIABH@Z 00410870 f i BaseEnemyObject.obj
 0001:0000f8b0       ?_Ufill@?$vector@V?$vector@HV?$allocator@H@std@@@std@@V?$allocator@V?$vector@HV?$allocator@H@std@@@std@@@2@@std@@AAEPAV?$vector@HV?$allocator@H@std@@@2@PAV32@IABV32@@Z 004108b0 f i BaseEnemyObject.obj
 0001:0000f8f0       ?_Unwrapped@?$_Tree_iterator@V?$_Tree_val@U?$_Tree_simple_types@U?$pair@$$CBV?$basic_string@DU?$char_traits@D@std@@V?$allocator@D@2@@std@@V?$weak_ptr@VRawImageData@@@2@@std@@@std@@@std@@@std@@QBE?AV?$_Tree_unchecked_iterator@V?$_Tree_val@U?$_Tree_simple_types@U?$pair@$$CBV?$basic_string@DU?$char_traits@D@std@@V?$allocator@D@2@@std@@V?$weak_ptr@VRawImageData@@@2@@std@@@std@@@std@@@2@XZ 004108f0 f i BaseEnemyObject.obj
 0001:0000f930       ?_Use_count@_Ref_count_base@std@@QBEJXZ 00410930 f i BaseEnemyObject.obj
 0001:0000f950       ?_Xlen_string@std@@YAXXZ   00410950 f i BaseEnemyObject.obj
 0001:0000f970       ?_Xlength@?$vector@HV?$allocator@H@std@@@std@@CAXXZ 00410970 f i BaseEnemyObject.obj
 0001:0000f990       ?_Xlength@?$vector@V?$vector@HV?$allocator@H@std@@@std@@V?$allocator@V?$vector@HV?$allocator@H@std@@@std@@@2@@std@@CAXXZ 00410990 f i BaseEnemyObject.obj
 0001:0000f9b0       ?__empty_global_delete@@YAXPAX@Z 004109b0 f i BaseEnemyObject.obj
 0001:0000f9c0       ?__empty_global_delete@@YAXPAXI@Z 004109c0 f i BaseEnemyObject.obj
 0001:0000f9c0       ?__global_delete@@YAXPAXI@Z 004109c0 f i BaseEnemyObject.obj
 0001:0000f9d0       ?allocate@?$allocator@D@std@@QAEPADI@Z 004109d0 f i BaseEnemyObject.obj
 0001:0000fa00       ?allocate@?$allocator@H@std@@QAEPAHI@Z 00410a00 f i BaseEnemyObject.obj
 0001:0000fa30       ?allocate@?$allocator@U?$_Tree_node@U?$pair@$$CBV?$basic_string@DU?$char_traits@D@std@@V?$allocator@D@2@@std@@V?$shared_ptr@VRawImageData@@@2@@std@@PAX@std@@@std@@QAEPAU?$_Tree_node@U?$pair@$$CBV?$basic_string@DU?$char_traits@D@std@@V?$allocator@D@2@@std@@V?$shared_ptr@VRawImageData@@@2@@std@@PAX@2@I@Z 00410a30 f i BaseEnemyObject.obj
 0001:0000fa60       ?allocate@?$allocator@U?$_Tree_node@U?$pair@$$CBV?$basic_string@DU?$char_traits@D@std@@V?$allocator@D@2@@std@@V?$weak_ptr@VRawImageData@@@2@@std@@PAX@std@@@std@@QAEPAU?$_Tree_node@U?$pair@$$CBV?$basic_string@DU?$char_traits@D@std@@V?$allocator@D@2@@std@@V?$weak_ptr@VRawImageData@@@2@@std@@PAX@2@I@Z 00410a60 f i BaseEnemyObject.obj
 0001:0000fa90       ?allocate@?$allocator@U_Container_proxy@std@@@std@@QAEPAU_Container_proxy@2@I@Z 00410a90 f i BaseEnemyObject.obj
 0001:0000fac0       ?allocate@?$allocator@V?$vector@HV?$allocator@H@std@@@std@@@std@@QAEPAV?$vector@HV?$allocator@H@std@@@2@I@Z 00410ac0 f i BaseEnemyObject.obj
 0001:0000faf0       ?assign@?$_Narrow_char_traits@DH@std@@SAXAADABD@Z 00410af0 f i BaseEnemyObject.obj
 0001:0000fb10       ?assign@?$basic_string@DU?$char_traits@D@std@@V?$allocator@D@2@@std@@QAEAAV12@QBD@Z 00410b10 f i BaseEnemyObject.obj
 0001:0000fb50       ?assign@?$basic_string@DU?$char_traits@D@std@@V?$allocator@D@2@@std@@QAEAAV12@QBDI@Z 00410b50 f i BaseEnemyObject.obj
 0001:0000fbf0       ?c_str@?$basic_string@DU?$char_traits@D@std@@V?$allocator@D@2@@std@@QBEPBDXZ 00410bf0 f i BaseEnemyObject.obj
 0001:0000fc10       ?checkCollision@MyCollisionDetector@@SA_NHHV?$vector@V?$vector@HV?$allocator@H@std@@@std@@V?$allocator@V?$vector@HV?$allocator@H@std@@@std@@@2@@std@@HH0@Z 00410c10 f i BaseEnemyObject.obj
 0001:00010110       ?compare@?$_Narrow_char_traits@DH@std@@SAHQBD0I@Z 00411110 f i BaseEnemyObject.obj
 0001:00010130       ?compare@?$basic_string@DU?$char_traits@D@std@@V?$allocator@D@2@@std@@QBEHABV12@@Z 00411130 f i BaseEnemyObject.obj
 0001:00010180       ?copy@?$_Char_traits@DH@std@@SAPADQADQBDI@Z 00411180 f i BaseEnemyObject.obj
 0001:000101b0       ?data@?$basic_string@DU?$char_traits@D@std@@V?$allocator@D@2@@std@@QBEPBDXZ 004111b0 f i BaseEnemyObject.obj
 0001:000101d0       ?deallocate@?$_Default_allocator_traits@V?$allocator@U?$_Tree_node@U?$pair@$$CBV?$basic_string@DU?$char_traits@D@std@@V?$allocator@D@2@@std@@V?$weak_ptr@VRawImageData@@@2@@std@@PAX@std@@@std@@@std@@SAXAAV?$allocator@U?$_Tree_node@U?$pair@$$CBV?$basic_string@DU?$char_traits@D@std@@V?$allocator@D@2@@std@@V?$weak_ptr@VRawImageData@@@2@@std@@PAX@std@@@2@QAU?$_Tree_node@U?$pair@$$CBV?$basic_string@DU?$char_traits@D@std@@V?$allocator@D@2@@std@@V?$weak_ptr@VRawImageData@@@2@@std@@PAX@2@I@Z 004111d0 f i BaseEnemyObject.obj
 0001:000101f0       ?deallocate@?$_Default_allocator_traits@V?$allocator@U_Container_proxy@std@@@std@@@std@@SAXAAV?$allocator@U_Container_proxy@std@@@2@QAU_Container_proxy@2@I@Z 004111f0 f i BaseEnemyObject.obj
 0001:00010210       ?deallocate@?$allocator@D@std@@QAEXQADI@Z 00411210 f i BaseEnemyObject.obj
 0001:00010240       ?deallocate@?$allocator@H@std@@QAEXQAHI@Z 00411240 f i BaseEnemyObject.obj
 0001:00010270       ?deallocate@?$allocator@U?$_Tree_node@U?$pair@$$CBV?$basic_string@DU?$char_traits@D@std@@V?$allocator@D@2@@std@@V?$shared_ptr@VRawImageData@@@2@@std@@PAX@std@@@std@@QAEXQAU?$_Tree_node@U?$pair@$$CBV?$basic_string@DU?$char_traits@D@std@@V?$allocator@D@2@@std@@V?$shared_ptr@VRawImageData@@@2@@std@@PAX@2@I@Z 00411270 f i BaseEnemyObject.obj
 0001:000102a0       ?deallocate@?$allocator@U?$_Tree_node@U?$pair@$$CBV?$basic_string@DU?$char_traits@D@std@@V?$allocator@D@2@@std@@V?$weak_ptr@VRawImageData@@@2@@std@@PAX@std@@@std@@QAEXQAU?$_Tree_node@U?$pair@$$CBV?$basic_string@DU?$char_traits@D@std@@V?$allocator@D@2@@std@@V?$weak_ptr@VRawImageData@@@2@@std@@PAX@2@I@Z 004112a0 f i BaseEnemyObject.obj
 0001:000102d0       ?deallocate@?$allocator@V?$vector@HV?$allocator@H@std@@@std@@@std@@QAEXQAV?$vector@HV?$allocator@H@std@@@2@I@Z 004112d0 f i BaseEnemyObject.obj
 0001:00010300       ?end@?$_Tree@V?$_Tmap_traits@V?$basic_string@DU?$char_traits@D@std@@V?$allocator@D@2@@std@@V?$weak_ptr@VRawImageData@@@2@U?$less@V?$basic_string@DU?$char_traits@D@std@@V?$allocator@D@2@@std@@@2@V?$allocator@U?$pair@$$CBV?$basic_string@DU?$char_traits@D@std@@V?$allocator@D@2@@std@@V?$weak_ptr@VRawImageData@@@2@@std@@@2@$0A@@std@@@std@@QAE?AV?$_Tree_iterator@V?$_Tree_val@U?$_Tree_simple_types@U?$pair@$$CBV?$basic_string@DU?$char_traits@D@std@@V?$allocator@D@2@@std@@V?$weak_ptr@VRawImageData@@@2@@std@@@std@@@std@@@2@XZ 00411300 f i BaseEnemyObject.obj
 0001:00010340       ?eof@?$_Narrow_char_traits@DH@std@@SAHXZ 00411340 f i BaseEnemyObject.obj
 0001:00010350       ?eq_int_type@?$_Narrow_char_traits@DH@std@@SA_NABH0@Z 00411350 f i BaseEnemyObject.obj
 0001:00010380       ?expired@?$weak_ptr@VRawImageData@@@std@@QBE_NXZ 00411380 f i BaseEnemyObject.obj
 0001:000103c0       ?find@?$_Tree@V?$_Tmap_traits@V?$basic_string@DU?$char_traits@D@std@@V?$allocator@D@2@@std@@V?$weak_ptr@VRawImageData@@@2@U?$less@V?$basic_string@DU?$char_traits@D@std@@V?$allocator@D@2@@std@@@2@V?$allocator@U?$pair@$$CBV?$basic_string@DU?$char_traits@D@std@@V?$allocator@D@2@@std@@V?$weak_ptr@VRawImageData@@@2@@std@@@2@$0A@@std@@@std@@QAE?AV?$_Tree_iterator@V?$_Tree_val@U?$_Tree_simple_types@U?$pair@$$CBV?$basic_string@DU?$char_traits@D@std@@V?$allocator@D@2@@std@@V?$weak_ptr@VRawImageData@@@2@@std@@@std@@@std@@@2@ABV?$basic_string@DU?$char_traits@D@std@@V?$allocator@D@2@@2@@Z 004113c0 f i BaseEnemyObject.obj
 0001:00010410       ?freeSurface@RawImageData@@QAEXXZ 00411410 f i BaseEnemyObject.obj
 0001:00010490       ?get@?$_Ptr_base@VRawImageData@@@std@@IBEPAVRawImageData@@XZ 00411490 f i BaseEnemyObject.obj
 0001:000104b0       ?get@ImageManager@@SAPAV1@XZ 004114b0 f i BaseEnemyObject.obj
 0001:00010560       ?getDisplayableObject@MyDisplayableObjectContainer@@QBEPAVDisplayableObject@@H@Z 00411560 f i BaseEnemyObject.obj
 0001:000105a0       ?getDrawingRegionLeft@DisplayableObject@@QBEHXZ 004115a0 f i BaseEnemyObject.obj
 0001:000105c0       ?getDrawingRegionTop@DisplayableObject@@QBEHXZ 004115c0 f i BaseEnemyObject.obj
 0001:000105e0       ?getEngine@DisplayableObject@@QBEPAVBaseEngine@@XZ 004115e0 f i BaseEnemyObject.obj
 0001:00010600       ?getForegroundSurface@BaseEngine@@QAEPAVDrawingSurface@@XZ 00411600 f i BaseEnemyObject.obj
 0001:00010620       ?getHeight@RawImageData@@QBEHXZ 00411620 f i BaseEnemyObject.obj
 0001:00010640       ?getHeight@SimpleImage@@QBEHXZ 00411640 f i BaseEnemyObject.obj
 0001:00010670       ?getImage@ImageContainer@@QBE?AVSimpleImage@@H@Z 00411670 f i BaseEnemyObject.obj
 0001:000106c0       ?getImagePtrbyURL@ImageManager@@QAE?AV?$shared_ptr@VRawImageData@@@std@@V?$basic_string@DU?$char_traits@D@std@@V?$allocator@D@2@@3@_N1@Z 004116c0 f i BaseEnemyObject.obj
 0001:00010b00       ?getImagebyURL@ImageManager@@QAE?AVSimpleImage@@V?$basic_string@DU?$char_traits@D@std@@V?$allocator@D@2@@std@@_N1@Z 00411b00 f i BaseEnemyObject.obj
 0001:00010bd0       ?getMapValue@TileManager@@QBEHHH@Z 00411bd0 f i BaseEnemyObject.obj
 0001:00010c00       ?getMapWidth@TileManager@@QBEHXZ 00411c00 f i BaseEnemyObject.obj
 0001:00010c20       ?getMapXForScreenX@TileManager@@QBEHH@Z 00411c20 f i BaseEnemyObject.obj
 0001:00010c50       ?getMapYForScreenY@TileManager@@QBEHH@Z 00411c50 f i BaseEnemyObject.obj
 0001:00010c80       ?getPixelColour@SimpleImage@@QBEHHH@Z 00411c80 f i BaseEnemyObject.obj
 0001:00010cb0       ?getRawPixelColour@RawImageData@@QBEHHH@Z 00411cb0 f i BaseEnemyObject.obj
 0001:00010d00       ?getTileHeight@TileManager@@QBEHXZ 00411d00 f i BaseEnemyObject.obj
 0001:00010d20       ?getTileWidth@TileManager@@QBEHXZ 00411d20 f i BaseEnemyObject.obj
 0001:00010d40       ?getWidth@RawImageData@@QBEHXZ 00411d40 f i BaseEnemyObject.obj
 0001:00010d60       ?getWidth@SimpleImage@@QBEHXZ 00411d60 f i BaseEnemyObject.obj
 0001:00010d90       ?getXForRotationAndCrop@RawImageData@@SAHHHHHHH@Z 00411d90 f i BaseEnemyObject.obj
 0001:00010e00       ?getYForRotationAndCrop@RawImageData@@SAHHHHHHH@Z 00411e00 f i BaseEnemyObject.obj
 0001:00010e70       ?length@?$_Narrow_char_traits@DH@std@@SAIQBD@Z 00411e70 f i BaseEnemyObject.obj
 0001:00010e90       ?loadAsNew@ImageManager@@QAE?AV?$shared_ptr@VRawImageData@@@std@@V?$basic_string@DU?$char_traits@D@std@@V?$allocator@D@2@@3@@Z 00411e90 f i BaseEnemyObject.obj
 0001:00011060       ?loadImage@ImageManager@@SA?AVSimpleImage@@V?$basic_string@DU?$char_traits@D@std@@V?$allocator@D@2@@std@@_N@Z 00412060 f i BaseEnemyObject.obj
 0001:00011120       ?loadImage@RawImageData@@QAE_NV?$basic_string@DU?$char_traits@D@std@@V?$allocator@D@2@@std@@HHHHH_N@Z 00412120 f i BaseEnemyObject.obj
 0001:00011430       ?lock@?$weak_ptr@VRawImageData@@@std@@QBE?AV?$shared_ptr@VRawImageData@@@2@XZ 00412430 f i BaseEnemyObject.obj
 0001:00011480       ?max@?$numeric_limits@H@std@@SAHXZ 00412480 f i BaseEnemyObject.obj
 0001:00011490       ?max_size@?$_Default_allocator_traits@V?$allocator@D@std@@@std@@SAIABV?$allocator@D@2@@Z 00412490 f i BaseEnemyObject.obj
 0001:000114a0       ?max_size@?$_Default_allocator_traits@V?$allocator@H@std@@@std@@SAIABV?$allocator@H@2@@Z 004124a0 f i BaseEnemyObject.obj
 0001:000114b0       ?max_size@?$_Default_allocator_traits@V?$allocator@U?$_Tree_node@U?$pair@$$CBV?$basic_string@DU?$char_traits@D@std@@V?$allocator@D@2@@std@@V?$shared_ptr@VRawImageData@@@2@@std@@PAX@std@@@std@@@std@@SAIABV?$allocator@U?$_Tree_node@U?$pair@$$CBV?$basic_string@DU?$char_traits@D@std@@V?$allocator@D@2@@std@@V?$shared_ptr@VRawImageData@@@2@@std@@PAX@std@@@2@@Z 004124b0 f i BaseEnemyObject.obj
 0001:000114c0       ?max_size@?$_Default_allocator_traits@V?$allocator@U?$_Tree_node@U?$pair@$$CBV?$basic_string@DU?$char_traits@D@std@@V?$allocator@D@2@@std@@V?$weak_ptr@VRawImageData@@@2@@std@@PAX@std@@@std@@@std@@SAIABV?$allocator@U?$_Tree_node@U?$pair@$$CBV?$basic_string@DU?$char_traits@D@std@@V?$allocator@D@2@@std@@V?$weak_ptr@VRawImageData@@@2@@std@@PAX@std@@@2@@Z 004124c0 f i BaseEnemyObject.obj
 0001:000114d0       ?max_size@?$_Default_allocator_traits@V?$allocator@V?$vector@HV?$allocator@H@std@@@std@@@std@@@std@@SAIABV?$allocator@V?$vector@HV?$allocator@H@std@@@std@@@2@@Z 004124d0 f i BaseEnemyObject.obj
 0001:000114e0       ?max_size@?$_Tree@V?$_Tmap_traits@V?$basic_string@DU?$char_traits@D@std@@V?$allocator@D@2@@std@@V?$shared_ptr@VRawImageData@@@2@U?$less@V?$basic_string@DU?$char_traits@D@std@@V?$allocator@D@2@@std@@@2@V?$allocator@U?$pair@$$CBV?$basic_string@DU?$char_traits@D@std@@V?$allocator@D@2@@std@@V?$shared_ptr@VRawImageData@@@2@@std@@@2@$0A@@std@@@std@@QBEIXZ 004124e0 f i BaseEnemyObject.obj
 0001:00011530       ?max_size@?$_Tree@V?$_Tmap_traits@V?$basic_string@DU?$char_traits@D@std@@V?$allocator@D@2@@std@@V?$weak_ptr@VRawImageData@@@2@U?$less@V?$basic_string@DU?$char_traits@D@std@@V?$allocator@D@2@@std@@@2@V?$allocator@U?$pair@$$CBV?$basic_string@DU?$char_traits@D@std@@V?$allocator@D@2@@std@@V?$weak_ptr@VRawImageData@@@2@@std@@@2@$0A@@std@@@std@@QBEIXZ 00412530 f i BaseEnemyObject.obj
 0001:00011580       ?max_size@?$basic_string@DU?$char_traits@D@std@@V?$allocator@D@2@@std@@QBEIXZ 00412580 f i BaseEnemyObject.obj
 0001:00011600       ?max_size@?$vector@HV?$allocator@H@std@@@std@@QBEIXZ 00412600 f i BaseEnemyObject.obj
 0001:00011650       ?max_size@?$vector@V?$vector@HV?$allocator@H@std@@@std@@V?$allocator@V?$vector@HV?$allocator@H@std@@@std@@@2@@std@@QBEIXZ 00412650 f i BaseEnemyObject.obj
 0001:000116a0       ?move@?$_Char_traits@DH@std@@SAPADQADQBDI@Z 004126a0 f i BaseEnemyObject.obj
 0001:000116d0       ?pointer_to@?$pointer_traits@PAU?$pair@$$CBV?$basic_string@DU?$char_traits@D@std@@V?$allocator@D@2@@std@@V?$weak_ptr@VRawImageData@@@2@@std@@@std@@SAPAU?$pair@$$CBV?$basic_string@DU?$char_traits@D@std@@V?$allocator@D@2@@std@@V?$weak_ptr@VRawImageData@@@2@@2@AAU32@@Z 004126d0 f i BaseEnemyObject.obj
 0001:000116f0       ?select_on_container_copy_construction@?$_Default_allocator_traits@V?$allocator@D@std@@@std@@SA?AV?$allocator@D@2@ABV32@@Z 004126f0 f i BaseEnemyObject.obj
 0001:00011700       ?select_on_container_copy_construction@?$_Default_allocator_traits@V?$allocator@H@std@@@std@@SA?AV?$allocator@H@2@ABV32@@Z 00412700 f i BaseEnemyObject.obj
 0001:00011710       ?size@?$basic_string@DU?$char_traits@D@std@@V?$allocator@D@2@@std@@QBEIXZ 00412710 f i BaseEnemyObject.obj
 0001:00011730       ?size@?$vector@HV?$allocator@H@std@@@std@@QBEIXZ 00412730 f i BaseEnemyObject.obj
 0001:00011760       ?size@?$vector@PAVDisplayableObject@@V?$allocator@PAVDisplayableObject@@@std@@@std@@QBEIXZ 00412760 f i BaseEnemyObject.obj
 0001:00011790       ?size@?$vector@V?$vector@HV?$allocator@H@std@@@std@@V?$allocator@V?$vector@HV?$allocator@H@std@@@std@@@2@@std@@QBEIXZ 00412790 f i BaseEnemyObject.obj
 0001:000117c0       ?use_count@?$_Ptr_base@VRawImageData@@@std@@QBEJXZ 004127c0 f i BaseEnemyObject.obj
 0001:00011800       ?what@exception@std@@UBEPBDXZ 00412800 f i BaseEnemyObject.obj
 0001:00011840       ___local_stdio_printf_options 00412840 f i BaseEnemyObject.obj
 0001:00011850       __vfprintf_l               00412850 f i BaseEnemyObject.obj
 0001:00011890       _printf                    00412890 f i BaseEnemyObject.obj
 0001:000118e0       ??1BaseState@@UAE@XZ       004128e0 f   BaseState.obj
 0001:00011900       ?drawObjects@BaseState@@UAEXXZ 00412900 f   BaseState.obj
 0001:00011910       ?virtSetupBackgroundBuffer@BaseState@@UAEXXZ 00412910 f   BaseState.obj
 0001:00011920       ?virtInitialiseObjects@BaseState@@UAEHXZ 00412920 f   BaseState.obj
 0001:00011930       ?virtMainLoopDoBeforeUpdate@BaseState@@UAEXXZ 00412930 f   BaseState.obj
 0001:00011940       ?virtMainLoopDoAfterUpdate@BaseState@@UAEXXZ 00412940 f   BaseState.obj
 0001:00011950       ?copyAllBackgroundBuffer@BaseState@@UAEXXZ 00412950 f   BaseState.obj
 0001:00011980       ?virtCreateSurface@BaseState@@UAEXXZ 00412980 f   BaseState.obj
 0001:00011990       ?virtPreDraw@BaseState@@UAEXXZ 00412990 f   BaseState.obj
 0001:000119a0       ?virtDrawStringsUnderneath@BaseState@@UAEXXZ 004129a0 f   BaseState.obj
 0001:000119b0       ?virtDrawStringsOnTop@BaseState@@UAEXXZ 004129b0 f   BaseState.obj
 0001:000119c0       ?virtPostDraw@BaseState@@UAEXXZ 004129c0 f   BaseState.obj
 0001:000119d0       ?virtKeyUp@BaseState@@UAEXH@Z 004129d0 f   BaseState.obj
 0001:000119e0       ?virtKeyDown@BaseState@@UAEXH@Z 004129e0 f   BaseState.obj
 0001:000119f0       ?virtMouseMoved@BaseState@@UAEXHH@Z 004129f0 f   BaseState.obj
 0001:00011a00       ?virtMouseUp@BaseState@@UAEXHHH@Z 00412a00 f   BaseState.obj
 0001:00011a10       ?virtMouseDown@BaseState@@UAEXHHH@Z 00412a10 f   BaseState.obj
 0001:00011a20       ?virtMouseWheel@BaseState@@UAEXHHHH@Z 00412a20 f   BaseState.obj
 0001:00011a80       ??_EBaseState@@UAEPAXI@Z   00412a80 f i BaseState.obj
 0001:00011a80       ??_GBaseState@@UAEPAXI@Z   00412a80 f i BaseState.obj
 0001:00011ac0       ?getBackgroundSurface@BaseEngine@@QAEPAVDrawingSurface@@XZ 00412ac0 f i BaseState.obj
 0001:00011ae0       ?virtDraw@BossEnemyObject@@UAEXXZ 00412ae0 f   BossEnemyObject.obj
 0001:00011c60       ?virtDoUpdate@BossEnemyObject@@UAEXH@Z 00412c60 f   BossEnemyObject.obj
 0001:00011e40       ?loadObjectImages@BossEnemyObject@@UAEXXZ 00412e40 f   BossEnemyObject.obj
 0001:00012040       ??6@YAAAV?$basic_ostream@DU?$char_traits@D@std@@@std@@AAV01@AAVBossEnemyObject@@@Z 00413040 f   BossEnemyObject.obj
 0001:00012170       ?findNextPos@BossEnemyObject@@AAEHXZ 00413170 f   BossEnemyObject.obj
 0001:00012760       ?isInTile@BossEnemyObject@@AAE_NXZ 00413760 f   BossEnemyObject.obj
 0001:00012840       ?predictAttacksInThreeFrame@BossEnemyObject@@AAE_NXZ 00413840 f   BossEnemyObject.obj
 0001:00012f30       ??$?0$$V@?$_Compressed_pair@V?$allocator@UBullet@@@std@@V?$_Vector_val@U?$_Simple_types@UBullet@@@std@@@2@$00@std@@QAE@U_Zero_then_variadic_args_t@1@@Z 00413f30 f i BossEnemyObject.obj
 0001:00012f60       ??$?0$$V@?$_Compressed_pair@V?$allocator@UPosition@@@std@@V?$_Deque_val@U?$_Deque_simple_types@UPosition@@@std@@@2@$00@std@@QAE@U_Zero_then_variadic_args_t@1@@Z 00413f60 f i BossEnemyObject.obj
 0001:00012f90       ??$?0UBullet@@@?$allocator@U_Container_proxy@std@@@std@@QAE@ABV?$allocator@UBullet@@@1@@Z 00413f90 f i BossEnemyObject.obj
 0001:00012fb0       ??$?0UPosition@@@?$allocator@PAUPosition@@@std@@QAE@ABV?$allocator@UPosition@@@1@@Z 00413fb0 f i BossEnemyObject.obj
 0001:00012fd0       ??$?0UPosition@@@?$allocator@U_Container_proxy@std@@@std@@QAE@ABV?$allocator@UPosition@@@1@@Z 00413fd0 f i BossEnemyObject.obj
 0001:00012ff0       ??$_Adl_verify_range@PAPAUPosition@@PAPAU1@@std@@YAXABQAPAUPosition@@0@Z 00413ff0 f i BossEnemyObject.obj
 0001:00013010       ??$_Construct_in_place@PAUPosition@@AAPAU1@@std@@YAXAAPAUPosition@@0@Z 00414010 f i BossEnemyObject.obj
 0001:00013060       ??$_Copy_memmove@PAPAUPosition@@PAPAU1@@std@@YAPAPAUPosition@@PAPAU1@00@Z 00414060 f i BossEnemyObject.obj
 0001:000130f0       ??$_Copy_memmove@PAUBullet@@PAU1@@std@@YAPAUBullet@@PAU1@00@Z 004140f0 f i BossEnemyObject.obj
 0001:00013180       ??$_Destroy_in_place@PAUPosition@@@std@@YAXAAPAUPosition@@@Z 00414180 f i BossEnemyObject.obj
 0001:00013190       ??$_Destroy_range@PAPAUPosition@@PAPAU1@@std@@YAXPAPAUPosition@@QAPAU1@@Z 00414190 f i BossEnemyObject.obj
 0001:000131a0       ??$_Destroy_range@V?$allocator@UBullet@@@std@@@std@@YAXPAUBullet@@QAU1@AAV?$allocator@UBullet@@@0@@Z 004141a0 f i BossEnemyObject.obj
 0001:000131b0       ??$_Destroy_range@V?$allocator@VSimpleImage@@@std@@@std@@YAXPAVSimpleImage@@QAV1@AAV?$allocator@VSimpleImage@@@0@@Z 004141b0 f i BossEnemyObject.obj
 0001:00013230       ??$_Emplace_back@$$V@?$_Uninitialized_backout_al@V?$allocator@VSimpleImage@@@std@@@std@@QAEXXZ 00414230 f i BossEnemyObject.obj
 0001:00013280       ??$_Emplace_back@AAPAUPosition@@@?$_Uninitialized_backout@PAPAUPosition@@@std@@QAEXAAPAUPosition@@@Z 00414280 f i BossEnemyObject.obj
 0001:000132d0       ??$_Emplace_back@UBullet@@@?$_Uninitialized_backout_al@V?$allocator@UBullet@@@std@@@std@@QAEX$$QAUBullet@@@Z 004142d0 f i BossEnemyObject.obj
 0001:00013330       ??$_Emplace_back@VSimpleImage@@@?$_Uninitialized_backout_al@V?$allocator@VSimpleImage@@@std@@@std@@QAEX$$QAVSimpleImage@@@Z 00414330 f i BossEnemyObject.obj
 0001:00013390       ??$_Emplace_back_internal@UPosition@@@?$deque@UPosition@@V?$allocator@UPosition@@@std@@@std@@AAEX$$QAUPosition@@@Z 00414390 f i BossEnemyObject.obj
 0001:00013520       ??$_Emplace_back_with_unused_capacity@UBullet@@@?$vector@UBullet@@V?$allocator@UBullet@@@std@@@std@@AAE?A_T$$QAUBullet@@@Z 00414520 f i BossEnemyObject.obj
 0001:000135c0       ??$_Emplace_reallocate@UBullet@@@?$vector@UBullet@@V?$allocator@UBullet@@@std@@@std@@QAEPAUBullet@@QAU2@$$QAU2@@Z 004145c0 f i BossEnemyObject.obj
 0001:00013810       ??$_Get_size_of_n@$0M@@std@@YAII@Z 00414810 f i BossEnemyObject.obj
 0001:00013840       ??$_Get_unwrapped@ABQAPAUPosition@@@std@@YA?A_TABQAPAUPosition@@@Z 00414840 f i BossEnemyObject.obj
 0001:00013850       ??$_Get_unwrapped@ABQAUBullet@@@std@@YA?A_TABQAUBullet@@@Z 00414850 f i BossEnemyObject.obj
 0001:00013860       ??$_Get_unwrapped@ABQAVSimpleImage@@@std@@YA?A_TABQAVSimpleImage@@@Z 00414860 f i BossEnemyObject.obj
 0001:00013870       ??$_Get_unwrapped_n@AAPAPAUPosition@@H@std@@YA?A_TAAPAPAUPosition@@H@Z 00414870 f i BossEnemyObject.obj
 0001:00013880       ??$_Idl_distance@PAPAUPosition@@PAPAU1@@std@@YA?A_PABQAPAUPosition@@0@Z 00414880 f i BossEnemyObject.obj
 0001:000138a0       ??$_Resize@U_Value_init_tag@std@@@?$vector@VSimpleImage@@V?$allocator@VSimpleImage@@@std@@@std@@AAEXIABU_Value_init_tag@1@@Z 004148a0 f i BossEnemyObject.obj
 0001:000139c0       ??$_Resize_reallocate@U_Value_init_tag@std@@@?$vector@VSimpleImage@@V?$allocator@VSimpleImage@@@std@@@std@@AAEXIABU_Value_init_tag@1@@Z 004149c0 f i BossEnemyObject.obj
 0001:00013b70       ??$_Seek_wrapped@PAPAUPosition@@PAPAU1@@std@@YAXAAPAPAUPosition@@$$QAPAPAU1@@Z 00414b70 f i BossEnemyObject.obj
 0001:00013b90       ??$_To_address@PAPAUPosition@@@std@@YA?A_PABQAPAUPosition@@@Z 00414b90 f i BossEnemyObject.obj
 0001:00013ba0       ??$_To_address@PAUBullet@@@std@@YA?A_PABQAUBullet@@@Z 00414ba0 f i BossEnemyObject.obj
 0001:00013bb0       ??$_Unfancy@UBullet@@@std@@YAPAUBullet@@PAU1@@Z 00414bb0 f i BossEnemyObject.obj
 0001:00013bc0       ??$_Unfancy@UPosition@@@std@@YAPAUPosition@@PAU1@@Z 00414bc0 f i BossEnemyObject.obj
 0001:00013bd0       ??$_Unfancy@VSimpleImage@@@std@@YAPAVSimpleImage@@PAV1@@Z 00414bd0 f i BossEnemyObject.obj
 0001:00013be0       ??$_Uninitialized_copy_unchecked@PAPAUPosition@@PAPAU1@@std@@YAPAPAUPosition@@PAPAU1@QAPAU1@0@Z 00414be0 f i BossEnemyObject.obj
 0001:00013cb0       ??$_Uninitialized_move@PAUBullet@@V?$allocator@UBullet@@@std@@@std@@YAPAUBullet@@QAU1@0PAU1@AAV?$allocator@UBullet@@@0@@Z 00414cb0 f i BossEnemyObject.obj
 0001:00013dd0       ??$_Uninitialized_move@PAVSimpleImage@@V?$allocator@VSimpleImage@@@std@@@std@@YAPAVSimpleImage@@QAV1@0PAV1@AAV?$allocator@VSimpleImage@@@0@@Z 00414dd0 f i BossEnemyObject.obj
 0001:00013eb0       ??$_Uninitialized_value_construct_n@V?$allocator@VSimpleImage@@@std@@@std@@YAPAVSimpleImage@@PAV1@IAAV?$allocator@VSimpleImage@@@0@@Z 00414eb0 f i BossEnemyObject.obj
 0001:00013f60       ??$_Uninitialized_value_construct_n_unchecked1@PAPAUPosition@@I@std@@YAPAPAUPosition@@PAPAU1@I@Z 00414f60 f i BossEnemyObject.obj
 0001:00013f90       ??$_Verify_range@PAUPosition@@@std@@YAXQBQAUPosition@@0@Z 00414f90 f i BossEnemyObject.obj
 0001:00014010       ??$_Voidify_iter@PAPAUPosition@@@std@@YAPAXPAPAUPosition@@@Z 00415010 f i BossEnemyObject.obj
 0001:00014020       ??$_Voidify_iter@PAUBullet@@@std@@YAPAXPAUBullet@@@Z 00415020 f i BossEnemyObject.obj
 0001:00014030       ??$_Voidify_iter@PAUPosition@@@std@@YAPAXPAUPosition@@@Z 00415030 f i BossEnemyObject.obj
 0001:00014040       ??$_Voidify_iter@PAVSimpleImage@@@std@@YAPAXPAVSimpleImage@@@Z 00415040 f i BossEnemyObject.obj
 0001:00014050       ??$_Zero_range@PAPAUPosition@@@std@@YAPAPAUPosition@@QAPAU1@0@Z 00415050 f i BossEnemyObject.obj
 0001:000140a0       ??$addressof@PAUPosition@@@std@@YAPAPAUPosition@@AAPAU1@@Z 004150a0 f i BossEnemyObject.obj
 0001:000140b0       ??$addressof@V?$_Deque_val@U?$_Deque_simple_types@UPosition@@@std@@@std@@@std@@YAPAV?$_Deque_val@U?$_Deque_simple_types@UPosition@@@std@@@0@AAV10@@Z 004150b0 f i BossEnemyObject.obj
 0001:000140c0       ??$addressof@V?$_Vector_val@U?$_Simple_types@UBullet@@@std@@@std@@@std@@YAPAV?$_Vector_val@U?$_Simple_types@UBullet@@@std@@@0@AAV10@@Z 004150c0 f i BossEnemyObject.obj
 0001:000140d0       ??$construct@UBullet@@U1@@?$_Default_allocator_traits@V?$allocator@UBullet@@@std@@@std@@SAXAAV?$allocator@UBullet@@@1@QAUBullet@@$$QAU3@@Z 004150d0 f i BossEnemyObject.obj
 0001:00014130       ??$construct@UPosition@@U1@@?$_Default_allocator_traits@V?$allocator@UPosition@@@std@@@std@@SAXAAV?$allocator@UPosition@@@1@QAUPosition@@$$QAU3@@Z 00415130 f i BossEnemyObject.obj
 0001:00014180       ??$construct@VSimpleImage@@$$V@?$_Default_allocator_traits@V?$allocator@VSimpleImage@@@std@@@std@@SAXAAV?$allocator@VSimpleImage@@@1@QAVSimpleImage@@@Z 00415180 f i BossEnemyObject.obj
 0001:000141c0       ??$construct@VSimpleImage@@V1@@?$_Default_allocator_traits@V?$allocator@VSimpleImage@@@std@@@std@@SAXAAV?$allocator@VSimpleImage@@@1@QAVSimpleImage@@$$QAV3@@Z 004151c0 f i BossEnemyObject.obj
 0001:00014210       ??$destroy@UPosition@@@?$_Default_allocator_traits@V?$allocator@UPosition@@@std@@@std@@SAXAAV?$allocator@UPosition@@@1@QAUPosition@@@Z 00415210 f i BossEnemyObject.obj
 0001:00014220       ??$destroy@VSimpleImage@@@?$_Default_allocator_traits@V?$allocator@VSimpleImage@@@std@@@std@@SAXAAV?$allocator@VSimpleImage@@@1@QAVSimpleImage@@@Z 00415220 f i BossEnemyObject.obj
 0001:00014240       ??$emplace_back@UBullet@@@?$vector@UBullet@@V?$allocator@UBullet@@@std@@@std@@QAE?A_T$$QAUBullet@@@Z 00415240 f i BossEnemyObject.obj
 0001:000142c0       ??$forward@AAPAUPosition@@@std@@YAAAPAUPosition@@AAPAU1@@Z 004152c0 f i BossEnemyObject.obj
 0001:000142d0       ??$forward@PAPAUPosition@@@std@@YA$$QAPAPAUPosition@@AAPAPAU1@@Z 004152d0 f i BossEnemyObject.obj
 0001:000142e0       ??$forward@UBullet@@@std@@YA$$QAUBullet@@AAU1@@Z 004152e0 f i BossEnemyObject.obj
 0001:000142f0       ??$forward@UPosition@@@std@@YA$$QAUPosition@@AAU1@@Z 004152f0 f i BossEnemyObject.obj
 0001:00014300       ??$forward@VSimpleImage@@@std@@YA$$QAVSimpleImage@@AAV1@@Z 00415300 f i BossEnemyObject.obj
 0001:00014310       ??$move@AAPAVRawImageData@@@std@@YA$$QAPAVRawImageData@@AAPAV1@@Z 00415310 f i BossEnemyObject.obj
 0001:00014320       ??$move@AAPAV_Ref_count_base@std@@@std@@YA$$QAPAV_Ref_count_base@0@AAPAV10@@Z 00415320 f i BossEnemyObject.obj
 0001:00014330       ??$move@AAUBullet@@@std@@YA$$QAUBullet@@AAU1@@Z 00415330 f i BossEnemyObject.obj
 0001:00014340       ??$move@AAUPosition@@@std@@YA$$QAUPosition@@AAU1@@Z 00415340 f i BossEnemyObject.obj
 0001:00014350       ??$move@AAVSimpleImage@@@std@@YA$$QAVSimpleImage@@AAV1@@Z 00415350 f i BossEnemyObject.obj
 0001:00014360       ??$swap@PAVRawImageData@@$0A@@std@@YAXAAPAVRawImageData@@0@Z 00415360 f i BossEnemyObject.obj
 0001:000143b0       ??$swap@PAV_Ref_count_base@std@@$0A@@std@@YAXAAPAV_Ref_count_base@0@0@Z 004153b0 f i BossEnemyObject.obj
 0001:00014400       ??$uninitialized_copy@PAPAUPosition@@PAPAU1@@std@@YAPAPAUPosition@@QAPAU1@0PAPAU1@@Z 00415400 f i BossEnemyObject.obj
 0001:000144b0       ??0?$_Deque_unchecked_const_iterator@V?$_Deque_val@U?$_Deque_simple_types@UPosition@@@std@@@std@@@std@@QAE@IPBU_Container_base12@1@@Z 004154b0 f i BossEnemyObject.obj
 0001:000144e0       ??0?$_Deque_unchecked_iterator@V?$_Deque_val@U?$_Deque_simple_types@UPosition@@@std@@@std@@@std@@QAE@IPBU_Container_base12@1@@Z 004154e0 f i BossEnemyObject.obj
 0001:00014510       ??0?$_Deque_val@U?$_Deque_simple_types@UPosition@@@std@@@std@@QAE@XZ 00415510 f i BossEnemyObject.obj
 0001:00014560       ??0?$_Uninitialized_backout@PAPAUPosition@@@std@@QAE@PAPAUPosition@@@Z 00415560 f i BossEnemyObject.obj
 0001:00014590       ??0?$_Uninitialized_backout_al@V?$allocator@UBullet@@@std@@@std@@QAE@PAUBullet@@AAV?$allocator@UBullet@@@1@@Z 00415590 f i BossEnemyObject.obj
 0001:000145d0       ??0?$_Uninitialized_backout_al@V?$allocator@VSimpleImage@@@std@@@std@@QAE@PAVSimpleImage@@AAV?$allocator@VSimpleImage@@@1@@Z 004155d0 f i BossEnemyObject.obj
 0001:00014610       ??0?$_Vector_const_iterator@V?$_Vector_val@U?$_Simple_types@UBullet@@@std@@@std@@@std@@QAE@ABV01@@Z 00415610 f i BossEnemyObject.obj
 0001:00014650       ??0?$_Vector_const_iterator@V?$_Vector_val@U?$_Simple_types@UBullet@@@std@@@std@@@std@@QAE@PAUBullet@@PBU_Container_base12@1@@Z 00415650 f i BossEnemyObject.obj
 0001:00014690       ??0?$_Vector_iterator@V?$_Vector_val@U?$_Simple_types@UBullet@@@std@@@std@@@std@@QAE@ABV01@@Z 00415690 f i BossEnemyObject.obj
 0001:000146c0       ??0?$_Vector_iterator@V?$_Vector_val@U?$_Simple_types@UBullet@@@std@@@std@@@std@@QAE@PAUBullet@@PBU_Container_base12@1@@Z 004156c0 f i BossEnemyObject.obj
 0001:000146f0       ??0?$_Vector_val@U?$_Simple_types@UBullet@@@std@@@std@@QAE@XZ 004156f0 f i BossEnemyObject.obj
 0001:00014740       ??0?$allocator@UBullet@@@std@@QAE@XZ 00415740 f i BossEnemyObject.obj
 0001:00014760       ??0?$allocator@UPosition@@@std@@QAE@XZ 00415760 f i BossEnemyObject.obj
 0001:00014780       ??0?$deque@UPosition@@V?$allocator@UPosition@@@std@@@std@@QAE@XZ 00415780 f i BossEnemyObject.obj
 0001:000147d0       ??0?$queue@UPosition@@V?$deque@UPosition@@V?$allocator@UPosition@@@std@@@std@@@std@@QAE@XZ 004157d0 f i BossEnemyObject.obj
 0001:000147f0       ??0?$vector@UBullet@@V?$allocator@UBullet@@@std@@@std@@QAE@XZ 004157f0 f i BossEnemyObject.obj
 0001:00014870       ??1?$_Uninitialized_backout@PAPAUPosition@@@std@@QAE@XZ 00415870 f i BossEnemyObject.obj
 0001:000148a0       ??1?$_Uninitialized_backout_al@V?$allocator@UBullet@@@std@@@std@@QAE@XZ 004158a0 f i BossEnemyObject.obj
 0001:000148d0       ??1?$_Uninitialized_backout_al@V?$allocator@VSimpleImage@@@std@@@std@@QAE@XZ 004158d0 f i BossEnemyObject.obj
 0001:00014900       ??1?$_Vector_const_iterator@V?$_Vector_val@U?$_Simple_types@UBullet@@@std@@@std@@@std@@QAE@XZ 00415900 f i BossEnemyObject.obj
 0001:00014920       ??1?$_Vector_iterator@V?$_Vector_val@U?$_Simple_types@UBullet@@@std@@@std@@@std@@QAE@XZ 00415920 f i BossEnemyObject.obj
 0001:00014940       ??1?$deque@UPosition@@V?$allocator@UPosition@@@std@@@std@@QAE@XZ 00415940 f i BossEnemyObject.obj
 0001:000149b0       ??1?$queue@UPosition@@V?$deque@UPosition@@V?$allocator@UPosition@@@std@@@std@@@std@@QAE@XZ 004159b0 f i BossEnemyObject.obj
 0001:000149d0       ??1?$vector@UBullet@@V?$allocator@UBullet@@@std@@@std@@QAE@XZ 004159d0 f i BossEnemyObject.obj
 0001:00014a40       ??4?$shared_ptr@VRawImageData@@@std@@QAEAAV01@ABV01@@Z 00415a40 f i BossEnemyObject.obj
 0001:00014a80       ??4SimpleImage@@QAEAAV0@ABV0@@Z 00415a80 f i BossEnemyObject.obj
 0001:00014ad0       ??8?$_Vector_const_iterator@V?$_Vector_val@U?$_Simple_types@UBullet@@@std@@@std@@@std@@QBE_NABV01@@Z 00415ad0 f i BossEnemyObject.obj
 0001:00014b20       ??9?$_Vector_const_iterator@V?$_Vector_val@U?$_Simple_types@UBullet@@@std@@@std@@@std@@QBE_NABV01@@Z 00415b20 f i BossEnemyObject.obj
 0001:00014b70       ??A?$vector@VSimpleImage@@V?$allocator@VSimpleImage@@@std@@@std@@QAEAAVSimpleImage@@I@Z 00415b70 f i BossEnemyObject.obj
 0001:00014c20       ??D?$_Deque_unchecked_const_iterator@V?$_Deque_val@U?$_Deque_simple_types@UPosition@@@std@@@std@@@std@@QBEABUPosition@@XZ 00415c20 f i BossEnemyObject.obj
 0001:00014c80       ??D?$_Deque_unchecked_iterator@V?$_Deque_val@U?$_Deque_simple_types@UPosition@@@std@@@std@@@std@@QBEAAUPosition@@XZ 00415c80 f i BossEnemyObject.obj
 0001:00014ca0       ??D?$_Vector_const_iterator@V?$_Vector_val@U?$_Simple_types@UBullet@@@std@@@std@@@std@@QBEABUBullet@@XZ 00415ca0 f i BossEnemyObject.obj
 0001:00014db0       ??D?$_Vector_iterator@V?$_Vector_val@U?$_Simple_types@UBullet@@@std@@@std@@@std@@QBEAAUBullet@@XZ 00415db0 f i BossEnemyObject.obj
 0001:00014dd0       ??E?$_Vector_const_iterator@V?$_Vector_val@U?$_Simple_types@UBullet@@@std@@@std@@@std@@QAEAAV01@XZ 00415dd0 f i BossEnemyObject.obj
 0001:00014ee0       ??E?$_Vector_iterator@V?$_Vector_val@U?$_Simple_types@UBullet@@@std@@@std@@@std@@QAE?AV01@H@Z 00415ee0 f i BossEnemyObject.obj
 0001:00014f30       ??_GSimpleImage@@QAEPAXI@Z 00415f30 f i BossEnemyObject.obj
 0001:00014f70       ?_Calculate_growth@?$vector@UBullet@@V?$allocator@UBullet@@@std@@@std@@ABEII@Z 00415f70 f i BossEnemyObject.obj
 0001:00014fe0       ?_Calculate_growth@?$vector@VSimpleImage@@V?$allocator@VSimpleImage@@@std@@@std@@ABEII@Z 00415fe0 f i BossEnemyObject.obj
 0001:00015050       ?_Change_array@?$vector@UBullet@@V?$allocator@UBullet@@@std@@@std@@AAEXQAUBullet@@II@Z 00416050 f i BossEnemyObject.obj
 0001:00015120       ?_Change_array@?$vector@VSimpleImage@@V?$allocator@VSimpleImage@@@std@@@std@@AAEXQAVSimpleImage@@II@Z 00416120 f i BossEnemyObject.obj
 0001:000151f0       ?_Compat@?$_Vector_const_iterator@V?$_Vector_val@U?$_Simple_types@UBullet@@@std@@@std@@@std@@QBEXABV12@@Z 004161f0 f i BossEnemyObject.obj
 0001:00015290       ?_Destroy@?$vector@UBullet@@V?$allocator@UBullet@@@std@@@std@@AAEXPAUBullet@@0@Z 00416290 f i BossEnemyObject.obj
 0001:000152c0       ?_Destroy@?$vector@VSimpleImage@@V?$allocator@VSimpleImage@@@std@@@std@@AAEXPAVSimpleImage@@0@Z 004162c0 f i BossEnemyObject.obj
 0001:000152f0       ?_Get_data@?$deque@UPosition@@V?$allocator@UPosition@@@std@@@std@@AAEAAV?$_Deque_val@U?$_Deque_simple_types@UPosition@@@std@@@2@XZ 004162f0 f i BossEnemyObject.obj
 0001:00015310       ?_Get_data@?$deque@UPosition@@V?$allocator@UPosition@@@std@@@std@@ABEABV?$_Deque_val@U?$_Deque_simple_types@UPosition@@@std@@@2@XZ 00416310 f i BossEnemyObject.obj
 0001:00015330       ?_Get_first@?$_Compressed_pair@V?$allocator@UBullet@@@std@@V?$_Vector_val@U?$_Simple_types@UBullet@@@std@@@2@$00@std@@QAEAAV?$allocator@UBullet@@@2@XZ 00416330 f i BossEnemyObject.obj
 0001:00015350       ?_Get_first@?$_Compressed_pair@V?$allocator@UBullet@@@std@@V?$_Vector_val@U?$_Simple_types@UBullet@@@std@@@2@$00@std@@QBEABV?$allocator@UBullet@@@2@XZ 00416350 f i BossEnemyObject.obj
 0001:00015370       ?_Get_first@?$_Compressed_pair@V?$allocator@UPosition@@@std@@V?$_Deque_val@U?$_Deque_simple_types@UPosition@@@std@@@2@$00@std@@QAEAAV?$allocator@UPosition@@@2@XZ 00416370 f i BossEnemyObject.obj
 0001:00015390       ?_Get_first@?$_Compressed_pair@V?$allocator@UPosition@@@std@@V?$_Deque_val@U?$_Deque_simple_types@UPosition@@@std@@@2@$00@std@@QBEABV?$allocator@UPosition@@@2@XZ 00416390 f i BossEnemyObject.obj
 0001:000153b0       ?_Get_first@?$_Compressed_pair@V?$allocator@VSimpleImage@@@std@@V?$_Vector_val@U?$_Simple_types@VSimpleImage@@@std@@@2@$00@std@@QAEAAV?$allocator@VSimpleImage@@@2@XZ 004163b0 f i BossEnemyObject.obj
 0001:000153d0       ?_Get_first@?$_Compressed_pair@V?$allocator@VSimpleImage@@@std@@V?$_Vector_val@U?$_Simple_types@VSimpleImage@@@std@@@2@$00@std@@QBEABV?$allocator@VSimpleImage@@@2@XZ 004163d0 f i BossEnemyObject.obj
 0001:000153f0       ?_Getal@?$deque@UPosition@@V?$allocator@UPosition@@@std@@@std@@AAEAAV?$allocator@UPosition@@@2@XZ 004163f0 f i BossEnemyObject.obj
 0001:00015410       ?_Getal@?$deque@UPosition@@V?$allocator@UPosition@@@std@@@std@@ABEABV?$allocator@UPosition@@@2@XZ 00416410 f i BossEnemyObject.obj
 0001:00015430       ?_Getal@?$vector@UBullet@@V?$allocator@UBullet@@@std@@@std@@AAEAAV?$allocator@UBullet@@@2@XZ 00416430 f i BossEnemyObject.obj
 0001:00015450       ?_Getal@?$vector@UBullet@@V?$allocator@UBullet@@@std@@@std@@ABEABV?$allocator@UBullet@@@2@XZ 00416450 f i BossEnemyObject.obj
 0001:00015470       ?_Getal@?$vector@VSimpleImage@@V?$allocator@VSimpleImage@@@std@@@std@@AAEAAV?$allocator@VSimpleImage@@@2@XZ 00416470 f i BossEnemyObject.obj
 0001:00015490       ?_Getal@?$vector@VSimpleImage@@V?$allocator@VSimpleImage@@@std@@@std@@ABEABV?$allocator@VSimpleImage@@@2@XZ 00416490 f i BossEnemyObject.obj
 0001:000154b0       ?_Getblock@?$_Deque_val@U?$_Deque_simple_types@UPosition@@@std@@@std@@QBEII@Z 004164b0 f i BossEnemyObject.obj
 0001:000154e0       ?_Getblock@?$deque@UPosition@@V?$allocator@UPosition@@@std@@@std@@ABEII@Z 004164e0 f i BossEnemyObject.obj
 0001:00015510       ?_Growmap@?$deque@UPosition@@V?$allocator@UPosition@@@std@@@std@@AAEXI@Z 00416510 f i BossEnemyObject.obj
 0001:000157f0       ?_Map@?$deque@UPosition@@V?$allocator@UPosition@@@std@@@std@@AAEAAPAPAUPosition@@XZ 004167f0 f i BossEnemyObject.obj
 0001:00015810       ?_Mapsize@?$deque@UPosition@@V?$allocator@UPosition@@@std@@@std@@AAEAAIXZ 00416810 f i BossEnemyObject.obj
 0001:00015830       ?_Myoff@?$deque@UPosition@@V?$allocator@UPosition@@@std@@@std@@AAEAAIXZ 00416830 f i BossEnemyObject.obj
 0001:00015850       ?_Myoff@?$deque@UPosition@@V?$allocator@UPosition@@@std@@@std@@ABEABIXZ 00416850 f i BossEnemyObject.obj
 0001:00015870       ?_Mysize@?$deque@UPosition@@V?$allocator@UPosition@@@std@@@std@@AAEAAIXZ 00416870 f i BossEnemyObject.obj
 0001:00015890       ?_Mysize@?$deque@UPosition@@V?$allocator@UPosition@@@std@@@std@@ABEABIXZ 00416890 f i BossEnemyObject.obj
 0001:000158b0       ?_Orphan_all@?$deque@UPosition@@V?$allocator@UPosition@@@std@@@std@@AAEXXZ 004168b0 f i BossEnemyObject.obj
 0001:000158d0       ?_Orphan_off@?$deque@UPosition@@V?$allocator@UPosition@@@std@@@std@@ABEXI@Z 004168d0 f i BossEnemyObject.obj
 0001:000159d0       ?_Orphan_range@?$vector@UBullet@@V?$allocator@UBullet@@@std@@@std@@ABEXPAUBullet@@0@Z 004169d0 f i BossEnemyObject.obj
 0001:00015a00       ?_Orphan_range@?$vector@VSimpleImage@@V?$allocator@VSimpleImage@@@std@@@std@@ABEXPAVSimpleImage@@0@Z 00416a00 f i BossEnemyObject.obj
 0001:00015a30       ?_Orphan_range_locked@?$vector@UBullet@@V?$allocator@UBullet@@@std@@@std@@ABEXPAUBullet@@0@Z 00416a30 f i BossEnemyObject.obj
 0001:00015ac0       ?_Orphan_range_locked@?$vector@VSimpleImage@@V?$allocator@VSimpleImage@@@std@@@std@@ABEXPAVSimpleImage@@0@Z 00416ac0 f i BossEnemyObject.obj
 0001:00015b50       ?_Orphan_range_unlocked@?$vector@UBullet@@V?$allocator@UBullet@@@std@@@std@@ABEXPAUBullet@@0@Z 00416b50 f i BossEnemyObject.obj
 0001:00015be0       ?_Orphan_range_unlocked@?$vector@VSimpleImage@@V?$allocator@VSimpleImage@@@std@@@std@@ABEXPAVSimpleImage@@0@Z 00416be0 f i BossEnemyObject.obj
 0001:00015c70       ?_Release@?$_Uninitialized_backout@PAPAUPosition@@@std@@QAEPAPAUPosition@@XZ 00416c70 f i BossEnemyObject.obj
 0001:00015ca0       ?_Release@?$_Uninitialized_backout_al@V?$allocator@UBullet@@@std@@@std@@QAEPAUBullet@@XZ 00416ca0 f i BossEnemyObject.obj
 0001:00015cd0       ?_Release@?$_Uninitialized_backout_al@V?$allocator@VSimpleImage@@@std@@@std@@QAEPAVSimpleImage@@XZ 00416cd0 f i BossEnemyObject.obj
 0001:00015d00       ?_Swap@?$_Ptr_base@VRawImageData@@@std@@IAEXAAV12@@Z 00416d00 f i BossEnemyObject.obj
 0001:00015d40       ?_Tidy@?$deque@UPosition@@V?$allocator@UPosition@@@std@@@std@@AAEXXZ 00416d40 f i BossEnemyObject.obj
 0001:00015eb0       ?_Tidy@?$vector@UBullet@@V?$allocator@UBullet@@@std@@@std@@AAEXXZ 00416eb0 f i BossEnemyObject.obj
 0001:00015fb0       ?_Ufill@?$vector@VSimpleImage@@V?$allocator@VSimpleImage@@@std@@@std@@AAEPAVSimpleImage@@PAV3@IU_Value_init_tag@2@@Z 00416fb0 f i BossEnemyObject.obj
 0001:00015fe0       ?_Umove@?$vector@UBullet@@V?$allocator@UBullet@@@std@@@std@@AAEPAUBullet@@PAU3@00@Z 00416fe0 f i BossEnemyObject.obj
 0001:00016020       ?_Umove_if_noexcept1@?$vector@UBullet@@V?$allocator@UBullet@@@std@@@std@@AAEXPAUBullet@@00U?$integral_constant@_N$00@2@@Z 00417020 f i BossEnemyObject.obj
 0001:00016060       ?_Umove_if_noexcept1@?$vector@VSimpleImage@@V?$allocator@VSimpleImage@@@std@@@std@@AAEXPAVSimpleImage@@00U?$integral_constant@_N$00@2@@Z 00417060 f i BossEnemyObject.obj
 0001:000160a0       ?_Umove_if_noexcept@?$vector@UBullet@@V?$allocator@UBullet@@@std@@@std@@AAEXPAUBullet@@00@Z 004170a0 f i BossEnemyObject.obj
 0001:000160e0       ?_Umove_if_noexcept@?$vector@VSimpleImage@@V?$allocator@VSimpleImage@@@std@@@std@@AAEXPAVSimpleImage@@00@Z 004170e0 f i BossEnemyObject.obj
 0001:00016120       ?_Unchecked_begin@?$deque@UPosition@@V?$allocator@UPosition@@@std@@@std@@QAE?AV?$_Deque_unchecked_iterator@V?$_Deque_val@U?$_Deque_simple_types@UPosition@@@std@@@std@@@2@XZ 00417120 f i BossEnemyObject.obj
 0001:00016170       ?_Xlen@?$deque@UPosition@@V?$allocator@UPosition@@@std@@@std@@ABEXXZ 00417170 f i BossEnemyObject.obj
 0001:00016190       ?_Xlength@?$vector@UBullet@@V?$allocator@UBullet@@@std@@@std@@CAXXZ 00417190 f i BossEnemyObject.obj
 0001:000161b0       ?_Xlength@?$vector@VSimpleImage@@V?$allocator@VSimpleImage@@@std@@@std@@CAXXZ 004171b0 f i BossEnemyObject.obj
 0001:000161d0       ?allocate@?$allocator@PAUPosition@@@std@@QAEPAPAUPosition@@I@Z 004171d0 f i BossEnemyObject.obj
 0001:00016200       ?allocate@?$allocator@UBullet@@@std@@QAEPAUBullet@@I@Z 00417200 f i BossEnemyObject.obj
 0001:00016230       ?allocate@?$allocator@UPosition@@@std@@QAEPAUPosition@@I@Z 00417230 f i BossEnemyObject.obj
 0001:00016260       ?allocate@?$allocator@VSimpleImage@@@std@@QAEPAVSimpleImage@@I@Z 00417260 f i BossEnemyObject.obj
 0001:00016290       ?begin@?$vector@UBullet@@V?$allocator@UBullet@@@std@@@std@@QAE?AV?$_Vector_iterator@V?$_Vector_val@U?$_Simple_types@UBullet@@@std@@@std@@@2@XZ 00417290 f i BossEnemyObject.obj
 0001:000162e0       ?capacity@?$vector@UBullet@@V?$allocator@UBullet@@@std@@@std@@QBEIXZ 004172e0 f i BossEnemyObject.obj
 0001:00016310       ?capacity@?$vector@VSimpleImage@@V?$allocator@VSimpleImage@@@std@@@std@@QBEIXZ 00417310 f i BossEnemyObject.obj
 0001:00016340       ?deallocate@?$allocator@PAUPosition@@@std@@QAEXQAPAUPosition@@I@Z 00417340 f i BossEnemyObject.obj
 0001:00016370       ?deallocate@?$allocator@UBullet@@@std@@QAEXQAUBullet@@I@Z 00417370 f i BossEnemyObject.obj
 0001:000163a0       ?deallocate@?$allocator@UPosition@@@std@@QAEXQAUPosition@@I@Z 004173a0 f i BossEnemyObject.obj
 0001:000163d0       ?deallocate@?$allocator@VSimpleImage@@@std@@QAEXQAVSimpleImage@@I@Z 004173d0 f i BossEnemyObject.obj
 0001:00016400       ?empty@?$deque@UPosition@@V?$allocator@UPosition@@@std@@@std@@QBE_NXZ 00417400 f i BossEnemyObject.obj
 0001:00016440       ?empty@?$queue@UPosition@@V?$deque@UPosition@@V?$allocator@UPosition@@@std@@@std@@@std@@QBE_NXZ 00417440 f i BossEnemyObject.obj
 0001:00016460       ?end@?$vector@UBullet@@V?$allocator@UBullet@@@std@@@std@@QAE?AV?$_Vector_iterator@V?$_Vector_val@U?$_Simple_types@UBullet@@@std@@@std@@@2@XZ 00417460 f i BossEnemyObject.obj
 0001:000164b0       ?front@?$deque@UPosition@@V?$allocator@UPosition@@@std@@@std@@QAEAAUPosition@@XZ 004174b0 f i BossEnemyObject.obj
 0001:00016550       ?front@?$queue@UPosition@@V?$deque@UPosition@@V?$allocator@UPosition@@@std@@@std@@@std@@QAEAAUPosition@@XZ 00417550 f i BossEnemyObject.obj
 0001:00016570       ?getDrawHeight@DisplayableObject@@QBEHXZ 00417570 f i BossEnemyObject.obj
 0001:00016590       ?getDrawWidth@DisplayableObject@@QBEHXZ 00417590 f i BossEnemyObject.obj
 0001:000165b0       ?max_size@?$_Default_allocator_traits@V?$allocator@UBullet@@@std@@@std@@SAIABV?$allocator@UBullet@@@2@@Z 004175b0 f i BossEnemyObject.obj
 0001:000165c0       ?max_size@?$_Default_allocator_traits@V?$allocator@UPosition@@@std@@@std@@SAIABV?$allocator@UPosition@@@2@@Z 004175c0 f i BossEnemyObject.obj
 0001:000165d0       ?max_size@?$_Default_allocator_traits@V?$allocator@VSimpleImage@@@std@@@std@@SAIABV?$allocator@VSimpleImage@@@2@@Z 004175d0 f i BossEnemyObject.obj
 0001:000165e0       ?max_size@?$deque@UPosition@@V?$allocator@UPosition@@@std@@@std@@QBEIXZ 004175e0 f i BossEnemyObject.obj
 0001:00016630       ?max_size@?$vector@UBullet@@V?$allocator@UBullet@@@std@@@std@@QBEIXZ 00417630 f i BossEnemyObject.obj
 0001:00016680       ?max_size@?$vector@VSimpleImage@@V?$allocator@VSimpleImage@@@std@@@std@@QBEIXZ 00417680 f i BossEnemyObject.obj
 0001:000166d0       ?pop@?$queue@UPosition@@V?$deque@UPosition@@V?$allocator@UPosition@@@std@@@std@@@std@@QAEXXZ 004176d0 f i BossEnemyObject.obj
 0001:000166f0       ?pop_back@?$deque@UPosition@@V?$allocator@UPosition@@@std@@@std@@QAEXXZ 004176f0 f i BossEnemyObject.obj
 0001:00016880       ?pop_front@?$deque@UPosition@@V?$allocator@UPosition@@@std@@@std@@QAEXXZ 00417880 f i BossEnemyObject.obj
 0001:00016a30       ?push@?$queue@UPosition@@V?$deque@UPosition@@V?$allocator@UPosition@@@std@@@std@@@std@@QAEX$$QAUPosition@@@Z 00417a30 f i BossEnemyObject.obj
 0001:00016a60       ?push_back@?$deque@UPosition@@V?$allocator@UPosition@@@std@@@std@@QAEX$$QAUPosition@@@Z 00417a60 f i BossEnemyObject.obj
 0001:00016aa0       ?push_back@?$vector@UBullet@@V?$allocator@UBullet@@@std@@@std@@QAEX$$QAUBullet@@@Z 00417aa0 f i BossEnemyObject.obj
 0001:00016ad0       ?resize@?$vector@VSimpleImage@@V?$allocator@VSimpleImage@@@std@@@std@@QAEXI@Z 00417ad0 f i BossEnemyObject.obj
 0001:00016b00       ?setSize@ImageContainer@@QAEXH@Z 00417b00 f i BossEnemyObject.obj
 0001:00016b20       ?storeImage@ImageContainer@@QAEXHVSimpleImage@@@Z 00417b20 f i BossEnemyObject.obj
 0001:00016b60       ?swap@?$shared_ptr@VRawImageData@@@std@@QAEXAAV12@@Z 00417b60 f i BossEnemyObject.obj
 0001:00016b80       ?virtDraw@BulletObject@@UAEXXZ 00417b80 f   BulletObject.obj
 0001:00016c40       ?virtDoUpdate@BulletObject@@UAEXH@Z 00417c40 f   BulletObject.obj
 0001:00016cc0       ?loadObjectImages@BulletObject@@UAEXXZ 00417cc0 f   BulletObject.obj
 0001:00016dd0       ?getObjectPixelMap@BulletObject@@UAE?AV?$vector@V?$vector@HV?$allocator@H@std@@@std@@V?$allocator@V?$vector@HV?$allocator@H@std@@@std@@@2@@std@@XZ 00417dd0 f   BulletObject.obj
 0001:00016f40       ??6@YAAAV?$basic_ostream@DU?$char_traits@D@std@@@std@@AAV01@AAVBulletObject@@@Z 00417f40 f   BulletObject.obj
 0001:00016fb0       ?checkCollisionWithTiles@BulletObject@@AAE_NXZ 00417fb0 f   BulletObject.obj
 0001:00017300       ?getDrawingRegionRight@DisplayableObject@@QBEHXZ 00418300 f i BulletObject.obj
 0001:00017330       ?getWindowWidth@BaseEngine@@QBEHXZ 00418330 f i BulletObject.obj
 0001:00017350       ?virtSetupBackgroundBuffer@DraggingDemo@@UAEXXZ 00418350 f   DraggingDemo.obj
 0001:00017490       ?virtInitialiseObjects@DraggingDemo@@UAEHXZ 00418490 f   DraggingDemo.obj
 0001:000176e0       ?virtKeyDown@DraggingDemo@@UAEXH@Z 004186e0 f   DraggingDemo.obj
 0001:00017800       ??$_Copy_memmove@PAPAVDisplayableObject@@PAPAV1@@std@@YAPAPAVDisplayableObject@@PAPAV1@00@Z 00418800 f i DraggingDemo.obj
 0001:00017890       ??$_Destroy_range@V?$allocator@PAVDisplayableObject@@@std@@@std@@YAXPAPAVDisplayableObject@@QAPAV1@AAV?$allocator@PAVDisplayableObject@@@0@@Z 00418890 f i DraggingDemo.obj
 0001:000178a0       ??$_Emplace_back@$$V@?$_Uninitialized_backout_al@V?$allocator@PAVDisplayableObject@@@std@@@std@@QAEXXZ 004188a0 f i DraggingDemo.obj
 0001:000178f0       ??$_Emplace_back@PAVDisplayableObject@@@?$_Uninitialized_backout_al@V?$allocator@PAVDisplayableObject@@@std@@@std@@QAEX$$QAPAVDisplayableObject@@@Z 004188f0 f i DraggingDemo.obj
 0001:00017950       ??$_Get_unwrapped@ABQAPAVDisplayableObject@@@std@@YA?A_TABQAPAVDisplayableObject@@@Z 00418950 f i DraggingDemo.obj
 0001:00017960       ??$_Resize@U_Value_init_tag@std@@@?$vector@PAVDisplayableObject@@V?$allocator@PAVDisplayableObject@@@std@@@std@@AAEXIABU_Value_init_tag@1@@Z 00418960 f i DraggingDemo.obj
 0001:00017a80       ??$_Resize_reallocate@U_Value_init_tag@std@@@?$vector@PAVDisplayableObject@@V?$allocator@PAVDisplayableObject@@@std@@@std@@AAEXIABU_Value_init_tag@1@@Z 00418a80 f i DraggingDemo.obj
 0001:00017c30       ??$_To_address@PAPAVDisplayableObject@@@std@@YA?A_PABQAPAVDisplayableObject@@@Z 00418c30 f i DraggingDemo.obj
 0001:00017c40       ??$_Unfancy@PAVDisplayableObject@@@std@@YAPAPAVDisplayableObject@@PAPAV1@@Z 00418c40 f i DraggingDemo.obj
 0001:00017c50       ??$_Uninitialized_move@PAPAVDisplayableObject@@V?$allocator@PAVDisplayableObject@@@std@@@std@@YAPAPAVDisplayableObject@@QAPAV1@0PAPAV1@AAV?$allocator@PAVDisplayableObject@@@0@@Z 00418c50 f i DraggingDemo.obj
 0001:00017d70       ??$_Uninitialized_value_construct_n@V?$allocator@PAVDisplayableObject@@@std@@@std@@YAPAPAVDisplayableObject@@PAPAV1@IAAV?$allocator@PAVDisplayableObject@@@0@@Z 00418d70 f i DraggingDemo.obj
 0001:00017e50       ??$_Voidify_iter@PAPAVDisplayableObject@@@std@@YAPAXPAPAVDisplayableObject@@@Z 00418e50 f i DraggingDemo.obj
 0001:00017e60       ??$_Zero_range@PAPAVDisplayableObject@@@std@@YAPAPAVDisplayableObject@@QAPAV1@0@Z 00418e60 f i DraggingDemo.obj
 0001:00017eb0       ??$construct@PAVDisplayableObject@@$$V@?$_Default_allocator_traits@V?$allocator@PAVDisplayableObject@@@std@@@std@@SAXAAV?$allocator@PAVDisplayableObject@@@1@QAPAVDisplayableObject@@@Z 00418eb0 f i DraggingDemo.obj
 0001:00017f00       ??$construct@PAVDisplayableObject@@PAV1@@?$_Default_allocator_traits@V?$allocator@PAVDisplayableObject@@@std@@@std@@SAXAAV?$allocator@PAVDisplayableObject@@@1@QAPAVDisplayableObject@@$$QAPAV3@@Z 00418f00 f i DraggingDemo.obj
 0001:00017f50       ??$forward@PAVDisplayableObject@@@std@@YA$$QAPAVDisplayableObject@@AAPAV1@@Z 00418f50 f i DraggingDemo.obj
 0001:00017f60       ??$move@AAPAVDisplayableObject@@@std@@YA$$QAPAVDisplayableObject@@AAPAV1@@Z 00418f60 f i DraggingDemo.obj
 0001:00017f70       ??0?$_Uninitialized_backout_al@V?$allocator@PAVDisplayableObject@@@std@@@std@@QAE@PAPAVDisplayableObject@@AAV?$allocator@PAVDisplayableObject@@@1@@Z 00418f70 f i DraggingDemo.obj
 0001:00017fb0       ??0DragableBaseClassObject@@QAE@HHPAVBaseEngine@@HH_N@Z 00418fb0 f i DraggingDemo.obj
 0001:00018040       ??0DragableBaseClassObject@@QAE@PAVBaseEngine@@HH_N@Z 00419040 f i DraggingDemo.obj
 0001:000180c0       ??0DragableImageObject@@QAE@HHPAVBaseEngine@@V?$basic_string@DU?$char_traits@D@std@@V?$allocator@D@2@@std@@_N2@Z 004190c0 f i DraggingDemo.obj
 0001:00018260       ??0DragableObject@@QAE@HHPAVBaseEngine@@HH_N1@Z 00419260 f i DraggingDemo.obj
 0001:00018310       ??0DragableObject@@QAE@PAVBaseEngine@@HH_N1@Z 00419310 f i DraggingDemo.obj
 0001:000183c0       ??0ImageObject@@QAE@HHPAVBaseEngine@@V?$basic_string@DU?$char_traits@D@std@@V?$allocator@D@2@@std@@_N2@Z 004193c0 f i DraggingDemo.obj
 0001:00018550       ??1?$_Uninitialized_backout_al@V?$allocator@PAVDisplayableObject@@@std@@@std@@QAE@XZ 00419550 f i DraggingDemo.obj
 0001:00018580       ??1DragableBaseClassObject@@UAE@XZ 00419580 f i DraggingDemo.obj
 0001:000185a0       ??1DragableImageObject@@UAE@XZ 004195a0 f i DraggingDemo.obj
 0001:000185d0       ??1DragableObject@@UAE@XZ  004195d0 f i DraggingDemo.obj
 0001:000185f0       ??1ImageObject@@UAE@XZ     004195f0 f i DraggingDemo.obj
 0001:00018620       ??A?$vector@PAVDisplayableObject@@V?$allocator@PAVDisplayableObject@@@std@@@std@@QAEAAPAVDisplayableObject@@I@Z 00419620 f i DraggingDemo.obj
 0001:000186d0       ??_GDragableBaseClassObject@@UAEPAXI@Z 004196d0 f i DraggingDemo.obj
 0001:000186d0       ??_EDragableBaseClassObject@@UAEPAXI@Z 004196d0 f i DraggingDemo.obj
 0001:00018710       ??_EDragableImageObject@@UAEPAXI@Z 00419710 f i DraggingDemo.obj
 0001:00018710       ??_GDragableImageObject@@UAEPAXI@Z 00419710 f i DraggingDemo.obj
 0001:00018750       ??_GDragableObject@@UAEPAXI@Z 00419750 f i DraggingDemo.obj
 0001:00018750       ??_EDragableObject@@UAEPAXI@Z 00419750 f i DraggingDemo.obj
 0001:00018790       ??_EImageObject@@UAEPAXI@Z 00419790 f i DraggingDemo.obj
 0001:00018790       ??_GImageObject@@UAEPAXI@Z 00419790 f i DraggingDemo.obj
 0001:000187d0       ?_Calculate_growth@?$vector@PAVDisplayableObject@@V?$allocator@PAVDisplayableObject@@@std@@@std@@ABEII@Z 004197d0 f i DraggingDemo.obj
 0001:00018840       ?_Change_array@?$vector@PAVDisplayableObject@@V?$allocator@PAVDisplayableObject@@@std@@@std@@AAEXQAPAVDisplayableObject@@II@Z 00419840 f i DraggingDemo.obj
 0001:00018910       ?_Destroy@?$vector@PAVDisplayableObject@@V?$allocator@PAVDisplayableObject@@@std@@@std@@AAEXPAPAVDisplayableObject@@0@Z 00419910 f i DraggingDemo.obj
 0001:00018940       ?_Get_first@?$_Compressed_pair@V?$allocator@PAVDisplayableObject@@@std@@V?$_Vector_val@U?$_Simple_types@PAVDisplayableObject@@@std@@@2@$00@std@@QAEAAV?$allocator@PAVDisplayableObject@@@2@XZ 00419940 f i DraggingDemo.obj
 0001:00018960       ?_Get_first@?$_Compressed_pair@V?$allocator@PAVDisplayableObject@@@std@@V?$_Vector_val@U?$_Simple_types@PAVDisplayableObject@@@std@@@2@$00@std@@QBEABV?$allocator@PAVDisplayableObject@@@2@XZ 00419960 f i DraggingDemo.obj
 0001:00018980       ?_Getal@?$vector@PAVDisplayableObject@@V?$allocator@PAVDisplayableObject@@@std@@@std@@AAEAAV?$allocator@PAVDisplayableObject@@@2@XZ 00419980 f i DraggingDemo.obj
 0001:000189a0       ?_Getal@?$vector@PAVDisplayableObject@@V?$allocator@PAVDisplayableObject@@@std@@@std@@ABEABV?$allocator@PAVDisplayableObject@@@2@XZ 004199a0 f i DraggingDemo.obj
 0001:000189c0       ?_Orphan_range@?$vector@PAVDisplayableObject@@V?$allocator@PAVDisplayableObject@@@std@@@std@@ABEXPAPAVDisplayableObject@@0@Z 004199c0 f i DraggingDemo.obj
 0001:000189f0       ?_Orphan_range_locked@?$vector@PAVDisplayableObject@@V?$allocator@PAVDisplayableObject@@@std@@@std@@ABEXPAPAVDisplayableObject@@0@Z 004199f0 f i DraggingDemo.obj
 0001:00018a80       ?_Orphan_range_unlocked@?$vector@PAVDisplayableObject@@V?$allocator@PAVDisplayableObject@@@std@@@std@@ABEXPAPAVDisplayableObject@@0@Z 00419a80 f i DraggingDemo.obj
 0001:00018b10       ?_Release@?$_Uninitialized_backout_al@V?$allocator@PAVDisplayableObject@@@std@@@std@@QAEPAPAVDisplayableObject@@XZ 00419b10 f i DraggingDemo.obj
 0001:00018b40       ?_Ufill@?$vector@PAVDisplayableObject@@V?$allocator@PAVDisplayableObject@@@std@@@std@@AAEPAPAVDisplayableObject@@PAPAV3@IU_Value_init_tag@2@@Z 00419b40 f i DraggingDemo.obj
 0001:00018b70       ?_Umove_if_noexcept1@?$vector@PAVDisplayableObject@@V?$allocator@PAVDisplayableObject@@@std@@@std@@AAEXPAPAVDisplayableObject@@00U?$integral_constant@_N$00@2@@Z 00419b70 f i DraggingDemo.obj
 0001:00018bb0       ?_Umove_if_noexcept@?$vector@PAVDisplayableObject@@V?$allocator@PAVDisplayableObject@@@std@@@std@@AAEXPAPAVDisplayableObject@@00@Z 00419bb0 f i DraggingDemo.obj
 0001:00018bf0       ?_Xlength@?$vector@PAVDisplayableObject@@V?$allocator@PAVDisplayableObject@@@std@@@std@@CAXXZ 00419bf0 f i DraggingDemo.obj
 0001:00018c10       ?allocate@?$allocator@PAVDisplayableObject@@@std@@QAEPAPAVDisplayableObject@@I@Z 00419c10 f i DraggingDemo.obj
 0001:00018c40       ?capacity@?$vector@PAVDisplayableObject@@V?$allocator@PAVDisplayableObject@@@std@@@std@@QBEIXZ 00419c40 f i DraggingDemo.obj
 0001:00018c70       ?checkDoDrag@DragableBaseClassObject@@UAEXHH@Z 00419c70 f i DraggingDemo.obj
 0001:00018cf0       ?checkFinishDrag@DragableBaseClassObject@@UAEXHH@Z 00419cf0 f i DraggingDemo.obj
 0001:00018d30       ?checkStartDrag@DragableBaseClassObject@@UAEXHH@Z 00419d30 f i DraggingDemo.obj
 0001:00018db0       ?checkWritable@DrawingSurface@@QAEXXZ 00419db0 f i DraggingDemo.obj
 0001:00018e00       ?createObjectArray@DisplayableObjectContainer@@QAEXH@Z 00419e00 f i DraggingDemo.obj
 0001:00018e50       ?deallocate@?$allocator@PAVDisplayableObject@@@std@@QAEXQAPAVDisplayableObject@@I@Z 00419e50 f i DraggingDemo.obj
 0001:00018e80       ?deleteOnRemoval@DisplayableObject@@UBE_NXZ 00419e80 f i DraggingDemo.obj
 0001:00018ea0       ?doDragRedraw@DragableBaseClassObject@@UAEXXZ 00419ea0 f i DraggingDemo.obj
 0001:00018ec0       ?drawableObjectsChanged@DisplayableObjectContainer@@QAEXXZ 00419ec0 f i DraggingDemo.obj
 0001:00018ee0       ?getIntsPerWindowRow@DrawingSurface@@QBEIXZ 00419ee0 f i DraggingDemo.obj
 0001:00018f00       ?getSurfaceHeight@DrawingSurface@@QBEHXZ 00419f00 f i DraggingDemo.obj
 0001:00018f20       ?getSurfaceWidth@DrawingSurface@@QBEHXZ 00419f20 f i DraggingDemo.obj
 0001:00018f40       ?getWindowHeight@BaseEngine@@QBEHXZ 00419f40 f i DraggingDemo.obj
 0001:00018f60       ?isVisible@DisplayableObject@@QBE_NXZ 00419f60 f i DraggingDemo.obj
 0001:00018f80       ?max_size@?$_Default_allocator_traits@V?$allocator@PAVDisplayableObject@@@std@@@std@@SAIABV?$allocator@PAVDisplayableObject@@@2@@Z 00419f80 f i DraggingDemo.obj
 0001:00018f90       ?max_size@?$vector@PAVDisplayableObject@@V?$allocator@PAVDisplayableObject@@@std@@@std@@QBEIXZ 00419f90 f i DraggingDemo.obj
 0001:00018fe0       ?notifyObjectsAboutMouse@BaseEngine@@QAEX_N@Z 00419fe0 f i DraggingDemo.obj
 0001:00019000       ?rawSetPixel@DrawingSurface@@QAEXHHI@Z 0041a000 f i DraggingDemo.obj
 0001:000190b0       ?resize@?$vector@PAVDisplayableObject@@V?$allocator@PAVDisplayableObject@@@std@@@std@@QAEXI@Z 0041a0b0 f i DraggingDemo.obj
 0001:000190e0       ?setBackgroundPixel@BaseEngine@@QAEXHHI@Z 0041a0e0 f i DraggingDemo.obj
 0001:00019110       ?setExitWithCode@BaseEngine@@QAEXH@Z 0041a110 f i DraggingDemo.obj
 0001:00019130       ?setPixel@DrawingSurface@@QAEXHHI@Z 0041a130 f i DraggingDemo.obj
 0001:000191a0       ?setPosition@DisplayableObject@@UAEXHH@Z 0041a1a0 f i DraggingDemo.obj
 0001:000191e0       ?setVisible@DisplayableObject@@QAEX_N@Z 0041a1e0 f i DraggingDemo.obj
 0001:00019200       ?storeObjectInArray@DisplayableObjectContainer@@QAEXHPAVDisplayableObject@@@Z 0041a200 f i DraggingDemo.obj
 0001:00019240       ?virtDraw@DragableImageObject@@UAEXXZ 0041a240 f i DraggingDemo.obj
 0001:000192c0       ?virtDraw@ImageObject@@UAEXXZ 0041a2c0 f i DraggingDemo.obj
 0001:00019340       ?virtIsPositionWithinObject@DisplayableObject@@UAE_NHH@Z 0041a340 f i DraggingDemo.obj
 0001:000193d0       ?virtKeyDown@DisplayableObject@@UAEXH@Z 0041a3d0 f i DraggingDemo.obj
 0001:000193e0       ?virtKeyUp@DisplayableObject@@UAEXH@Z 0041a3e0 f i DraggingDemo.obj
 0001:000193f0       ?virtMouseDown@DisplayableObject@@UAEXHHH@Z 0041a3f0 f i DraggingDemo.obj
 0001:00019400       ?virtMouseDown@DragableImageObject@@UAEXHHH@Z 0041a400 f i DraggingDemo.obj
 0001:00019430       ?virtMouseDown@DragableObject@@UAEXHHH@Z 0041a430 f i DraggingDemo.obj
 0001:00019460       ?virtMouseMoved@DisplayableObject@@UAEXHH@Z 0041a460 f i DraggingDemo.obj
 0001:00019470       ?virtMouseMoved@DragableImageObject@@UAEXHH@Z 0041a470 f i DraggingDemo.obj
 0001:000194a0       ?virtMouseMoved@DragableObject@@UAEXHH@Z 0041a4a0 f i DraggingDemo.obj
 0001:000194d0       ?virtMouseUp@DisplayableObject@@UAEXHHH@Z 0041a4d0 f i DraggingDemo.obj
 0001:000194e0       ?virtMouseUp@DragableImageObject@@UAEXHHH@Z 0041a4e0 f i DraggingDemo.obj
 0001:00019510       ?virtMouseUp@DragableObject@@UAEXHHH@Z 0041a510 f i DraggingDemo.obj
 0001:00019550       ?virtNotify@DisplayableObject@@UAEJHHH@Z 0041a550 f i DraggingDemo.obj
 0001:00019570       ?virtSingleItemMouseDown@DisplayableObject@@UAE_NHHH@Z 0041a570 f i DraggingDemo.obj
 0001:00019590       ??0DrawingSurface@@QAE@PAVBaseEngine@@@Z 0041a590 f   DrawingSurface.obj
 0001:00019630       ?drawLine@DrawingSurface@@QAEXNNNNI@Z 0041a630 f   DrawingSurface.obj
 0001:00019810       ?drawThickLine@DrawingSurface@@QAEXNNNNIH@Z 0041a810 f   DrawingSurface.obj
 0001:00019cb0       ?drawVerticalSidedRegion@DrawingSurface@@QAEXNNNNNNI@Z 0041acb0 f   DrawingSurface.obj
 0001:0001a050       ?drawRectangle@DrawingSurface@@QAEXHHHHI@Z 0041b050 f   DrawingSurface.obj
 0001:0001a160       ?drawOval@DrawingSurface@@QAEXHHHHI@Z 0041b160 f   DrawingSurface.obj
 0001:0001a330       ?rawDrawOval@DrawingSurface@@QAEXHHHHI@Z 0041b330 f   DrawingSurface.obj
 0001:0001a490       ?drawHollowOval@DrawingSurface@@QAEXHHHHHHHHI@Z 0041b490 f   DrawingSurface.obj
 0001:0001a7b0       ?drawPolygon@DrawingSurface@@QAEXHPAN0I@Z 0041b7b0 f   DrawingSurface.obj
 0001:0001af30       ?drawFastString@DrawingSurface@@QAEXHHPBDIPAVFont@@@Z 0041bf30 f   DrawingSurface.obj
 0001:0001b020       ?drawScalableString@DrawingSurface@@QAEXHHPBDIPAVFont@@@Z 0041c020 f   DrawingSurface.obj
 0001:0001b1f0       ?drawShortenedArrow@DrawingSurface@@QAEXHHHHHHIHH@Z 0041c1f0 f   DrawingSurface.obj
 0001:0001b770       ?drawShortenedLine@DrawingSurface@@QAEXHHHHHHIH@Z 0041c770 f   DrawingSurface.obj
 0001:0001bb70       ?drawTriangle@DrawingSurface@@QAEXNNNNNNI@Z 0041cb70 f   DrawingSurface.obj
 0001:0001bec0       ?copyEntireSurface@DrawingSurface@@QAEXPAV1@@Z 0041cec0 f   DrawingSurface.obj
 0001:0001bf10       ?copyRectangleFrom@DrawingSurface@@QAEXPAV1@HHHHHH@Z 0041cf10 f   DrawingSurface.obj
 0001:0001c110       ?getAngle@DrawingSurface@@SANNNNN@Z 0041d110 f   DrawingSurface.obj
 0001:0001c1b0       ?getVirtualRedrawMinX@DrawingSurface@@QAEHXZ 0041d1b0 f   DrawingSurface.obj
 0001:0001c200       ?getVirtualRedrawMinY@DrawingSurface@@QAEHXZ 0041d200 f   DrawingSurface.obj
 0001:0001c250       ?getVirtualRedrawMaxX@DrawingSurface@@QAEHXZ 0041d250 f   DrawingSurface.obj
 0001:0001c2b0       ?getVirtualRedrawMaxY@DrawingSurface@@QAEHXZ 0041d2b0 f   DrawingSurface.obj
 0001:0001c310       ?getRealRedrawMinX@DrawingSurface@@QAEHXZ 0041d310 f   DrawingSurface.obj
 0001:0001c360       ?getRealRedrawMinY@DrawingSurface@@QAEHXZ 0041d360 f   DrawingSurface.obj
 0001:0001c3b0       ?getRealRedrawMaxX@DrawingSurface@@QAEHXZ 0041d3b0 f   DrawingSurface.obj
 0001:0001c400       ?getRealRedrawMaxY@DrawingSurface@@QAEHXZ 0041d400 f   DrawingSurface.obj
 0001:0001d000       ??$move@AAH@std@@YA$$QAHAAH@Z 0041e000 f i DrawingSurface.obj
 0001:0001d010       ??$move@AAN@std@@YA$$QANAAN@Z 0041e010 f i DrawingSurface.obj
 0001:0001d020       ??$swap@H$0A@@std@@YAXAAH0@Z 0041e020 f i DrawingSurface.obj
 0001:0001d070       ??$swap@N$0A@@std@@YAXAAN0@Z 0041e070 f i DrawingSurface.obj
 0001:0001d0d0       ?checkBlitable@DrawingSurface@@QAEXXZ 0041e0d0 f i DrawingSurface.obj
 0001:0001d120       ?convertRealToVirtualXPosition@DrawingSurface@@QAEHH@Z 0041e120 f i DrawingSurface.obj
 0001:0001d160       ?convertRealToVirtualYPosition@DrawingSurface@@QAEHH@Z 0041e160 f i DrawingSurface.obj
 0001:0001d1a0       ?getDefaultFont@BaseEngine@@QBEPAVFont@@XZ 0041e1a0 f i DrawingSurface.obj
 0001:0001d1c0       ?getRedrawAllScreen@BaseEngine@@QAEHXZ 0041e1c0 f i DrawingSurface.obj
 0001:0001d1e0       ?getRedrawRectRealBottom@BaseEngine@@QAEHXZ 0041e1e0 f i DrawingSurface.obj
 0001:0001d200       ?getRedrawRectRealLeft@BaseEngine@@QAEHXZ 0041e200 f i DrawingSurface.obj
 0001:0001d220       ?getRedrawRectRealRight@BaseEngine@@QAEHXZ 0041e220 f i DrawingSurface.obj
 0001:0001d240       ?getRedrawRectRealTop@BaseEngine@@QAEHXZ 0041e240 f i DrawingSurface.obj
 0001:0001d260       ?getRedrawRectVirtualBottom@BaseEngine@@QAEHXZ 0041e260 f i DrawingSurface.obj
 0001:0001d280       ?getRedrawRectVirtualLeft@BaseEngine@@QAEHXZ 0041e280 f i DrawingSurface.obj
 0001:0001d2a0       ?getRedrawRectVirtualRight@BaseEngine@@QAEHXZ 0041e2a0 f i DrawingSurface.obj
 0001:0001d2c0       ?getRedrawRectVirtualTop@BaseEngine@@QAEHXZ 0041e2c0 f i DrawingSurface.obj
 0001:0001d2e0       ?getTTFFont@Font@@QAEPAU_TTF_Font@@XZ 0041e2e0 f i DrawingSurface.obj
 0001:0001d300       ?mySDLTempRelockSurface@DrawingSurface@@QAEXXZ 0041e300 f i DrawingSurface.obj
 0001:0001d350       ?mySDLTempUnlockSurface@DrawingSurface@@QAEXXZ 0041e350 f i DrawingSurface.obj
 0001:0001d3a0       ?setDrawPointsFilter@DrawingSurface@@QAEXPAVFilterPoints@@@Z 0041e3a0 f i DrawingSurface.obj
 0001:0001d3c0       ?virtDoUpdate@EliteEnemyObject@@UAEXH@Z 0041e3c0 f   EliteEnemyObject.obj
 0001:0001d4a0       ?loadObjectImages@EliteEnemyObject@@UAEXXZ 0041e4a0 f   EliteEnemyObject.obj
 0001:0001d620       ??6@YAAAV?$basic_ostream@DU?$char_traits@D@std@@@std@@AAV01@AAVEliteEnemyObject@@@Z 0041e620 f   EliteEnemyObject.obj
 0001:0001d7f0       ??0FlashingDemo@@QAE@XZ    0041e7f0 f   FlashingDemo.obj
 0001:0001d8b0       ??1FlashingDemo@@UAE@XZ    0041e8b0 f   FlashingDemo.obj
 0001:0001d900       ?virtSetupBackgroundBuffer@FlashingDemo@@UAEXXZ 0041e900 f   FlashingDemo.obj
 0001:0001dd80       ?virtMainLoopDoBeforeUpdate@FlashingDemo@@UAEXXZ 0041ed80 f   FlashingDemo.obj
 0001:0001de40       ?virtCreateSurfaces@FlashingDemo@@UAEXXZ 0041ee40 f   FlashingDemo.obj
 0001:0001e060       ??1DrawingSurface@@QAE@XZ  0041f060 f i FlashingDemo.obj
 0001:0001e070       ??_GFlashingDemo@@UAEPAXI@Z 0041f070 f i FlashingDemo.obj
 0001:0001e070       ??_EFlashingDemo@@UAEPAXI@Z 0041f070 f i FlashingDemo.obj
 0001:0001e0b0       ?copyAllBackgroundBuffer@BaseEngine@@UAEXXZ 0041f0b0 f i FlashingDemo.obj
 0001:0001e0e0       ?copyBackgroundPixels@BaseEngine@@UAEXHHHH@Z 0041f0e0 f i FlashingDemo.obj
 0001:0001e130       ?createSurface@DrawingSurface@@QAEXHH@Z 0041f130 f i FlashingDemo.obj
 0001:0001e180       ?destroyOldObjects@DisplayableObjectContainer@@UAEX_N@Z 0041f180 f i FlashingDemo.obj
 0001:0001e270       ?fillBackground@BaseEngine@@UAEXI@Z 0041f270 f i FlashingDemo.obj
 0001:0001e2a0       ?fillSurface@DrawingSurface@@QAEXI@Z 0041f2a0 f i FlashingDemo.obj
 0001:0001e330       ?filter@BaseEngine@@UAE_NPAVDrawingSurface@@AAH1AAI@Z 0041f330 f i FlashingDemo.obj
 0001:0001e3f0       ?filterConvertRealToVirtualXPosition@FilterPoints@@UAEHH@Z 0041f3f0 f i FlashingDemo.obj
 0001:0001e410       ?filterConvertRealToVirtualYPosition@FilterPoints@@UAEHH@Z 0041f410 f i FlashingDemo.obj
 0001:0001e430       ?filterConvertVirtualToRealXPosition@FilterPoints@@UAEHH@Z 0041f430 f i FlashingDemo.obj
 0001:0001e450       ?filterConvertVirtualToRealYPosition@FilterPoints@@UAEHH@Z 0041f450 f i FlashingDemo.obj
 0001:0001e470       ?getModifiedTime@BaseEngine@@UBEHXZ 0041f470 f i FlashingDemo.obj
 0001:0001e4b0       ?mySDLLockSurface@DrawingSurface@@QAEXXZ 0041f4b0 f i FlashingDemo.obj
 0001:0001e500       ?mySDLUnlockSurface@DrawingSurface@@QAEXXZ 0041f500 f i FlashingDemo.obj
 0001:0001e550       ?redrawDisplay@BaseEngine@@QAEXXZ 0041f550 f i FlashingDemo.obj
 0001:0001e570       ?virtBackgroundMouseDown@BaseEngine@@UAEXHHHHH@Z 0041f570 f i FlashingDemo.obj
 0001:0001e580       ?virtMainLoopDoAfterUpdate@BaseEngine@@UAEXXZ 0041f580 f i FlashingDemo.obj
 0001:0001e590       ?virtMainLoopPostUpdate@BaseEngine@@UAEXXZ 0041f590 f i FlashingDemo.obj
 0001:0001e5a0       ?virtMainLoopPreUpdate@BaseEngine@@UAEXXZ 0041f5a0 f i FlashingDemo.obj
 0001:0001e5b0       ?virtMainLoopStartIteration@BaseEngine@@UAEXXZ 0041f5b0 f i FlashingDemo.obj
 0001:0001e5c0       ?virtMouseWheel@BaseEngine@@UAEXHHHH@Z 0041f5c0 f i FlashingDemo.obj
 0001:0001e5d0       ?virtPostDraw@BaseEngine@@UAEXXZ 0041f5d0 f i FlashingDemo.obj
 0001:0001e5e0       ?virtPreDraw@BaseEngine@@UAEXXZ 0041f5e0 f i FlashingDemo.obj
 0001:0001e5f0       ?virtRealMouseDown@BaseEngine@@UAEXHHH@Z 0041f5f0 f i FlashingDemo.obj
 0001:0001e600       ?virtRealMouseUp@BaseEngine@@UAEXHHH@Z 0041f600 f i FlashingDemo.obj
 0001:0001e610       ?virtTouchEvent@BaseEngine@@UAEXHH_J0MMMMM@Z 0041f610 f i FlashingDemo.obj
 0001:0001e620       ?virtInitialiseObjects@GameEngine@@UAEHXZ 0041f620 f   GameEngine.obj
 0001:0001e650       ?virtRenderScreen@GameEngine@@UAEXXZ 0041f650 f   GameEngine.obj
 0001:0001e7f0       ?virtSetupBackgroundBuffer@GameEngine@@UAEXXZ 0041f7f0 f   GameEngine.obj
 0001:0001e820       ?virtMainLoopDoBeforeUpdate@GameEngine@@UAEXXZ 0041f820 f   GameEngine.obj
 0001:0001e850       ?virtMainLoopDoAfterUpdate@GameEngine@@UAEXXZ 0041f850 f   GameEngine.obj
 0001:0001e880       ?copyAllBackgroundBuffer@GameEngine@@UAEXXZ 0041f880 f   GameEngine.obj
 0001:0001e8b0       ?virtCreateSurfaces@GameEngine@@UAEXXZ 0041f8b0 f   GameEngine.obj
 0001:0001e8e0       ?virtPreDraw@GameEngine@@UAEXXZ 0041f8e0 f   GameEngine.obj
 0001:0001e910       ?virtDrawStringsUnderneath@GameEngine@@UAEXXZ 0041f910 f   GameEngine.obj
 0001:0001e940       ?virtDrawStringsOnTop@GameEngine@@UAEXXZ 0041f940 f   GameEngine.obj
 0001:0001e970       ?virtPostDraw@GameEngine@@UAEXXZ 0041f970 f   GameEngine.obj
 0001:0001e9a0       ?virtKeyUp@GameEngine@@UAEXH@Z 0041f9a0 f   GameEngine.obj
 0001:0001e9d0       ?virtKeyDown@GameEngine@@UAEXH@Z 0041f9d0 f   GameEngine.obj
 0001:0001ea00       ?virtMouseMoved@GameEngine@@UAEXHH@Z 0041fa00 f   GameEngine.obj
 0001:0001ea30       ?virtMouseUp@GameEngine@@UAEXHHH@Z 0041fa30 f   GameEngine.obj
 0001:0001ea70       ?virtMouseDown@GameEngine@@UAEXHHH@Z 0041fa70 f   GameEngine.obj
 0001:0001eab0       ?virtMouseWheel@GameEngine@@UAEXHHHH@Z 0041fab0 f   GameEngine.obj
 0001:0001eaf0       ?clearTime@GameEngine@@QAEXXZ 0041faf0 f   GameEngine.obj
 0001:0001eb10       ?initializeTiles@GameEngine@@AAEXXZ 0041fb10 f   GameEngine.obj
 0001:0001ece0       ?mySDLUpdateTexture@DrawingSurface@@QAEXPAUSDL_Texture@@@Z 0041fce0 f i GameEngine.obj
 0001:0001ed20       ?setMapValue@TileManager@@QAEHHHH@Z 0041fd20 f i GameEngine.obj
 0001:0001ed60       ?setTopLeftPositionOnScreen@TileManager@@QAEXHH@Z 0041fd60 f i GameEngine.obj
 0001:0001ed90       ??0GameState@@QAE@PAVGameEngine@@_N@Z 0041fd90 f   GameState.obj
 0001:0001efd0       ??1GameState@@UAE@XZ       0041ffd0 f   GameState.obj
 0001:0001f050       ?drawObjects@GameState@@UAEXXZ 00420050 f   GameState.obj
 0001:0001f080       ?virtSetupBackgroundBuffer@GameState@@UAEXXZ 00420080 f   GameState.obj
 0001:0001f170       ?virtMainLoopDoAfterUpdate@GameState@@UAEXXZ 00420170 f   GameState.obj
 0001:0001f1e0       ?virtDrawStringsUnderneath@GameState@@UAEXXZ 004201e0 f   GameState.obj
 0001:0001f3a0       ?virtDrawStringsOnTop@GameState@@UAEXXZ 004203a0 f   GameState.obj
 0001:0001f520       ?virtKeyDown@GameState@@UAEXH@Z 00420520 f   GameState.obj
 0001:0001f6a0       ?virtMouseDown@GameState@@UAEXHHH@Z 004206a0 f   GameState.obj
 0001:0001f850       ?virtPreDraw@GameState@@UAEXXZ 00420850 f   GameState.obj
 0001:0001f930       ?getGameTilePixelMap@GameState@@QAE?AV?$vector@V?$vector@HV?$allocator@H@std@@@std@@V?$allocator@V?$vector@HV?$allocator@H@std@@@std@@@2@@std@@XZ 00420930 f   GameState.obj
 0001:0001fa10       ?removeBulletObject@GameState@@QAEXPAVDisplayableObject@@@Z 00420a10 f   GameState.obj
 0001:0001fa70       ?saveGame@GameState@@AAEXXZ 00420a70 f   GameState.obj
 0001:0001faa0       ?saveGameState@GameState@@AAEXXZ 00420aa0 f   GameState.obj
 0001:0001fbe0       ?loadGameImages@GameState@@AAEXXZ 00420be0 f   GameState.obj
 0001:0001fcf0       ?loadUserObject@GameState@@AAEX_N@Z 00420cf0 f   GameState.obj
 0001:0001fee0       ?saveUserObject@GameState@@AAEXXZ 00420ee0 f   GameState.obj
 0001:0001ffa0       ?loadBulletObjects@GameState@@AAEX_N@Z 00420fa0 f   GameState.obj
 0001:000200f0       ?saveBulletObjects@GameState@@AAEXXZ 004210f0 f   GameState.obj
 0001:000201e0       ?destoryAllObjects@GameState@@AAEXXZ 004211e0 f   GameState.obj
 0001:00020230       ?createMap@GameState@@AAEXXZ 00421230 f   GameState.obj
 0001:00020280       ?createLevelOneMap@GameState@@AAEXXZ 00421280 f   GameState.obj
 0001:00020490       ?createLevelTwoMap@GameState@@AAEXXZ 00421490 f   GameState.obj
 0001:000206e0       ?createLevelThreeMap@GameState@@AAEXXZ 004216e0 f   GameState.obj
 0001:00020a40       ?loadEnemyObjects@GameState@@AAEX_N@Z 00421a40 f   GameState.obj
 0001:00020aa0       ?saveEnemyObjects@GameState@@AAEXXZ 00421aa0 f   GameState.obj
 0001:00020af0       ?loadLevelOneEnemyObjects@GameState@@AAEX_N@Z 00421af0 f   GameState.obj
 0001:000211a0       ?saveLevelOneEnemyObjects@GameState@@AAEXXZ 004221a0 f   GameState.obj
 0001:00021280       ?loadLevelTwoEnemyObjects@GameState@@AAEX_N@Z 00422280 f   GameState.obj
 0001:00021960       ?saveLevelTwoEnemyObjects@GameState@@AAEXXZ 00422960 f   GameState.obj
 0001:00021a90       ?loadLevelThreeEnemyObjects@GameState@@AAEX_N@Z 00422a90 f   GameState.obj
 0001:00022210       ?saveLevelThreeEnemyObjects@GameState@@AAEXXZ 00423210 f   GameState.obj
 0001:00022320       ?drawUser@GameState@@AAEXXZ 00423320 f   GameState.obj
 0001:000224e0       ?updateUser@GameState@@AAEXH@Z 004234e0 f   GameState.obj
 0001:000226b0       ?drawEnemies@GameState@@AAEXXZ 004236b0 f   GameState.obj
 0001:00022870       ?updateEnemies@GameState@@AAEXH@Z 00423870 f   GameState.obj
 0001:00022a40       ?drawBullets@GameState@@AAEXXZ 00423a40 f   GameState.obj
 0001:00022c00       ?updateBullets@GameState@@AAEXH@Z 00423c00 f   GameState.obj
 0001:00022dd0       ?gameWin@GameState@@AAEXXZ 00423dd0 f   GameState.obj
 0001:00022eb0       ?gameFail@GameState@@AAEXXZ 00423eb0 f   GameState.obj
 0001:00022f90       ?saveRecord@GameState@@AAEXXZ 00423f90 f   GameState.obj
 0001:00024110       ??$?0$$V@?$_Compressed_pair@V?$allocator@V?$vector@HV?$allocator@H@std@@@std@@@std@@V?$_Vector_val@U?$_Simple_types@V?$vector@HV?$allocator@H@std@@@std@@@std@@@2@$00@std@@QAE@U_Zero_then_variadic_args_t@1@@Z 00425110 f i GameState.obj
 0001:00024140       ??$?0AAPAV_Facet_base@std@@@?$_Compressed_pair@U?$default_delete@V_Facet_base@std@@@std@@PAV_Facet_base@2@$00@std@@QAE@U_Zero_then_variadic_args_t@1@AAPAV_Facet_base@1@@Z 00425140 f i GameState.obj
 0001:00024170       ??$?0ABV?$allocator@PAVDisplayableObject@@@std@@$$V@?$_Compressed_pair@V?$allocator@PAVDisplayableObject@@@std@@V?$_Vector_val@U?$_Simple_types@PAVDisplayableObject@@@std@@@2@$00@std@@QAE@U_One_then_variadic_args_t@1@ABV?$allocator@PAVDisplayableObject@@@1@@Z 00425170 f i GameState.obj
 0001:000241a0       ??$?0ABV?$allocator@VSimpleImage@@@std@@$$V@?$_Compressed_pair@V?$allocator@VSimpleImage@@@std@@V?$_Vector_val@U?$_Simple_types@VSimpleImage@@@std@@@2@$00@std@@QAE@U_One_then_variadic_args_t@1@ABV?$allocator@VSimpleImage@@@1@@Z 004251a0 f i GameState.obj
 0001:000241d0       ??$?0PAVDisplayableObject@@@?$allocator@U_Container_proxy@std@@@std@@QAE@ABV?$allocator@PAVDisplayableObject@@@1@@Z 004251d0 f i GameState.obj
 0001:000241f0       ??$?0U?$default_delete@V_Facet_base@std@@@std@@$0A@@?$unique_ptr@V_Facet_base@std@@U?$default_delete@V_Facet_base@std@@@2@@std@@QAE@PAV_Facet_base@1@@Z 004251f0 f i GameState.obj
 0001:00024220       ??$?0VSimpleImage@@@?$allocator@U_Container_proxy@std@@@std@@QAE@ABV?$allocator@VSimpleImage@@@1@@Z 00425220 f i GameState.obj
 0001:00024240       ??$_Adl_verify_range@V?$_Vector_iterator@V?$_Vector_val@U?$_Simple_types@PAVDisplayableObject@@@std@@@std@@@std@@V12@@std@@YAXABV?$_Vector_iterator@V?$_Vector_val@U?$_Simple_types@PAVDisplayableObject@@@std@@@std@@@0@0@Z 00425240 f i GameState.obj
 0001:00024260       ??$_Construct_n_copies_of_ty@U_Value_init_tag@std@@@?$vector@PAVDisplayableObject@@V?$allocator@PAVDisplayableObject@@@std@@@std@@AAEXIABU_Value_init_tag@1@@Z 00425260 f i GameState.obj
 0001:00024370       ??$_Construct_n_copies_of_ty@U_Value_init_tag@std@@@?$vector@VSimpleImage@@V?$allocator@VSimpleImage@@@std@@@std@@AAEXIABU_Value_init_tag@1@@Z 00425370 f i GameState.obj
 0001:00024480       ??$_Emplace_back_with_unused_capacity@ABQAVDisplayableObject@@@?$vector@PAVDisplayableObject@@V?$allocator@PAVDisplayableObject@@@std@@@std@@AAE?A_TABQAVDisplayableObject@@@Z 00425480 f i GameState.obj
 0001:00024520       ??$_Emplace_reallocate@ABQAVDisplayableObject@@@?$vector@PAVDisplayableObject@@V?$allocator@PAVDisplayableObject@@@std@@@std@@QAEPAPAVDisplayableObject@@QAPAV2@ABQAV2@@Z 00425520 f i GameState.obj
 0001:00024770       ??$_Fgetc@D@std@@YA_NAADPAU_iobuf@@@Z 00425770 f i GameState.obj
 0001:000247b0       ??$_Find_unchecked1@PAPAVDisplayableObject@@PAV1@@std@@YAPAPAVDisplayableObject@@PAPAV1@QAPAV1@ABQAV1@U?$integral_constant@_N$0A@@0@@Z 004257b0 f i GameState.obj
 0001:000247f0       ??$_Find_unchecked@PAPAVDisplayableObject@@PAV1@@std@@YAPAPAVDisplayableObject@@QAPAV1@0ABQAV1@@Z 004257f0 f i GameState.obj
 0001:00024820       ??$_Fputc@D@std@@YA_NDPAU_iobuf@@@Z 00425820 f i GameState.obj
 0001:00024860       ??$_Get_unwrapped@AAV?$_Vector_iterator@V?$_Vector_val@U?$_Simple_types@PAVDisplayableObject@@@std@@@std@@@std@@@std@@YA?A_TAAV?$_Vector_iterator@V?$_Vector_val@U?$_Simple_types@PAVDisplayableObject@@@std@@@std@@@0@@Z 00425860 f i GameState.obj
 0001:00024870       ??$_Get_unwrapped@ABV?$_Vector_iterator@V?$_Vector_val@U?$_Simple_types@PAVDisplayableObject@@@std@@@std@@@std@@@std@@YA?A_TABV?$_Vector_iterator@V?$_Vector_val@U?$_Simple_types@PAVDisplayableObject@@@std@@@std@@@0@@Z 00425870 f i GameState.obj
 0001:00024880       ??$_Move_unchecked@PAPAVDisplayableObject@@PAPAV1@@std@@YAPAPAVDisplayableObject@@PAPAV1@00@Z 00425880 f i GameState.obj
 0001:000248f0       ??$_Reallocate_grow_by@V<lambda_15711c68e099a15a58f4d77303cb286d>@@D@?$basic_string@DU?$char_traits@D@std@@V?$allocator@D@2@@std@@AAEAAV01@IV<lambda_15711c68e099a15a58f4d77303cb286d>@@D@Z 004258f0 f i GameState.obj
 0001:00024a60       ??$_Refancy@PAPAVDisplayableObject@@$0A@@std@@YAPAPAVDisplayableObject@@PAPAV1@@Z 00425a60 f i GameState.obj
 0001:00024a70       ??$_Seek_wrapped@V?$_Vector_iterator@V?$_Vector_val@U?$_Simple_types@PAVDisplayableObject@@@std@@@std@@@std@@PAPAVDisplayableObject@@@std@@YAXAAV?$_Vector_iterator@V?$_Vector_val@U?$_Simple_types@PAVDisplayableObject@@@std@@@std@@@0@$$QAPAPAVDisplayableObject@@@Z 00425a70 f i GameState.obj
 0001:00024aa0       ??$_Ungetc@D@std@@YA_NABDPAU_iobuf@@@Z 00425aa0 f i GameState.obj
 0001:00024af0       ??$addressof@$$CBV?$_Vector_val@U?$_Simple_types@PAVDisplayableObject@@@std@@@std@@@std@@YAPBV?$_Vector_val@U?$_Simple_types@PAVDisplayableObject@@@std@@@0@ABV10@@Z 00425af0 f i GameState.obj
 0001:00024b00       ??$addressof@$$CBV?$codecvt@DDU_Mbstatet@@@std@@@std@@YAPBV?$codecvt@DDU_Mbstatet@@@0@ABV10@@Z 00425b00 f i GameState.obj
 0001:00024b10       ??$addressof@V?$_Vector_val@U?$_Simple_types@PAVDisplayableObject@@@std@@@std@@@std@@YAPAV?$_Vector_val@U?$_Simple_types@PAVDisplayableObject@@@std@@@0@AAV10@@Z 00425b10 f i GameState.obj
 0001:00024b20       ??$addressof@V?$basic_filebuf@DU?$char_traits@D@std@@@std@@@std@@YAPAV?$basic_filebuf@DU?$char_traits@D@std@@@0@AAV10@@Z 00425b20 f i GameState.obj
 0001:00024b30       ??$addressof@V?$basic_ifstream@DU?$char_traits@D@std@@@std@@@std@@YAPAV?$basic_ifstream@DU?$char_traits@D@std@@@0@AAV10@@Z 00425b30 f i GameState.obj
 0001:00024b40       ??$construct@PAVDisplayableObject@@ABQAV1@@?$_Default_allocator_traits@V?$allocator@PAVDisplayableObject@@@std@@@std@@SAXAAV?$allocator@PAVDisplayableObject@@@1@QAPAVDisplayableObject@@ABQAV3@@Z 00425b40 f i GameState.obj
 0001:00024b90       ??$destroy@PAVDisplayableObject@@@?$_Default_allocator_traits@V?$allocator@PAVDisplayableObject@@@std@@@std@@SAXAAV?$allocator@PAVDisplayableObject@@@1@QAPAVDisplayableObject@@@Z 00425b90 f i GameState.obj
 0001:00024ba0       ??$emplace_back@ABQAVDisplayableObject@@@?$vector@PAVDisplayableObject@@V?$allocator@PAVDisplayableObject@@@std@@@std@@QAE?A_TABQAVDisplayableObject@@@Z 00425ba0 f i GameState.obj
 0001:00024c20       ??$exchange@PAV_Facet_base@std@@$$T@std@@YAPAV_Facet_base@0@AAPAV10@$$QA$$T@Z 00425c20 f i GameState.obj
 0001:00024c50       ??$find@V?$_Vector_iterator@V?$_Vector_val@U?$_Simple_types@PAVDisplayableObject@@@std@@@std@@@std@@PAVDisplayableObject@@@std@@YA?AV?$_Vector_iterator@V?$_Vector_val@U?$_Simple_types@PAVDisplayableObject@@@std@@@std@@@0@V10@V10@ABQAVDisplayableObject@@@Z 00425c50 f i GameState.obj
 0001:00024d40       ??$forward@AAPAV_Facet_base@std@@@std@@YAAAPAV_Facet_base@0@AAPAV10@@Z 00425d40 f i GameState.obj
 0001:00024d50       ??$forward@ABQAVDisplayableObject@@@std@@YAABQAVDisplayableObject@@ABQAV1@@Z 00425d50 f i GameState.obj
 0001:00024d60       ??$forward@ABV?$allocator@PAVDisplayableObject@@@std@@@std@@YAABV?$allocator@PAVDisplayableObject@@@0@ABV10@@Z 00425d60 f i GameState.obj
 0001:00024d70       ??$forward@ABV?$allocator@VSimpleImage@@@std@@@std@@YAABV?$allocator@VSimpleImage@@@0@ABV10@@Z 00425d70 f i GameState.obj
 0001:00024d80       ??$forward@PAPAVDisplayableObject@@@std@@YA$$QAPAPAVDisplayableObject@@AAPAPAV1@@Z 00425d80 f i GameState.obj
 0001:00024d90       ??$move@AAPAD@std@@YA$$QAPADAAPAD@Z 00425d90 f i GameState.obj
 0001:00024da0       ??$move@AAPAVlocale@std@@@std@@YA$$QAPAVlocale@0@AAPAV10@@Z 00425da0 f i GameState.obj
 0001:00024db0       ??$move@AAV?$basic_ifstream@DU?$char_traits@D@std@@@std@@@std@@YA$$QAV?$basic_ifstream@DU?$char_traits@D@std@@@0@AAV10@@Z 00425db0 f i GameState.obj
 0001:00024dc0       ??$swap@PAD$0A@@std@@YAXAAPAD0@Z 00425dc0 f i GameState.obj
 0001:00024e10       ??$swap@PAVlocale@std@@$0A@@std@@YAXAAPAVlocale@0@0@Z 00425e10 f i GameState.obj
 0001:00024e60       ??$use_facet@V?$codecvt@DDU_Mbstatet@@@std@@@std@@YAABV?$codecvt@DDU_Mbstatet@@@0@ABVlocale@0@@Z 00425e60 f i GameState.obj
 0001:00024fb0       ??0?$_Vector_const_iterator@V?$_Vector_val@U?$_Simple_types@PAVDisplayableObject@@@std@@@std@@@std@@QAE@ABV01@@Z 00425fb0 f i GameState.obj
 0001:00024ff0       ??0?$_Vector_const_iterator@V?$_Vector_val@U?$_Simple_types@PAVDisplayableObject@@@std@@@std@@@std@@QAE@PAPAVDisplayableObject@@PBU_Container_base12@1@@Z 00425ff0 f i GameState.obj
 0001:00025030       ??0?$_Vector_iterator@V?$_Vector_val@U?$_Simple_types@PAVDisplayableObject@@@std@@@std@@@std@@QAE@ABV01@@Z 00426030 f i GameState.obj
 0001:00025060       ??0?$_Vector_iterator@V?$_Vector_val@U?$_Simple_types@PAVDisplayableObject@@@std@@@std@@@std@@QAE@PAPAVDisplayableObject@@PBU_Container_base12@1@@Z 00426060 f i GameState.obj
 0001:00025090       ??0?$_Vector_val@U?$_Simple_types@PAVDisplayableObject@@@std@@@std@@QAE@XZ 00426090 f i GameState.obj
 0001:000250e0       ??0?$_Vector_val@U?$_Simple_types@VSimpleImage@@@std@@@std@@QAE@XZ 004260e0 f i GameState.obj
 0001:00025130       ??0?$allocator@PAVDisplayableObject@@@std@@QAE@XZ 00426130 f i GameState.obj
 0001:00025150       ??0?$allocator@VSimpleImage@@@std@@QAE@XZ 00426150 f i GameState.obj
 0001:00025170       ??0?$basic_filebuf@DU?$char_traits@D@std@@@std@@QAE@XZ 00426170 f i GameState.obj
 0001:000251f0       ??0?$basic_ifstream@DU?$char_traits@D@std@@@std@@QAE@PBDHH@Z 004261f0 f i GameState.obj
 0001:00025340       ??0?$basic_ifstream@DU?$char_traits@D@std@@@std@@QAE@XZ 00426340 f i GameState.obj
 0001:00025450       ??0?$basic_ofstream@DU?$char_traits@D@std@@@std@@QAE@XZ 00426450 f i GameState.obj
 0001:00025560       ??0?$basic_string@DU?$char_traits@D@std@@V?$allocator@D@2@@std@@QAE@XZ 00426560 f i GameState.obj
 0001:000255f0       ??0?$fpos@U_Mbstatet@@@std@@QAE@U_Mbstatet@@_J@Z 004265f0 f i GameState.obj
 0001:00025640       ??0?$fpos@U_Mbstatet@@@std@@QAE@_J@Z 00426640 f i GameState.obj
 0001:00025690       ??0?$vector@PAVDisplayableObject@@V?$allocator@PAVDisplayableObject@@@std@@@std@@QAE@IABV?$allocator@PAVDisplayableObject@@@1@@Z 00426690 f i GameState.obj
 0001:000256d0       ??0?$vector@V?$vector@HV?$allocator@H@std@@@std@@V?$allocator@V?$vector@HV?$allocator@H@std@@@std@@@2@@std@@QAE@XZ 004266d0 f i GameState.obj
 0001:00025750       ??0?$vector@VSimpleImage@@V?$allocator@VSimpleImage@@@std@@@std@@QAE@IABV?$allocator@VSimpleImage@@@1@@Z 00426750 f i GameState.obj
 0001:00025790       ??0BaseEnemyObject@@QAE@HHPAVBaseEngine@@HHHPAVGameTileManager@@PAVGameState@@_N3HHH@Z 00426790 f i GameState.obj
 0001:00025880       ??0BaseState@@QAE@PAVGameEngine@@@Z 00426880 f i GameState.obj
 0001:000258b0       ??0BossEnemyObject@@QAE@HHPAVBaseEngine@@HPAVGameTileManager@@PAVGameState@@_N3HHHHH3@Z 004268b0 f i GameState.obj
 0001:000259a0       ??0BulletObject@@QAE@HHPAVBaseEngine@@_NPAVGameTileManager@@PAVGameState@@@Z 004269a0 f i GameState.obj
 0001:00025a50       ??0EliteEnemyObject@@QAE@HHPAVBaseEngine@@HPAVGameTileManager@@PAVGameState@@_N3HHHH@Z 00426a50 f i GameState.obj
 0001:00025b20       ??0ImageContainer@@QAE@XZ  00426b20 f i GameState.obj
 0001:00025b50       ??0MyDisplayableObjectContainer@@QAE@H@Z 00426b50 f i GameState.obj
 0001:00025bb0       ??0RegularEnemyObject@@QAE@HHPAVBaseEngine@@HPAVGameTileManager@@PAVGameState@@_N3HHH@Z 00426bb0 f i GameState.obj
 0001:00025c70       ??0TemplateObject@@QAE@HHPAVBaseEngine@@HHPAVGameTileManager@@PAVGameState@@_N@Z 00426c70 f i GameState.obj
 0001:00025d30       ??0UserObject@@QAE@HHPAVBaseEngine@@HHPAVGameTileManager@@PAVGameState@@_N3NHH@Z 00426d30 f i GameState.obj
 0001:00025e10       ??0bad_cast@std@@QAE@ABV01@@Z 00426e10 f i GameState.obj
 0001:00025e40       ??0bad_cast@std@@QAE@XZ    00426e40 f i GameState.obj
 0001:00025e70       ??1?$_Tidy_guard@V?$vector@PAVDisplayableObject@@V?$allocator@PAVDisplayableObject@@@std@@@std@@@std@@QAE@XZ 00426e70 f i GameState.obj
 0001:00025ea0       ??1?$_Tidy_guard@V?$vector@VSimpleImage@@V?$allocator@VSimpleImage@@@std@@@std@@@std@@QAE@XZ 00426ea0 f i GameState.obj
 0001:00025ed0       ??1?$_Vector_const_iterator@V?$_Vector_val@U?$_Simple_types@PAVDisplayableObject@@@std@@@std@@@std@@QAE@XZ 00426ed0 f i GameState.obj
 0001:00025ef0       ??1?$_Vector_iterator@V?$_Vector_val@U?$_Simple_types@PAVDisplayableObject@@@std@@@std@@@std@@QAE@XZ 00426ef0 f i GameState.obj
 0001:00025f10       ??1?$basic_filebuf@DU?$char_traits@D@std@@@std@@UAE@XZ 00426f10 f i GameState.obj
 0001:00025fa0       ??1?$basic_ifstream@DU?$char_traits@D@std@@@std@@UAE@XZ 00426fa0 f i GameState.obj
 0001:00026010       ??1?$basic_ofstream@DU?$char_traits@D@std@@@std@@UAE@XZ 00427010 f i GameState.obj
 0001:00026080       ??1?$unique_ptr@V_Facet_base@std@@U?$default_delete@V_Facet_base@std@@@2@@std@@QAE@XZ 00427080 f i GameState.obj
 0001:000260c0       ??1?$vector@PAVDisplayableObject@@V?$allocator@PAVDisplayableObject@@@std@@@std@@QAE@XZ 004270c0 f i GameState.obj
 0001:00026130       ??1?$vector@VSimpleImage@@V?$allocator@VSimpleImage@@@std@@@std@@QAE@XZ 00427130 f i GameState.obj
 0001:000261a0       ??1BaseEnemyObject@@UAE@XZ 004271a0 f i GameState.obj
 0001:000261c0       ??1BossEnemyObject@@UAE@XZ 004271c0 f i GameState.obj
 0001:000261e0       ??1BulletObject@@UAE@XZ    004271e0 f i GameState.obj
 0001:00026200       ??1EliteEnemyObject@@UAE@XZ 00427200 f i GameState.obj
 0001:00026220       ??1ImageContainer@@QAE@XZ  00427220 f i GameState.obj
 0001:00026240       ??1MyDisplayableObjectContainer@@UAE@XZ 00427240 f i GameState.obj
 0001:000262b0       ??1RegularEnemyObject@@UAE@XZ 004272b0 f i GameState.obj
 0001:000262d0       ??1TemplateObject@@UAE@XZ  004272d0 f i GameState.obj
 0001:00026300       ??1UserObject@@UAE@XZ      00427300 f i GameState.obj
 0001:00026320       ??1bad_cast@std@@UAE@XZ    00427320 f i GameState.obj
 0001:00026340       ??1locale@std@@QAE@XZ      00427340 f i GameState.obj
 0001:000263a0       ??4?$basic_ifstream@DU?$char_traits@D@std@@@std@@QAEAAV01@$$QAV01@@Z 004273a0 f i GameState.obj
 0001:000263d0       ??8?$_Vector_const_iterator@V?$_Vector_val@U?$_Simple_types@PAVDisplayableObject@@@std@@@std@@@std@@QBE_NABV01@@Z 004273d0 f i GameState.obj
 0001:00026420       ??9?$_Vector_const_iterator@V?$_Vector_val@U?$_Simple_types@PAVDisplayableObject@@@std@@@std@@@std@@QBE_NABV01@@Z 00427420 f i GameState.obj
 0001:00026470       ??B?$fpos@U_Mbstatet@@@std@@QBE_JXZ 00427470 f i GameState.obj
 0001:000264a0       ??D?$_Vector_const_iterator@V?$_Vector_val@U?$_Simple_types@PAVDisplayableObject@@@std@@@std@@@std@@QBEABQAVDisplayableObject@@XZ 004274a0 f i GameState.obj
 0001:000265b0       ??D?$_Vector_iterator@V?$_Vector_val@U?$_Simple_types@PAVDisplayableObject@@@std@@@std@@@std@@QBEAAPAVDisplayableObject@@XZ 004275b0 f i GameState.obj
 0001:000265d0       ??E?$_Vector_const_iterator@V?$_Vector_val@U?$_Simple_types@PAVDisplayableObject@@@std@@@std@@@std@@QAE?AV01@H@Z 004275d0 f i GameState.obj
 0001:00026620       ??E?$_Vector_const_iterator@V?$_Vector_val@U?$_Simple_types@PAVDisplayableObject@@@std@@@std@@@std@@QAEAAV01@XZ 00427620 f i GameState.obj
 0001:00026730       ??E?$_Vector_iterator@V?$_Vector_val@U?$_Simple_types@PAVDisplayableObject@@@std@@@std@@@std@@QAE?AV01@H@Z 00427730 f i GameState.obj
 0001:00026780       ??R<lambda_15711c68e099a15a58f4d77303cb286d>@@QBE@QADQBDID@Z 00427780 f i GameState.obj
 0001:000267f0       ??R?$default_delete@V_Facet_base@std@@@std@@QBEXPAV_Facet_base@1@@Z 004277f0 f i GameState.obj
 0001:00026840       ??_D?$basic_ifstream@DU?$char_traits@D@std@@@std@@QAEXXZ 00427840 f i GameState.obj
 0001:00026870       ??_D?$basic_ofstream@DU?$char_traits@D@std@@@std@@QAEXXZ 00427870 f i GameState.obj
 0001:0002689a       ??_E?$basic_ifstream@DU?$char_traits@D@std@@@std@@$4PPPPPPPM@A@AEPAXI@Z 0042789a f i GameState.obj
 0001:000268a4       ??_E?$basic_ofstream@DU?$char_traits@D@std@@@std@@$4PPPPPPPM@A@AEPAXI@Z 004278a4 f i GameState.obj
 0001:000268b0       ??_G?$basic_filebuf@DU?$char_traits@D@std@@@std@@UAEPAXI@Z 004278b0 f i GameState.obj
 0001:000268b0       ??_E?$basic_filebuf@DU?$char_traits@D@std@@@std@@UAEPAXI@Z 004278b0 f i GameState.obj
 0001:000268f0       ??_G?$basic_ifstream@DU?$char_traits@D@std@@@std@@UAEPAXI@Z 004278f0 f i GameState.obj
 0001:000268f0       ??_E?$basic_ifstream@DU?$char_traits@D@std@@@std@@UAEPAXI@Z 004278f0 f i GameState.obj
 0001:00026940       ??_E?$basic_ofstream@DU?$char_traits@D@std@@@std@@UAEPAXI@Z 00427940 f i GameState.obj
 0001:00026940       ??_G?$basic_ofstream@DU?$char_traits@D@std@@@std@@UAEPAXI@Z 00427940 f i GameState.obj
 0001:00026990       ??_GBaseEnemyObject@@UAEPAXI@Z 00427990 f i GameState.obj
 0001:00026990       ??_EBaseEnemyObject@@UAEPAXI@Z 00427990 f i GameState.obj
 0001:000269d0       ??_GBossEnemyObject@@UAEPAXI@Z 004279d0 f i GameState.obj
 0001:000269d0       ??_EBossEnemyObject@@UAEPAXI@Z 004279d0 f i GameState.obj
 0001:00026a10       ??_EBulletObject@@UAEPAXI@Z 00427a10 f i GameState.obj
 0001:00026a10       ??_GBulletObject@@UAEPAXI@Z 00427a10 f i GameState.obj
 0001:00026a50       ??_GEliteEnemyObject@@UAEPAXI@Z 00427a50 f i GameState.obj
 0001:00026a50       ??_EEliteEnemyObject@@UAEPAXI@Z 00427a50 f i GameState.obj
 0001:00026a90       ??_GGameState@@UAEPAXI@Z   00427a90 f i GameState.obj
 0001:00026a90       ??_EGameState@@UAEPAXI@Z   00427a90 f i GameState.obj
 0001:00026ad0       ??_EMyDisplayableObjectContainer@@UAEPAXI@Z 00427ad0 f i GameState.obj
 0001:00026ad0       ??_GMyDisplayableObjectContainer@@UAEPAXI@Z 00427ad0 f i GameState.obj
 0001:00026b10       ??_ERegularEnemyObject@@UAEPAXI@Z 00427b10 f i GameState.obj
 0001:00026b10       ??_GRegularEnemyObject@@UAEPAXI@Z 00427b10 f i GameState.obj
 0001:00026b50       ??_ETemplateObject@@UAEPAXI@Z 00427b50 f i GameState.obj
 0001:00026b50       ??_GTemplateObject@@UAEPAXI@Z 00427b50 f i GameState.obj
 0001:00026b90       ??_EUserObject@@UAEPAXI@Z  00427b90 f i GameState.obj
 0001:00026b90       ??_GUserObject@@UAEPAXI@Z  00427b90 f i GameState.obj
 0001:00026bd0       ??_Ebad_cast@std@@UAEPAXI@Z 00427bd0 f i GameState.obj
 0001:00026bd0       ??_Gbad_cast@std@@UAEPAXI@Z 00427bd0 f i GameState.obj
 0001:00026c10       ?_Assign_rv@?$basic_ifstream@DU?$char_traits@D@std@@@std@@QAEX$$QAV12@@Z 00427c10 f i GameState.obj
 0001:00026c60       ?_Buy_nonzero@?$vector@PAVDisplayableObject@@V?$allocator@PAVDisplayableObject@@@std@@@std@@AAEXI@Z 00427c60 f i GameState.obj
 0001:00026ca0       ?_Buy_nonzero@?$vector@VSimpleImage@@V?$allocator@VSimpleImage@@@std@@@std@@AAEXI@Z 00427ca0 f i GameState.obj
 0001:00026ce0       ?_Buy_raw@?$vector@PAVDisplayableObject@@V?$allocator@PAVDisplayableObject@@@std@@@std@@AAEXI@Z 00427ce0 f i GameState.obj
 0001:00026d60       ?_Buy_raw@?$vector@VSimpleImage@@V?$allocator@VSimpleImage@@@std@@@std@@AAEXI@Z 00427d60 f i GameState.obj
 0001:00026de0       ?_Check_offset@?$_String_val@U?$_Simple_types@D@std@@@std@@QBEXI@Z 00427de0 f i GameState.obj
 0001:00026e10       ?_Clamp_suffix_size@?$_String_val@U?$_Simple_types@D@std@@@std@@QBEIII@Z 00427e10 f i GameState.obj
 0001:00026e50       ?_Compat@?$_Vector_const_iterator@V?$_Vector_val@U?$_Simple_types@PAVDisplayableObject@@@std@@@std@@@std@@QBEXABV12@@Z 00427e50 f i GameState.obj
 0001:00026ef0       ?_Endwrite@?$basic_filebuf@DU?$char_traits@D@std@@@std@@IAE_NXZ 00427ef0 f i GameState.obj
 0001:00027050       ?_Erase_noexcept@?$basic_string@DU?$char_traits@D@std@@V?$allocator@D@2@@std@@AAEAAV12@II@Z 00428050 f i GameState.obj
 0001:000270e0       ?_Get_first@?$_Compressed_pair@U?$default_delete@V_Facet_base@std@@@std@@PAV_Facet_base@2@$00@std@@QAEAAU?$default_delete@V_Facet_base@std@@@2@XZ 004280e0 f i GameState.obj
 0001:00027100       ?_Getfacet@locale@std@@QBEPBVfacet@12@I@Z 00428100 f i GameState.obj
 0001:000271a0       ?_Init@?$basic_filebuf@DU?$char_traits@D@std@@@std@@IAEXPAU_iobuf@@W4_Initfl@12@@Z 004281a0 f i GameState.obj
 0001:000272a0       ?_Initcvt@?$basic_filebuf@DU?$char_traits@D@std@@@std@@IAEXABV?$codecvt@DDU_Mbstatet@@@2@@Z 004282a0 f i GameState.obj
 0001:00027300       ?_Lock@?$basic_filebuf@DU?$char_traits@D@std@@@std@@UAEXXZ 00428300 f i GameState.obj
 0001:00027330       ?_Reset_back@?$basic_filebuf@DU?$char_traits@D@std@@@std@@AAEXXZ 00428330 f i GameState.obj
 0001:00027380       ?_Seek_to@?$_Vector_const_iterator@V?$_Vector_val@U?$_Simple_types@PAVDisplayableObject@@@std@@@std@@@std@@QAEXPBQAVDisplayableObject@@@Z 00428380 f i GameState.obj
 0001:000273b0       ?_Set_back@?$basic_filebuf@DU?$char_traits@D@std@@@std@@AAEXXZ 004283b0 f i GameState.obj
 0001:00027420       ?_Throw_bad_cast@std@@YAXXZ 00428420 f i GameState.obj
 0001:00027450       ?_Tidy@?$vector@PAVDisplayableObject@@V?$allocator@PAVDisplayableObject@@@std@@@std@@AAEXXZ 00428450 f i GameState.obj
 0001:00027540       ?_Tidy@?$vector@VSimpleImage@@V?$allocator@VSimpleImage@@@std@@@std@@AAEXXZ 00428540 f i GameState.obj
 0001:00027630       ?_Umove@?$vector@PAVDisplayableObject@@V?$allocator@PAVDisplayableObject@@@std@@@std@@AAEPAPAVDisplayableObject@@PAPAV3@00@Z 00428630 f i GameState.obj
 0001:00027670       ?_Unlock@?$basic_filebuf@DU?$char_traits@D@std@@@std@@UAEXXZ 00428670 f i GameState.obj
 0001:000276a0       ?_Unwrapped@?$_Vector_iterator@V?$_Vector_val@U?$_Simple_types@PAVDisplayableObject@@@std@@@std@@@std@@QBEPAPAVDisplayableObject@@XZ 004286a0 f i GameState.obj
 0001:000276c0       ?_Verify_range@std@@YAXABV?$_Vector_const_iterator@V?$_Vector_val@U?$_Simple_types@PAVDisplayableObject@@@std@@@std@@@1@0@Z 004286c0 f i GameState.obj
 0001:000277c0       ?_Xran@?$_String_val@U?$_Simple_types@D@std@@@std@@SAXXZ 004287c0 f i GameState.obj
 0001:000277e0       ?appendObjectToArray@MyDisplayableObjectContainer@@QAEXPAVDisplayableObject@@@Z 004287e0 f i GameState.obj
 0001:00027820       ?begin@?$vector@PAVDisplayableObject@@V?$allocator@PAVDisplayableObject@@@std@@@std@@QAE?AV?$_Vector_iterator@V?$_Vector_val@U?$_Simple_types@PAVDisplayableObject@@@std@@@std@@@2@XZ 00428820 f i GameState.obj
 0001:00027870       ?begin@?$vector@PAVDisplayableObject@@V?$allocator@PAVDisplayableObject@@@std@@@std@@QBE?AV?$_Vector_const_iterator@V?$_Vector_val@U?$_Simple_types@PAVDisplayableObject@@@std@@@std@@@2@XZ 00428870 f i GameState.obj
 0001:000278c0       ?clear@?$vector@PAVDisplayableObject@@V?$allocator@PAVDisplayableObject@@@std@@@std@@QAEXXZ 004288c0 f i GameState.obj
 0001:00027960       ?clearContents@MyDisplayableObjectContainer@@QAEXXZ 00428960 f i GameState.obj
 0001:000279a0       ?close@?$basic_filebuf@DU?$char_traits@D@std@@@std@@QAEPAV12@XZ 004289a0 f i GameState.obj
 0001:00027a20       ?close@?$basic_ifstream@DU?$char_traits@D@std@@@std@@QAEXXZ 00428a20 f i GameState.obj
 0001:00027a60       ?close@?$basic_ofstream@DU?$char_traits@D@std@@@std@@QAEXXZ 00428a60 f i GameState.obj
 0001:00027aa0       ?createObjectArray@MyDisplayableObjectContainer@@QAEXH@Z 00428aa0 f i GameState.obj
 0001:00027af0       ?destroyOldObjects@MyDisplayableObjectContainer@@UAEX_N@Z 00428af0 f i GameState.obj
 0001:00027be0       ?drawForegroundString@BaseEngine@@QAEXHHPBDIPAVFont@@@Z 00428be0 f i GameState.obj
 0001:00027c20       ?drawableObjectsChanged@MyDisplayableObjectContainer@@QAEXXZ 00428c20 f i GameState.obj
 0001:00027c40       ?end@?$vector@PAVDisplayableObject@@V?$allocator@PAVDisplayableObject@@@std@@@std@@QAE?AV?$_Vector_iterator@V?$_Vector_val@U?$_Simple_types@PAVDisplayableObject@@@std@@@std@@@2@XZ 00428c40 f i GameState.obj
 0001:00027c90       ?end@?$vector@PAVDisplayableObject@@V?$allocator@PAVDisplayableObject@@@std@@@std@@QBE?AV?$_Vector_const_iterator@V?$_Vector_val@U?$_Simple_types@PAVDisplayableObject@@@std@@@std@@@2@XZ 00428c90 f i GameState.obj
 0001:00027ce0       ?erase@?$basic_string@DU?$char_traits@D@std@@V?$allocator@D@2@@std@@QAEAAV12@II@Z 00428ce0 f i GameState.obj
 0001:00027d20       ?erase@?$vector@PAVDisplayableObject@@V?$allocator@PAVDisplayableObject@@@std@@@std@@QAE?AV?$_Vector_iterator@V?$_Vector_val@U?$_Simple_types@PAVDisplayableObject@@@std@@@std@@@2@V?$_Vector_const_iterator@V?$_Vector_val@U?$_Simple_types@PAVDisplayableObject@@@std@@@std@@@2@@Z 00428d20 f i GameState.obj
 0001:00027ed0       ?front@?$basic_string@DU?$char_traits@D@std@@V?$allocator@D@2@@std@@QAEAADXZ 00428ed0 f i GameState.obj
 0001:00027f70       ?getFont@BaseEngine@@QAEPAVFont@@PBDH@Z 00428f70 f i GameState.obj
 0001:00027fa0       ?getHasActed@DisplayableObject@@QBE_NXZ 00428fa0 f i GameState.obj
 0001:00027fc0       ?getObjectPixelMap@TemplateObject@@UAE?AV?$vector@V?$vector@HV?$allocator@H@std@@@std@@V?$allocator@V?$vector@HV?$allocator@H@std@@@std@@@2@@std@@XZ 00428fc0 f i GameState.obj
 0001:00028000       ?getTileManager@GameEngine@@QAEPAVGameTileManager@@XZ 00429000 f i GameState.obj
 0001:00028020       ?getXCentre@DisplayableObject@@QBEHXZ 00429020 f i GameState.obj
 0001:00028050       ?getYCentre@DisplayableObject@@QBEHXZ 00429050 f i GameState.obj
 0001:00028080       ?imbue@?$basic_filebuf@DU?$char_traits@D@std@@@std@@MAEXABVlocale@2@@Z 00429080 f i GameState.obj
 0001:000280b0       ?isPaused@BaseEngine@@QAE_NXZ 004290b0 f i GameState.obj
 0001:000280f0       ?loadObjectImages@TemplateObject@@UAEXXZ 004290f0 f i GameState.obj
 0001:00028100       ?not_eof@?$_Narrow_char_traits@DH@std@@SAHABH@Z 00429100 f i GameState.obj
 0001:00028160       ?open@?$basic_filebuf@DU?$char_traits@D@std@@@std@@QAEPAV12@PBDHH@Z 00429160 f i GameState.obj
 0001:00028250       ?open@?$basic_ofstream@DU?$char_traits@D@std@@@std@@QAEXPBDHH@Z 00429250 f i GameState.obj
 0001:000282d0       ?overflow@?$basic_filebuf@DU?$char_traits@D@std@@@std@@MAEHH@Z 004292d0 f i GameState.obj
 0001:00028520       ?pause@BaseEngine@@QAEXXZ  00429520 f i GameState.obj
 0001:00028550       ?pbackfail@?$basic_filebuf@DU?$char_traits@D@std@@@std@@MAEHH@Z 00429550 f i GameState.obj
 0001:00028700       ?push_back@?$basic_string@DU?$char_traits@D@std@@V?$allocator@D@2@@std@@QAEXD@Z 00429700 f i GameState.obj
 0001:000287b0       ?push_back@?$vector@PAVDisplayableObject@@V?$allocator@PAVDisplayableObject@@@std@@@std@@QAEXABQAVDisplayableObject@@@Z 004297b0 f i GameState.obj
 0001:000287d0       ?release@?$unique_ptr@V_Facet_base@std@@U?$default_delete@V_Facet_base@std@@@2@@std@@QAEPAV_Facet_base@2@XZ 004297d0 f i GameState.obj
 0001:00028800       ?removeDisplayableObject@MyDisplayableObjectContainer@@QAE_NPAVDisplayableObject@@@Z 00429800 f i GameState.obj
 0001:00028910       ?seekoff@?$basic_filebuf@DU?$char_traits@D@std@@@std@@MAE?AV?$fpos@U_Mbstatet@@@2@_JHH@Z 00429910 f i GameState.obj
 0001:00028a20       ?seekpos@?$basic_filebuf@DU?$char_traits@D@std@@@std@@MAE?AV?$fpos@U_Mbstatet@@@2@V32@H@Z 00429a20 f i GameState.obj
 0001:00028af0       ?setAllObjectsVisible@MyDisplayableObjectContainer@@QBEX_N@Z 00429af0 f i GameState.obj
 0001:00028bf0       ?setHasActed@DisplayableObject@@QAEX_N@Z 00429bf0 f i GameState.obj
 0001:00028c10       ?setState@GameEngine@@QAEXPAVBaseState@@@Z 00429c10 f i GameState.obj
 0001:00028c30       ?setbuf@?$basic_filebuf@DU?$char_traits@D@std@@@std@@MAEPAV?$basic_streambuf@DU?$char_traits@D@std@@@2@PAD_J@Z 00429c30 f i GameState.obj
 0001:00028cd0       ?state@?$fpos@U_Mbstatet@@@std@@QBE?AU_Mbstatet@@XZ 00429cd0 f i GameState.obj
 0001:00028d00       ?storeObjectInArray@MyDisplayableObjectContainer@@QAEXHPAVDisplayableObject@@@Z 00429d00 f i GameState.obj
 0001:00028d40       ?swap@?$basic_filebuf@DU?$char_traits@D@std@@@std@@QAEXAAV12@@Z 00429d40 f i GameState.obj
 0001:00029140       ?swap@?$basic_ifstream@DU?$char_traits@D@std@@@std@@QAEXAAV12@@Z 0042a140 f i GameState.obj
 0001:00029190       ?sync@?$basic_filebuf@DU?$char_traits@D@std@@@std@@MAEHXZ 0042a190 f i GameState.obj
 0001:00029210       ?to_char_type@?$_Narrow_char_traits@DH@std@@SADABH@Z 0042a210 f i GameState.obj
 0001:00029220       ?to_int_type@?$_Narrow_char_traits@DH@std@@SAHABD@Z 0042a220 f i GameState.obj
 0001:00029230       ?uflow@?$basic_filebuf@DU?$char_traits@D@std@@@std@@MAEHXZ 0042a230 f i GameState.obj
 0001:00029540       ?underflow@?$basic_filebuf@DU?$char_traits@D@std@@@std@@MAEHXZ 0042a540 f i GameState.obj
 0001:00029600       ?unpause@BaseEngine@@QAEXXZ 0042a600 f i GameState.obj
 0001:00029650       ?xsgetn@?$basic_filebuf@DU?$char_traits@D@std@@@std@@MAE_JPAD_J@Z 0042a650 f i GameState.obj
 0001:00029810       ?xsputn@?$basic_filebuf@DU?$char_traits@D@std@@@std@@MAE_JPBD_J@Z 0042a810 f i GameState.obj
 0001:00029970       __vsnprintf_l              0042a970 f i GameState.obj
 0001:000299e0       __vsprintf_l               0042a9e0 f i GameState.obj
 0001:00029a10       _sprintf                   0042aa10 f i GameState.obj
 0001:00029a50       ?virtDrawTileAt@GameTileManager@@UBEXPAVBaseEngine@@PAVDrawingSurface@@HHHH@Z 0042aa50 f   GameTileManager.obj
 0001:00029c50       ?loadTileImages@GameTileManager@@QAEXXZ 0042ac50 f   GameTileManager.obj
 0001:00029e10       ?drawLine@GameTileManager@@QAEXPAVBaseEngine@@PAVDrawingSurface@@HHH@Z 0042ae10 f   GameTileManager.obj
 0001:00029e90       ?drawGamePortal@GameTileManager@@QAEXPAVBaseEngine@@PAVDrawingSurface@@@Z 0042ae90 f   GameTileManager.obj
 0001:00029ff0       ?drawGamePrompt@GameTileManager@@QAEXPAVBaseEngine@@PAVDrawingSurface@@@Z 0042aff0 f   GameTileManager.obj
 0001:0002a090       ?setGameLevel@GameTileManager@@QAEXH@Z 0042b090 f   GameTileManager.obj
 0001:0002a240       ??0GuidanceState@@QAE@PAVGameEngine@@@Z 0042b240 f   GuidanceState.obj
 0001:0002a320       ??1GuidanceState@@UAE@XZ   0042b320 f   GuidanceState.obj
 0001:0002a390       ?drawObjects@GuidanceState@@UAEXXZ 0042b390 f   GuidanceState.obj
 0001:0002a3b0       ?virtSetupBackgroundBuffer@GuidanceState@@UAEXXZ 0042b3b0 f   GuidanceState.obj
 0001:0002a480       ?virtInitialiseObjects@GuidanceState@@UAEHXZ 0042b480 f   GuidanceState.obj
 0001:0002a750       ?virtDrawStringsUnderneath@GuidanceState@@UAEXXZ 0042b750 f   GuidanceState.obj
 0001:0002a870       ?virtKeyDown@GuidanceState@@UAEXH@Z 0042b870 f   GuidanceState.obj
 0001:0002aab0       ?virtMouseWheel@GuidanceState@@UAEXHHHH@Z 0042bab0 f   GuidanceState.obj
 0001:0002adc0       ??0FilterPoints@@QAE@XZ    0042bdc0 f i GuidanceState.obj
 0001:0002ade0       ??0MyFilterPoint@@QAE@HHHHPAVFilterPoints@@@Z 0042bde0 f i GuidanceState.obj
 0001:0002ae80       ??1MyFilterPoint@@QAE@XZ   0042be80 f i GuidanceState.obj
 0001:0002aea0       ??_GGuidanceState@@UAEPAXI@Z 0042bea0 f i GuidanceState.obj
 0001:0002aea0       ??_EGuidanceState@@UAEPAXI@Z 0042bea0 f i GuidanceState.obj
 0001:0002aee0       ?changeOffset@MyFilterPoint@@QAEXHH@Z 0042bee0 f i GuidanceState.obj
 0001:0002af20       ?compress@MyFilterPoint@@QAEXXZ 0042bf20 f i GuidanceState.obj
 0001:0002af50       ?compressX@MyFilterPoint@@QAEXXZ 0042bf50 f i GuidanceState.obj
 0001:0002afa0       ?compressY@MyFilterPoint@@QAEXXZ 0042bfa0 f i GuidanceState.obj
 0001:0002aff0       ?convertClickedToVirtualPixelXPosition@BaseEngine@@QAEHH@Z 0042bff0 f i GuidanceState.obj
 0001:0002b020       ?convertClickedToVirtualPixelYPosition@BaseEngine@@QAEHH@Z 0042c020 f i GuidanceState.obj
 0001:0002b050       ?filter@MyFilterPoint@@UAE_NPAVDrawingSurface@@AAH1AAI@Z 0042c050 f i GuidanceState.obj
 0001:0002b0b0       ?filterConvertRealToVirtualXPosition@MyFilterPoint@@UAEHH@Z 0042c0b0 f i GuidanceState.obj
 0001:0002b130       ?filterConvertRealToVirtualYPosition@MyFilterPoint@@UAEHH@Z 0042c130 f i GuidanceState.obj
 0001:0002b1b0       ?filterConvertVirtualToRealXPosition@MyFilterPoint@@UAEHH@Z 0042c1b0 f i GuidanceState.obj
 0001:0002b280       ?filterConvertVirtualToRealYPosition@MyFilterPoint@@UAEHH@Z 0042c280 f i GuidanceState.obj
 0001:0002b350       ?handleXthenY@MyFilterPoint@@AAEXPAVDrawingSurface@@HHAAI@Z 0042c350 f i GuidanceState.obj
 0001:0002b400       ?handleY@MyFilterPoint@@AAEXPAVDrawingSurface@@HHAAI@Z 0042c400 f i GuidanceState.obj
 0001:0002b530       ?setAllObjectsVisible@DisplayableObjectContainer@@QBEX_N@Z 0042c530 f i GuidanceState.obj
 0001:0002b630       ?setOffset@MyFilterPoint@@QAEXHH@Z 0042c630 f i GuidanceState.obj
 0001:0002b660       ?setStretch@MyFilterPoint@@QAEXHH@Z 0042c660 f i GuidanceState.obj
 0001:0002b750       ?stretch@MyFilterPoint@@QAEXXZ 0042c750 f i GuidanceState.obj
 0001:0002b780       ?stretchX@MyFilterPoint@@QAEXXZ 0042c780 f i GuidanceState.obj
 0001:0002b7d0       ?stretchY@MyFilterPoint@@QAEXXZ 0042c7d0 f i GuidanceState.obj
 0001:0002b820       ??0HistoryState@@QAE@PAVGameEngine@@@Z 0042c820 f   HistoryState.obj
 0001:0002b9d0       ??1HistoryState@@UAE@XZ    0042c9d0 f   HistoryState.obj
 0001:0002ba40       ?drawObjects@HistoryState@@UAEXXZ 0042ca40 f   HistoryState.obj
 0001:0002ba60       ?virtMainLoopDoBeforeUpdate@HistoryState@@UAEXXZ 0042ca60 f   HistoryState.obj
 0001:0002bab0       ?virtSetupBackgroundBuffer@HistoryState@@UAEXXZ 0042cab0 f   HistoryState.obj
 0001:0002c400       ?virtInitialiseObjects@HistoryState@@UAEHXZ 0042d400 f   HistoryState.obj
 0001:0002c500       ?virtMouseDown@HistoryState@@UAEXHHH@Z 0042d500 f   HistoryState.obj
 0001:0002c9b0       ??$?0$$V@?$_Compressed_pair@V?$allocator@VGameRecord@@@std@@V?$_Vector_val@U?$_Simple_types@VGameRecord@@@std@@@2@$00@std@@QAE@U_Zero_then_variadic_args_t@1@@Z 0042d9b0 f i HistoryState.obj
 0001:0002c9e0       ??$?0ABV?$allocator@D@std@@$$V@?$_Compressed_pair@V?$allocator@D@std@@V?$_String_val@U?$_Simple_types@D@std@@@2@$00@std@@QAE@U_One_then_variadic_args_t@1@ABV?$allocator@D@1@@Z 0042d9e0 f i HistoryState.obj
 0001:0002ca10       ??$?0PAD$0A@@?$basic_string@DU?$char_traits@D@std@@V?$allocator@D@2@@std@@QAE@PAD0ABV?$allocator@D@1@@Z 0042da10 f i HistoryState.obj
 0001:0002cb20       ??$?0VGameRecord@@@?$allocator@U_Container_proxy@std@@@std@@QAE@ABV?$allocator@VGameRecord@@@1@@Z 0042db20 f i HistoryState.obj
 0001:0002cb40       ??$?5DU?$char_traits@D@std@@V?$allocator@D@1@@std@@YAAAV?$basic_istream@DU?$char_traits@D@std@@@0@$$QAV10@AAV?$basic_string@DU?$char_traits@D@std@@V?$allocator@D@2@@0@@Z 0042db40 f i HistoryState.obj
 0001:0002ce70       ??$?5DU?$char_traits@D@std@@V?$allocator@D@1@@std@@YAAAV?$basic_istream@DU?$char_traits@D@std@@@0@AAV10@AAV?$basic_string@DU?$char_traits@D@std@@V?$allocator@D@2@@0@@Z 0042de70 f i HistoryState.obj
 0001:0002cea0       ??$_Adl_verify_range@PADPAD@std@@YAXABQAD0@Z 0042dea0 f i HistoryState.obj
 0001:0002cec0       ??$_Destroy_range@V?$allocator@VGameRecord@@@std@@@std@@YAXPAVGameRecord@@QAV1@AAV?$allocator@VGameRecord@@@0@@Z 0042dec0 f i HistoryState.obj
 0001:0002cf40       ??$_Emplace_back@VGameRecord@@@?$_Uninitialized_backout_al@V?$allocator@VGameRecord@@@std@@@std@@QAEX$$QAVGameRecord@@@Z 0042df40 f i HistoryState.obj
 0001:0002cfa0       ??$_Emplace_back_with_unused_capacity@VGameRecord@@@?$vector@VGameRecord@@V?$allocator@VGameRecord@@@std@@@std@@AAE?A_T$$QAVGameRecord@@@Z 0042dfa0 f i HistoryState.obj
 0001:0002d040       ??$_Emplace_reallocate@VGameRecord@@@?$vector@VGameRecord@@V?$allocator@VGameRecord@@@std@@@std@@QAEPAVGameRecord@@QAV2@$$QAV2@@Z 0042e040 f i HistoryState.obj
 0001:0002d290       ??$_Get_size_of_n@$0CE@@std@@YAII@Z 0042e290 f i HistoryState.obj
 0001:0002d2c0       ??$_Get_unwrapped@AAPAD@std@@YA?A_TAAPAD@Z 0042e2c0 f i HistoryState.obj
 0001:0002d2d0       ??$_Get_unwrapped@ABQAVGameRecord@@@std@@YA?A_TABQAVGameRecord@@@Z 0042e2d0 f i HistoryState.obj
 0001:0002d2e0       ??$_Integral_to_string@DH@std@@YA?AV?$basic_string@DU?$char_traits@D@std@@V?$allocator@D@2@@0@H@Z 0042e2e0 f i HistoryState.obj
 0001:0002d3b0       ??$_UIntegral_to_buff@DI@std@@YAPADPADI@Z 0042e3b0 f i HistoryState.obj
 0001:0002d410       ??$_Unfancy@VGameRecord@@@std@@YAPAVGameRecord@@PAV1@@Z 0042e410 f i HistoryState.obj
 0001:0002d420       ??$_Uninitialized_move@PAVGameRecord@@V?$allocator@VGameRecord@@@std@@@std@@YAPAVGameRecord@@QAV1@0PAV1@AAV?$allocator@VGameRecord@@@0@@Z 0042e420 f i HistoryState.obj
 0001:0002d500       ??$_Verify_range@D@std@@YAXQBD0@Z 0042e500 f i HistoryState.obj
 0001:0002d580       ??$_Voidify_iter@PAVGameRecord@@@std@@YAPAXPAVGameRecord@@@Z 0042e580 f i HistoryState.obj
 0001:0002d590       ??$construct@VGameRecord@@V1@@?$_Default_allocator_traits@V?$allocator@VGameRecord@@@std@@@std@@SAXAAV?$allocator@VGameRecord@@@1@QAVGameRecord@@$$QAV3@@Z 0042e590 f i HistoryState.obj
 0001:0002d5e0       ??$destroy@VGameRecord@@@?$_Default_allocator_traits@V?$allocator@VGameRecord@@@std@@@std@@SAXAAV?$allocator@VGameRecord@@@1@QAVGameRecord@@@Z 0042e5e0 f i HistoryState.obj
 0001:0002d600       ??$emplace_back@VGameRecord@@@?$vector@VGameRecord@@V?$allocator@VGameRecord@@@std@@@std@@QAE?A_T$$QAVGameRecord@@@Z 0042e600 f i HistoryState.obj
 0001:0002d680       ??$end@D$0BF@@std@@YAPADAAY0BF@D@Z 0042e680 f i HistoryState.obj
 0001:0002d690       ??$forward@ABV?$allocator@D@std@@@std@@YAABV?$allocator@D@0@ABV10@@Z 0042e690 f i HistoryState.obj
 0001:0002d6a0       ??$forward@VGameRecord@@@std@@YA$$QAVGameRecord@@AAV1@@Z 0042e6a0 f i HistoryState.obj
 0001:0002d6b0       ??$move@AAV?$basic_istream@DU?$char_traits@D@std@@@std@@@std@@YA$$QAV?$basic_istream@DU?$char_traits@D@std@@@0@AAV10@@Z 0042e6b0 f i HistoryState.obj
 0001:0002d6c0       ??$move@AAVGameRecord@@@std@@YA$$QAVGameRecord@@AAV1@@Z 0042e6c0 f i HistoryState.obj
 0001:0002d6d0       ??$use_facet@V?$ctype@D@std@@@std@@YAABV?$ctype@D@0@ABVlocale@0@@Z 0042e6d0 f i HistoryState.obj
 0001:0002d820       ??0?$_Uninitialized_backout_al@V?$allocator@VGameRecord@@@std@@@std@@QAE@PAVGameRecord@@AAV?$allocator@VGameRecord@@@1@@Z 0042e820 f i HistoryState.obj
 0001:0002d860       ??0?$_Vector_val@U?$_Simple_types@VGameRecord@@@std@@@std@@QAE@XZ 0042e860 f i HistoryState.obj
 0001:0002d8b0       ??0?$allocator@VGameRecord@@@std@@QAE@XZ 0042e8b0 f i HistoryState.obj
 0001:0002d8d0       ??0?$vector@VGameRecord@@V?$allocator@VGameRecord@@@std@@@std@@QAE@XZ 0042e8d0 f i HistoryState.obj
 0001:0002d950       ??0GameRecord@@QAE@$$QAV0@@Z 0042e950 f i HistoryState.obj
 0001:0002d9a0       ??0GameRecord@@QAE@HHV?$basic_string@DU?$char_traits@D@std@@V?$allocator@D@2@@std@@@Z 0042e9a0 f i HistoryState.obj
 0001:0002da30       ??0ImagePixelMapping@@QAE@XZ 0042ea30 f i HistoryState.obj
 0001:0002da50       ??0MappableImageObject@@QAE@PAVImagePixelMapping@@HHPAVBaseEngine@@V?$basic_string@DU?$char_traits@D@std@@V?$allocator@D@2@@std@@_N3@Z 0042ea50 f i HistoryState.obj
 0001:0002db10       ??0MyImagePixelMapping@@QAE@NNNN@Z 0042eb10 f i HistoryState.obj
 0001:0002db80       ??0_Sentry_base@?$basic_istream@DU?$char_traits@D@std@@@std@@QAE@AAV12@@Z 0042eb80 f i HistoryState.obj
 0001:0002dbe0       ??0sentry@?$basic_istream@DU?$char_traits@D@std@@@std@@QAE@AAV12@_N@Z 0042ebe0 f i HistoryState.obj
 0001:0002dc70       ??1?$_Uninitialized_backout_al@V?$allocator@VGameRecord@@@std@@@std@@QAE@XZ 0042ec70 f i HistoryState.obj
 0001:0002dca0       ??1?$vector@VGameRecord@@V?$allocator@VGameRecord@@@std@@@std@@QAE@XZ 0042eca0 f i HistoryState.obj
 0001:0002dd10       ??1GameRecord@@QAE@XZ      0042ed10 f i HistoryState.obj
 0001:0002dd30       ??1MappableImageObject@@UAE@XZ 0042ed30 f i HistoryState.obj
 0001:0002dd50       ??1_Sentry_base@?$basic_istream@DU?$char_traits@D@std@@@std@@QAE@XZ 0042ed50 f i HistoryState.obj
 0001:0002dde0       ??1sentry@?$basic_istream@DU?$char_traits@D@std@@@std@@QAE@XZ 0042ede0 f i HistoryState.obj
 0001:0002de00       ??A?$vector@VGameRecord@@V?$allocator@VGameRecord@@@std@@@std@@QAEAAVGameRecord@@I@Z 0042ee00 f i HistoryState.obj
 0001:0002deb0       ??Bsentry@?$basic_istream@DU?$char_traits@D@std@@@std@@QBE_NXZ 0042eeb0 f i HistoryState.obj
 0001:0002ded0       ??_GGameRecord@@QAEPAXI@Z  0042eed0 f i HistoryState.obj
 0001:0002df10       ??_EHistoryState@@UAEPAXI@Z 0042ef10 f i HistoryState.obj
 0001:0002df10       ??_GHistoryState@@UAEPAXI@Z 0042ef10 f i HistoryState.obj
 0001:0002df50       ??_GMappableImageObject@@UAEPAXI@Z 0042ef50 f i HistoryState.obj
 0001:0002df50       ??_EMappableImageObject@@UAEPAXI@Z 0042ef50 f i HistoryState.obj
 0001:0002df90       ?_Calculate_growth@?$vector@VGameRecord@@V?$allocator@VGameRecord@@@std@@@std@@ABEII@Z 0042ef90 f i HistoryState.obj
 0001:0002e000       ?_Change_array@?$vector@VGameRecord@@V?$allocator@VGameRecord@@@std@@@std@@AAEXQAVGameRecord@@II@Z 0042f000 f i HistoryState.obj
 0001:0002e0d0       ?_Construct@?$basic_string@DU?$char_traits@D@std@@V?$allocator@D@2@@std@@QAEXQAD0Urandom_access_iterator_tag@2@@Z 0042f0d0 f i HistoryState.obj
 0001:0002e110       ?_Destroy@?$vector@VGameRecord@@V?$allocator@VGameRecord@@@std@@@std@@AAEXPAVGameRecord@@0@Z 0042f110 f i HistoryState.obj
 0001:0002e140       ?_Eos@?$basic_string@DU?$char_traits@D@std@@V?$allocator@D@2@@std@@AAEXI@Z 0042f140 f i HistoryState.obj
 0001:0002e190       ?_Get_first@?$_Compressed_pair@V?$allocator@VGameRecord@@@std@@V?$_Vector_val@U?$_Simple_types@VGameRecord@@@std@@@2@$00@std@@QAEAAV?$allocator@VGameRecord@@@2@XZ 0042f190 f i HistoryState.obj
 0001:0002e1b0       ?_Get_first@?$_Compressed_pair@V?$allocator@VGameRecord@@@std@@V?$_Vector_val@U?$_Simple_types@VGameRecord@@@std@@@2@$00@std@@QBEABV?$allocator@VGameRecord@@@2@XZ 0042f1b0 f i HistoryState.obj
 0001:0002e1d0       ?_Getal@?$vector@VGameRecord@@V?$allocator@VGameRecord@@@std@@@std@@AAEAAV?$allocator@VGameRecord@@@2@XZ 0042f1d0 f i HistoryState.obj
 0001:0002e1f0       ?_Getal@?$vector@VGameRecord@@V?$allocator@VGameRecord@@@std@@@std@@ABEABV?$allocator@VGameRecord@@@2@XZ 0042f1f0 f i HistoryState.obj
 0001:0002e210       ?_Orphan_range@?$vector@VGameRecord@@V?$allocator@VGameRecord@@@std@@@std@@ABEXPAVGameRecord@@0@Z 0042f210 f i HistoryState.obj
 0001:0002e240       ?_Orphan_range_locked@?$vector@VGameRecord@@V?$allocator@VGameRecord@@@std@@@std@@ABEXPAVGameRecord@@0@Z 0042f240 f i HistoryState.obj
 0001:0002e2d0       ?_Orphan_range_unlocked@?$vector@VGameRecord@@V?$allocator@VGameRecord@@@std@@@std@@ABEXPAVGameRecord@@0@Z 0042f2d0 f i HistoryState.obj
 0001:0002e360       ?_Release@?$_Uninitialized_backout_al@V?$allocator@VGameRecord@@@std@@@std@@QAEPAVGameRecord@@XZ 0042f360 f i HistoryState.obj
 0001:0002e390       ?_Tidy@?$vector@VGameRecord@@V?$allocator@VGameRecord@@@std@@@std@@AAEXXZ 0042f390 f i HistoryState.obj
 0001:0002e490       ?_Umove@?$vector@VGameRecord@@V?$allocator@VGameRecord@@@std@@@std@@AAEPAVGameRecord@@PAV3@00@Z 0042f490 f i HistoryState.obj
 0001:0002e4d0       ?_Umove_if_noexcept1@?$vector@VGameRecord@@V?$allocator@VGameRecord@@@std@@@std@@AAEXPAVGameRecord@@00U?$integral_constant@_N$00@2@@Z 0042f4d0 f i HistoryState.obj
 0001:0002e510       ?_Umove_if_noexcept@?$vector@VGameRecord@@V?$allocator@VGameRecord@@@std@@@std@@AAEXPAVGameRecord@@00@Z 0042f510 f i HistoryState.obj
 0001:0002e550       ?_Xlength@?$vector@VGameRecord@@V?$allocator@VGameRecord@@@std@@@std@@CAXXZ 0042f550 f i HistoryState.obj
 0001:0002e570       ?allocate@?$allocator@VGameRecord@@@std@@QAEPAVGameRecord@@I@Z 0042f570 f i HistoryState.obj
 0001:0002e5a0       ?capacity@?$vector@VGameRecord@@V?$allocator@VGameRecord@@@std@@@std@@QBEIXZ 0042f5a0 f i HistoryState.obj
 0001:0002e5d0       ?changePixelColour@ImagePixelMapping@@UAE_NHHAAHPAVDrawingSurface@@@Z 0042f5d0 f i HistoryState.obj
 0001:0002e5f0       ?deallocate@?$allocator@VGameRecord@@@std@@QAEXQAVGameRecord@@I@Z 0042f5f0 f i HistoryState.obj
 0001:0002e620       ?drawBackgroundString@BaseEngine@@QAEXHHPBDIPAVFont@@@Z 0042f620 f i HistoryState.obj
 0001:0002e660       ?erase@?$basic_string@DU?$char_traits@D@std@@V?$allocator@D@2@@std@@QAEAAV12@I@Z 0042f660 f i HistoryState.obj
 0001:0002e6a0       ?getPixelColour@MappableImageObject@@QAEHHH@Z 0042f6a0 f i HistoryState.obj
 0001:0002e6d0       ?getTheData@SimpleImage@@QBEABV?$shared_ptr@VRawImageData@@@std@@XZ 0042f6d0 f i HistoryState.obj
 0001:0002e6f0       ?mapCoordinates@MyImagePixelMapping@@UAE_NAAN0ABVSimpleImage@@@Z 0042f6f0 f i HistoryState.obj
 0001:0002e980       ?max_size@?$_Default_allocator_traits@V?$allocator@VGameRecord@@@std@@@std@@SAIABV?$allocator@VGameRecord@@@2@@Z 0042f980 f i HistoryState.obj
 0001:0002e990       ?max_size@?$vector@VGameRecord@@V?$allocator@VGameRecord@@@std@@@std@@QBEIXZ 0042f990 f i HistoryState.obj
 0001:0002e9e0       ?push_back@?$vector@VGameRecord@@V?$allocator@VGameRecord@@@std@@@std@@QAEX$$QAVGameRecord@@@Z 0042f9e0 f i HistoryState.obj
 0001:0002ea10       ?setOpaque@RawImageData@@QAEXXZ 0042fa10 f i HistoryState.obj
 0001:0002ea80       ?setTransparencyColour@MappableImageObject@@QAEXH@Z 0042fa80 f i HistoryState.obj
 0001:0002eab0       ?setTransparencyColour@SimpleImage@@QAEXH@Z 0042fab0 f i HistoryState.obj
 0001:0002eb20       ?setTransparentColour@RawImageData@@QAEXI@Z 0042fb20 f i HistoryState.obj
 0001:0002ec40       ?setYShift@MyImagePixelMapping@@QAEXN@Z 0042fc40 f i HistoryState.obj
 0001:0002ec60       ?to_string@std@@YA?AV?$basic_string@DU?$char_traits@D@std@@V?$allocator@D@2@@1@H@Z 0042fc60 f i HistoryState.obj
 0001:0002eca0       ?virtDraw@MappableImageObject@@UAEXXZ 0042fca0 f i HistoryState.obj
 0001:0002ed30       ?virtSetupBackgroundBuffer@ImageMappingDemo@@UAEXXZ 0042fd30 f   ImageMappingDemo.obj
 0001:0002ee30       ?virtInitialiseObjects@ImageMappingDemo@@UAEHXZ 0042fe30 f   ImageMappingDemo.obj
 0001:0002f1a0       ?virtKeyDown@ImageMappingDemo@@UAEXH@Z 004301a0 f   ImageMappingDemo.obj
 0001:0002f1d0       ?virtMainLoopDoBeforeUpdate@ImageMappingDemo@@UAEXXZ 004301d0 f   ImageMappingDemo.obj
 0001:0002f260       ?mapCoordinates@ImageMappingDemo@@UAE_NAAN0ABVSimpleImage@@@Z 00430260 f   ImageMappingDemo.obj
 0001:0002f6d0       ?setRotation@ImagePixelMappingRotate@@QAEXN@Z 004306d0 f i ImageMappingDemo.obj
 0001:0002f6f0       ?setXShift@ImagePixelMappingShiftXY@@QAEXN@Z 004306f0 f i ImageMappingDemo.obj
 0001:0002f710       ?setYShift@ImagePixelMappingShiftXY@@QAEXN@Z 00430710 f i ImageMappingDemo.obj
 0001:0002f730       ??0InitialState@@QAE@PAVGameEngine@@@Z 00430730 f   InitialState.obj
 0001:0002f810       ?virtSetupBackgroundBuffer@InitialState@@UAEXXZ 00430810 f   InitialState.obj
 0001:0002fb50       ?virtMainLoopDoBeforeUpdate@InitialState@@UAEXXZ 00430b50 f   InitialState.obj
 0001:0002fc70       ?virtCreateSurface@InitialState@@UAEXXZ 00430c70 f   InitialState.obj
 0001:0002fd30       ?virtDrawStringsUnderneath@InitialState@@UAEXXZ 00430d30 f   InitialState.obj
 0001:0002fe60       ?virtMouseDown@InitialState@@UAEXHHH@Z 00430e60 f   InitialState.obj
 0001:00030390       ??1InitialState@@UAE@XZ    00431390 f i InitialState.obj
 0001:00030400       ??_GInitialState@@UAEPAXI@Z 00431400 f i InitialState.obj
 0001:00030400       ??_EInitialState@@UAEPAXI@Z 00431400 f i InitialState.obj
 0001:00030440       ??0LoseState@@QAE@PAVGameEngine@@@Z 00431440 f   LoseState.obj
 0001:00030500       ?virtSetupBackgroundBuffer@LoseState@@UAEXXZ 00431500 f   LoseState.obj
 0001:00030590       ?virtMainLoopDoBeforeUpdate@LoseState@@UAEXXZ 00431590 f   LoseState.obj
 0001:000305e0       ?copyAllBackgroundBuffer@LoseState@@UAEXXZ 004315e0 f   LoseState.obj
 0001:00030690       ?virtDrawStringsUnderneath@LoseState@@UAEXXZ 00431690 f   LoseState.obj
 0001:00030780       ?virtMouseDown@LoseState@@UAEXHHH@Z 00431780 f   LoseState.obj
 0001:00030bc0       ??1LoseState@@UAE@XZ       00431bc0 f i LoseState.obj
 0001:00030bf0       ??_ELoseState@@UAEPAXI@Z   00431bf0 f i LoseState.obj
 0001:00030bf0       ??_GLoseState@@UAEPAXI@Z   00431bf0 f i LoseState.obj
 0001:00030c30       _SDL_main                  00431c30 f   mainfunction.obj
 0001:00030c90       ?doProgram@@YAHHQAPAD@Z    00431c90 f   mainfunction.obj
 0001:00030dd0       ??$_Erase_head@V?$allocator@U?$_Tree_node@U?$pair@$$CBV?$basic_string@DU?$char_traits@D@std@@V?$allocator@D@2@@std@@V?$shared_ptr@VRawImageData@@@2@@std@@PAX@std@@@std@@@?$_Tree_val@U?$_Tree_simple_types@U?$pair@$$CBV?$basic_string@DU?$char_traits@D@std@@V?$allocator@D@2@@std@@V?$shared_ptr@VRawImageData@@@2@@std@@@std@@@std@@QAEXAAV?$allocator@U?$_Tree_node@U?$pair@$$CBV?$basic_string@DU?$char_traits@D@std@@V?$allocator@D@2@@std@@V?$shared_ptr@VRawImageData@@@2@@std@@PAX@std@@@1@@Z 00431dd0 f i mainfunction.obj
 0001:00030e20       ??$_Erase_tree@V?$allocator@U?$_Tree_node@U?$pair@$$CBV?$basic_string@DU?$char_traits@D@std@@V?$allocator@D@2@@std@@V?$shared_ptr@VRawImageData@@@2@@std@@PAX@std@@@std@@@?$_Tree_val@U?$_Tree_simple_types@U?$pair@$$CBV?$basic_string@DU?$char_traits@D@std@@V?$allocator@D@2@@std@@V?$shared_ptr@VRawImageData@@@2@@std@@@std@@@std@@QAEXAAV?$allocator@U?$_Tree_node@U?$pair@$$CBV?$basic_string@DU?$char_traits@D@std@@V?$allocator@D@2@@std@@V?$shared_ptr@VRawImageData@@@2@@std@@PAX@std@@@1@PAU?$_Tree_node@U?$pair@$$CBV?$basic_string@DU?$char_traits@D@std@@V?$allocator@D@2@@std@@V?$shared_ptr@VRawImageData@@@2@@std@@PAX@1@@Z 00431e20 f i mainfunction.obj
 0001:00030e80       ??$_Freenode0@V?$allocator@U?$_Tree_node@U?$pair@$$CBV?$basic_string@DU?$char_traits@D@std@@V?$allocator@D@2@@std@@V?$shared_ptr@VRawImageData@@@2@@std@@PAX@std@@@std@@@?$_Tree_node@U?$pair@$$CBV?$basic_string@DU?$char_traits@D@std@@V?$allocator@D@2@@std@@V?$shared_ptr@VRawImageData@@@2@@std@@PAX@std@@SAXAAV?$allocator@U?$_Tree_node@U?$pair@$$CBV?$basic_string@DU?$char_traits@D@std@@V?$allocator@D@2@@std@@V?$shared_ptr@VRawImageData@@@2@@std@@PAX@std@@@1@PAU01@@Z 00431e80 f i mainfunction.obj
 0001:00030f10       ??$_Freenode@V?$allocator@U?$_Tree_node@U?$pair@$$CBV?$basic_string@DU?$char_traits@D@std@@V?$allocator@D@2@@std@@V?$shared_ptr@VRawImageData@@@2@@std@@PAX@std@@@std@@@?$_Tree_node@U?$pair@$$CBV?$basic_string@DU?$char_traits@D@std@@V?$allocator@D@2@@std@@V?$shared_ptr@VRawImageData@@@2@@std@@PAX@std@@SAXAAV?$allocator@U?$_Tree_node@U?$pair@$$CBV?$basic_string@DU?$char_traits@D@std@@V?$allocator@D@2@@std@@V?$shared_ptr@VRawImageData@@@2@@std@@PAX@std@@@1@PAU01@@Z 00431f10 f i mainfunction.obj
 0001:00030f90       ??$exchange@PAU?$_Tree_node@U?$pair@$$CBV?$basic_string@DU?$char_traits@D@std@@V?$allocator@D@2@@std@@V?$shared_ptr@VRawImageData@@@2@@std@@PAX@std@@AAPAU12@@std@@YAPAU?$_Tree_node@U?$pair@$$CBV?$basic_string@DU?$char_traits@D@std@@V?$allocator@D@2@@std@@V?$shared_ptr@VRawImageData@@@2@@std@@PAX@0@AAPAU10@0@Z 00431f90 f i mainfunction.obj
 0001:00030fc0       ??0GameEngine@@QAE@XZ      00431fc0 f i mainfunction.obj
 0001:000310c0       ??0GameTileManager@@QAE@XZ 004320c0 f i mainfunction.obj
 0001:00031160       ??0TileManager@@QAE@HHHH@Z 00432160 f i mainfunction.obj
 0001:000311f0       ??1?$_Tree@V?$_Tmap_traits@V?$basic_string@DU?$char_traits@D@std@@V?$allocator@D@2@@std@@V?$shared_ptr@VRawImageData@@@2@U?$less@V?$basic_string@DU?$char_traits@D@std@@V?$allocator@D@2@@std@@@2@V?$allocator@U?$pair@$$CBV?$basic_string@DU?$char_traits@D@std@@V?$allocator@D@2@@std@@V?$shared_ptr@VRawImageData@@@2@@std@@@2@$0A@@std@@@std@@QAE@XZ 004321f0 f i mainfunction.obj
 0001:00031260       ??1?$map@V?$basic_string@DU?$char_traits@D@std@@V?$allocator@D@2@@std@@V?$shared_ptr@VRawImageData@@@2@U?$less@V?$basic_string@DU?$char_traits@D@std@@V?$allocator@D@2@@std@@@2@V?$allocator@U?$pair@$$CBV?$basic_string@DU?$char_traits@D@std@@V?$allocator@D@2@@std@@V?$shared_ptr@VRawImageData@@@2@@std@@@2@@std@@QAE@XZ 00432260 f i mainfunction.obj
 0001:00031280       ??1GameEngine@@UAE@XZ      00432280 f i mainfunction.obj
 0001:00031300       ??1GameTileManager@@UAE@XZ 00432300 f i mainfunction.obj
 0001:00031330       ??1ImageManager@@QAE@XZ    00432330 f i mainfunction.obj
 0001:00031360       ??1TileManager@@UAE@XZ     00432360 f i mainfunction.obj
 0001:000313b0       ??_GGameEngine@@UAEPAXI@Z  004323b0 f i mainfunction.obj
 0001:000313b0       ??_EGameEngine@@UAEPAXI@Z  004323b0 f i mainfunction.obj
 0001:000313f0       ??_GGameTileManager@@UAEPAXI@Z 004323f0 f i mainfunction.obj
 0001:000313f0       ??_EGameTileManager@@UAEPAXI@Z 004323f0 f i mainfunction.obj
 0001:00031430       ??_GImageManager@@QAEPAXI@Z 00432430 f i mainfunction.obj
 0001:00031470       ??_ETileManager@@UAEPAXI@Z 00432470 f i mainfunction.obj
 0001:00031470       ??_GTileManager@@UAEPAXI@Z 00432470 f i mainfunction.obj
 0001:000314b0       ?deallocate@?$_Default_allocator_traits@V?$allocator@U?$_Tree_node@U?$pair@$$CBV?$basic_string@DU?$char_traits@D@std@@V?$allocator@D@2@@std@@V?$shared_ptr@VRawImageData@@@2@@std@@PAX@std@@@std@@@std@@SAXAAV?$allocator@U?$_Tree_node@U?$pair@$$CBV?$basic_string@DU?$char_traits@D@std@@V?$allocator@D@2@@std@@V?$shared_ptr@VRawImageData@@@2@@std@@PAX@std@@@2@QAU?$_Tree_node@U?$pair@$$CBV?$basic_string@DU?$char_traits@D@std@@V?$allocator@D@2@@std@@V?$shared_ptr@VRawImageData@@@2@@std@@PAX@2@I@Z 004324b0 f i mainfunction.obj
 0001:000314d0       ?destroyImageManager@ImageManager@@SAXXZ 004324d0 f i mainfunction.obj
 0001:00031530       ?setMapSize@TileManager@@QAEXHH@Z 00432530 f i mainfunction.obj
 0001:000315e0       ??0BaseEngine@@QAE@XZ      004325e0 f   BaseEngine.obj
 0001:00031820       ??1BaseEngine@@UAE@XZ      00432820 f   BaseEngine.obj
 0001:00031870       ?initialise@BaseEngine@@QAEHPBDHH0H@Z 00432870 f   BaseEngine.obj
 0001:000319a0       ?deinitialise@BaseEngine@@QAEXXZ 004329a0 f   BaseEngine.obj
 0001:000319d0       ?mainLoop@BaseEngine@@QAEHXZ 004329d0 f   BaseEngine.obj
 0001:00031b00       ?handleEvent@BaseEngine@@QAE_NPATSDL_Event@@@Z 00432b00 f   BaseEngine.obj
 0001:00032140       ?isKeyPressed@BaseEngine@@QBE_NH@Z 00433140 f   BaseEngine.obj
 0001:00032170       ?virtKeyUp@BaseEngine@@UAEXH@Z 00433170 f   BaseEngine.obj
 0001:00032180       ?virtKeyDown@BaseEngine@@UAEXH@Z 00433180 f   BaseEngine.obj
 0001:00032190       ?virtMouseMoved@BaseEngine@@UAEXHH@Z 00433190 f   BaseEngine.obj
 0001:000321a0       ?virtMouseDown@BaseEngine@@UAEXHHH@Z 004331a0 f   BaseEngine.obj
 0001:000321b0       ?virtMouseUp@BaseEngine@@UAEXHHH@Z 004331b0 f   BaseEngine.obj
 0001:000321c0       ?virtInitialise@BaseEngine@@UAEHXZ 004331c0 f   BaseEngine.obj
 0001:00032210       ?virtCreateWindows@BaseEngine@@UAEXPBD@Z 00433210 f   BaseEngine.obj
 0001:000322a0       ?virtCreateSurfaces@BaseEngine@@UAEXXZ 004332a0 f   BaseEngine.obj
 0001:000322f0       ?virtCleanUp@BaseEngine@@UAEXXZ 004332f0 f   BaseEngine.obj
 0001:00032300       ?virtSetupBackgroundBuffer@BaseEngine@@UAEXXZ 00433300 f   BaseEngine.obj
 0001:00032320       ?virtDrawStringsUnderneath@BaseEngine@@UAEXXZ 00433320 f   BaseEngine.obj
 0001:00032330       ?virtDrawStringsOnTop@BaseEngine@@UAEXXZ 00433330 f   BaseEngine.obj
 0001:00032340       ?virtCheckForUpdateTime@BaseEngine@@UAE_NXZ 00433340 f   BaseEngine.obj
 0001:00032390       ?virtRenderScreen@BaseEngine@@UAEXXZ 00433390 f   BaseEngine.obj
 0001:00032520       ?getColour@BaseEngine@@QBEIH@Z 00433520 f   BaseEngine.obj
 0001:00032760       ?virtInitialiseObjects@BaseEngine@@UAEHXZ 00433760 f   BaseEngine.obj
 0001:00032790       ?drawAllObjects@BaseEngine@@UAEXXZ 00433790 f   BaseEngine.obj
 0001:00032950       ?updateAllObjects@BaseEngine@@UAEXH@Z 00433950 f   BaseEngine.obj
 0001:00032b10       _mydebug                   00433b10 f   BaseEngine.obj
 0001:00033750       ??0DisplayableObjectContainer@@QAE@H@Z 00434750 f i BaseEngine.obj
 0001:000337b0       ??1DisplayableObjectContainer@@UAE@XZ 004347b0 f i BaseEngine.obj
 0001:00033820       ??_GBaseEngine@@UAEPAXI@Z  00434820 f i BaseEngine.obj
 0001:00033820       ??_EBaseEngine@@UAEPAXI@Z  00434820 f i BaseEngine.obj
 0001:00033860       ??_EDisplayableObjectContainer@@UAEPAXI@Z 00434860 f i BaseEngine.obj
 0001:00033860       ??_GDisplayableObjectContainer@@UAEPAXI@Z 00434860 f i BaseEngine.obj
 0001:000338a0       ?isTimeToAct@BaseEngine@@QBE_NXZ 004348a0 f i BaseEngine.obj
 0001:000338e0       ?setTimeToAct@BaseEngine@@QAEXH@Z 004348e0 f i BaseEngine.obj
 0001:00033910       ?symbolToKeycode@BaseEngine@@SAHH@Z 00434910 f i BaseEngine.obj
 0001:00033e00       ?virtMainLoopDoBeforeUpdate@BaseEngine@@UAEXXZ 00434e00 f i BaseEngine.obj
 0001:00033e10       _fprintf                   00434e10 f i BaseEngine.obj
 0001:00033e50       ??0DisplayableObject@@QAE@PAVBaseEngine@@HH_N@Z 00434e50 f   DisplayableObject.obj
 0001:00033f10       ??0DisplayableObject@@QAE@HHPAVBaseEngine@@HH_N@Z 00434f10 f   DisplayableObject.obj
 0001:00033fd0       ??1DisplayableObject@@UAE@XZ 00434fd0 f   DisplayableObject.obj
 0001:00033ff0       ?virtDraw@DisplayableObject@@UAEXXZ 00434ff0 f   DisplayableObject.obj
 0001:00034090       ?virtDoUpdate@DisplayableObject@@UAEXH@Z 00435090 f   DisplayableObject.obj
 0001:000340a0       ?redrawDisplay@DisplayableObject@@QAEXXZ 004350a0 f   DisplayableObject.obj
 0001:000340c0       ?redrawRectangle@DisplayableObject@@QAEXXZ 004350c0 f   DisplayableObject.obj
 0001:00034100       ?virtIsObjectInRedrawArea@DisplayableObject@@QAE_NXZ 00435100 f   DisplayableObject.obj
 0001:000341a0       ?fixPosition@DisplayableObject@@QAEXXZ 004351a0 f   DisplayableObject.obj
 0001:00034370       ??_EDisplayableObject@@UAEPAXI@Z 00435370 f i DisplayableObject.obj
 0001:00034370       ??_GDisplayableObject@@UAEPAXI@Z 00435370 f i DisplayableObject.obj
 0001:000343b0       ?convertVirtualPixelToClickedXPosition@BaseEngine@@QAEHH@Z 004353b0 f i DisplayableObject.obj
 0001:000343e0       ?convertVirtualPixelToClickedYPosition@BaseEngine@@QAEHH@Z 004353e0 f i DisplayableObject.obj
 0001:00034410       ?convertVirtualToRealXPosition@DrawingSurface@@QAEHH@Z 00435410 f i DisplayableObject.obj
 0001:00034450       ?convertVirtualToRealYPosition@DrawingSurface@@QAEHH@Z 00435450 f i DisplayableObject.obj
 0001:00034490       ?redrawRectangle@BaseEngine@@QAEXHHHH@Z 00435490 f i DisplayableObject.obj
 0001:00034600       ?setForegroundPixel@BaseEngine@@QAEXHHI@Z 00435600 f i DisplayableObject.obj
 0001:00034630       ??0FontManager@@QAE@XZ     00435630 f   FontManager.obj
 0001:000346a0       ??1FontManager@@QAE@XZ     004356a0 f   FontManager.obj
 0001:00034710       ?getFont@FontManager@@QAEPAVFont@@PBDH@Z 00435710 f   FontManager.obj
 0001:000348b0       ?loadFonts@FontManager@@QAEXXZ 004358b0 f   FontManager.obj
 0001:000349e0       ??$growArrayOfObjects@PAVFont@@@@YAPAPAVFont@@PAPAV0@AAHH@Z 004359e0 f i FontManager.obj
 0001:00034aa0       ??0Font@@QAE@PBDH@Z        00435aa0 f i FontManager.obj
 0001:00034b20       ??1Font@@QAE@XZ            00435b20 f i FontManager.obj
 0001:00034ba0       ??_GFont@@QAEPAXI@Z        00435ba0 f i FontManager.obj
 0001:00034be0       ?getName@Font@@QAEPBDXZ    00435be0 f i FontManager.obj
 0001:00034c00       ?getSize@Font@@QAEHXZ      00435c00 f i FontManager.obj
 0001:00034c20       ?virtDoUpdate@RegularEnemyObject@@UAEXH@Z 00435c20 f   RegularEnemyObject.obj
 0001:00034cb0       ?loadObjectImages@RegularEnemyObject@@UAEXXZ 00435cb0 f   RegularEnemyObject.obj
 0001:00034e30       ??6@YAAAV?$basic_ostream@DU?$char_traits@D@std@@@std@@AAV01@AAVRegularEnemyObject@@@Z 00435e30 f   RegularEnemyObject.obj
 0001:00034fc0       ??0UploadState@@QAE@PAVGameEngine@@@Z 00435fc0 f   UploadState.obj
 0001:00034ff0       ?virtSetupBackgroundBuffer@UploadState@@UAEXXZ 00435ff0 f   UploadState.obj
 0001:000350c0       ?virtDrawStringsUnderneath@UploadState@@UAEXXZ 004360c0 f   UploadState.obj
 0001:00035150       ?virtKeyDown@UploadState@@UAEXH@Z 00436150 f   UploadState.obj
 0001:00035820       ??$?0ABVGameRecord@@@?$_Alloc_temporary@V?$allocator@VGameRecord@@@std@@@std@@QAE@AAV?$allocator@VGameRecord@@@1@ABVGameRecord@@@Z 00436820 f i UploadState.obj
 0001:00035880       ??$_Emplace_back_with_unused_capacity@ABVGameRecord@@@?$vector@VGameRecord@@V?$allocator@VGameRecord@@@std@@@std@@AAE?A_TABVGameRecord@@@Z 00436880 f i UploadState.obj
 0001:00035920       ??$_Emplace_reallocate@ABVGameRecord@@@?$vector@VGameRecord@@V?$allocator@VGameRecord@@@std@@@std@@QAEPAVGameRecord@@QAV2@ABV2@@Z 00436920 f i UploadState.obj
 0001:00035b70       ??$_Move_backward_unchecked@PAVGameRecord@@PAV1@@std@@YAPAVGameRecord@@PAV1@00@Z 00436b70 f i UploadState.obj
 0001:00035bc0       ??$_Pocma@V?$allocator@D@std@@@std@@YAXAAV?$allocator@D@0@0@Z 00436bc0 f i UploadState.obj
 0001:00035be0       ??$addressof@V?$_Vector_val@U?$_Simple_types@VGameRecord@@@std@@@std@@@std@@YAPAV?$_Vector_val@U?$_Simple_types@VGameRecord@@@std@@@0@AAV10@@Z 00436be0 f i UploadState.obj
 0001:00035bf0       ??$addressof@V?$basic_string@DU?$char_traits@D@std@@V?$allocator@D@2@@std@@@std@@YAPAV?$basic_string@DU?$char_traits@D@std@@V?$allocator@D@2@@0@AAV10@@Z 00436bf0 f i UploadState.obj
 0001:00035c00       ??$addressof@VGameRecord@@@std@@YAPAVGameRecord@@AAV1@@Z 00436c00 f i UploadState.obj
 0001:00035c10       ??$construct@VGameRecord@@ABV1@@?$_Default_allocator_traits@V?$allocator@VGameRecord@@@std@@@std@@SAXAAV?$allocator@VGameRecord@@@1@QAVGameRecord@@ABV3@@Z 00436c10 f i UploadState.obj
 0001:00035c60       ??$emplace@ABVGameRecord@@@?$vector@VGameRecord@@V?$allocator@VGameRecord@@@std@@@std@@QAE?AV?$_Vector_iterator@V?$_Vector_val@U?$_Simple_types@VGameRecord@@@std@@@std@@@1@V?$_Vector_const_iterator@V?$_Vector_val@U?$_Simple_types@VGameRecord@@@std@@@std@@@1@ABVGameRecord@@@Z 00436c60 f i UploadState.obj
 0001:00035f10       ??$forward@ABVGameRecord@@@std@@YAABVGameRecord@@ABV1@@Z 00436f10 f i UploadState.obj
 0001:00035f20       ??0?$_Vector_const_iterator@V?$_Vector_val@U?$_Simple_types@VGameRecord@@@std@@@std@@@std@@QAE@ABV01@@Z 00436f20 f i UploadState.obj
 0001:00035f60       ??0?$_Vector_const_iterator@V?$_Vector_val@U?$_Simple_types@VGameRecord@@@std@@@std@@@std@@QAE@PAVGameRecord@@PBU_Container_base12@1@@Z 00436f60 f i UploadState.obj
 0001:00035fa0       ??0?$_Vector_iterator@V?$_Vector_val@U?$_Simple_types@VGameRecord@@@std@@@std@@@std@@QAE@ABV01@@Z 00436fa0 f i UploadState.obj
 0001:00035fd0       ??0?$_Vector_iterator@V?$_Vector_val@U?$_Simple_types@VGameRecord@@@std@@@std@@@std@@QAE@PAVGameRecord@@PBU_Container_base12@1@@Z 00436fd0 f i UploadState.obj
 0001:00036000       ??0GameRecord@@QAE@ABV0@@Z 00437000 f i UploadState.obj
 0001:00036050       ??1?$_Alloc_temporary@V?$allocator@VGameRecord@@@std@@@std@@QAE@XZ 00437050 f i UploadState.obj
 0001:000360c0       ??1?$_Vector_const_iterator@V?$_Vector_val@U?$_Simple_types@VGameRecord@@@std@@@std@@@std@@QAE@XZ 004370c0 f i UploadState.obj
 0001:000360e0       ??1?$_Vector_iterator@V?$_Vector_val@U?$_Simple_types@VGameRecord@@@std@@@std@@@std@@QAE@XZ 004370e0 f i UploadState.obj
 0001:00036100       ??1UploadState@@UAE@XZ     00437100 f i UploadState.obj
 0001:00036130       ??4?$_Vector_const_iterator@V?$_Vector_val@U?$_Simple_types@VGameRecord@@@std@@@std@@@std@@QAEAAV01@ABV01@@Z 00437130 f i UploadState.obj
 0001:00036170       ??4?$_Vector_iterator@V?$_Vector_val@U?$_Simple_types@VGameRecord@@@std@@@std@@@std@@QAEAAV01@ABV01@@Z 00437170 f i UploadState.obj
 0001:000361a0       ??4?$basic_string@DU?$char_traits@D@std@@V?$allocator@D@2@@std@@QAEAAV01@$$QAV01@@Z 004371a0 f i UploadState.obj
 0001:000361f0       ??4?$basic_string@DU?$char_traits@D@std@@V?$allocator@D@2@@std@@QAEAAV01@QBD@Z 004371f0 f i UploadState.obj
 0001:00036210       ??4GameRecord@@QAEAAV0@$$QAV0@@Z 00437210 f i UploadState.obj
 0001:00036260       ??6@YAAAV?$basic_ostream@DU?$char_traits@D@std@@@std@@AAV01@AAVGameRecord@@@Z 00437260 f i UploadState.obj
 0001:000362e0       ??8?$_Vector_const_iterator@V?$_Vector_val@U?$_Simple_types@VGameRecord@@@std@@@std@@@std@@QBE_NABV01@@Z 004372e0 f i UploadState.obj
 0001:00036330       ??9?$_Vector_const_iterator@V?$_Vector_val@U?$_Simple_types@VGameRecord@@@std@@@std@@@std@@QBE_NABV01@@Z 00437330 f i UploadState.obj
 0001:00036380       ??D?$_Vector_const_iterator@V?$_Vector_val@U?$_Simple_types@VGameRecord@@@std@@@std@@@std@@QBEABVGameRecord@@XZ 00437380 f i UploadState.obj
 0001:00036490       ??D?$_Vector_iterator@V?$_Vector_val@U?$_Simple_types@VGameRecord@@@std@@@std@@@std@@QBEAAVGameRecord@@XZ 00437490 f i UploadState.obj
 0001:000364b0       ??E?$_Vector_const_iterator@V?$_Vector_val@U?$_Simple_types@VGameRecord@@@std@@@std@@@std@@QAEAAV01@XZ 004374b0 f i UploadState.obj
 0001:000365c0       ??E?$_Vector_iterator@V?$_Vector_val@U?$_Simple_types@VGameRecord@@@std@@@std@@@std@@QAE?AV01@H@Z 004375c0 f i UploadState.obj
 0001:00036610       ??M@YA_NAAVGameRecord@@0@Z 00437610 f i UploadState.obj
 0001:00036670       ??Y?$basic_string@DU?$char_traits@D@std@@V?$allocator@D@2@@std@@QAEAAV01@D@Z 00437670 f i UploadState.obj
 0001:000366a0       ??_EUploadState@@UAEPAXI@Z 004376a0 f i UploadState.obj
 0001:000366a0       ??_GUploadState@@UAEPAXI@Z 004376a0 f i UploadState.obj
 0001:000366e0       ?_Compat@?$_Vector_const_iterator@V?$_Vector_val@U?$_Simple_types@VGameRecord@@@std@@@std@@@std@@QBEXABV12@@Z 004376e0 f i UploadState.obj
 0001:00036780       ?_Make_iterator@?$vector@VGameRecord@@V?$allocator@VGameRecord@@@std@@@std@@AAE?AV?$_Vector_iterator@V?$_Vector_val@U?$_Simple_types@VGameRecord@@@std@@@std@@@2@QAVGameRecord@@@Z 00437780 f i UploadState.obj
 0001:000367c0       ?_Move_assign@?$basic_string@DU?$char_traits@D@std@@V?$allocator@D@2@@std@@AAEXAAV12@U_Equal_allocators@2@@Z 004377c0 f i UploadState.obj
 0001:00036810       ?begin@?$vector@VGameRecord@@V?$allocator@VGameRecord@@@std@@@std@@QAE?AV?$_Vector_iterator@V?$_Vector_val@U?$_Simple_types@VGameRecord@@@std@@@std@@@2@XZ 00437810 f i UploadState.obj
 0001:00036860       ?empty@?$basic_string@DU?$char_traits@D@std@@V?$allocator@D@2@@std@@QBE_NXZ 00437860 f i UploadState.obj
 0001:000368a0       ?end@?$vector@VGameRecord@@V?$allocator@VGameRecord@@@std@@@std@@QAE?AV?$_Vector_iterator@V?$_Vector_val@U?$_Simple_types@VGameRecord@@@std@@@std@@@2@XZ 004378a0 f i UploadState.obj
 0001:000368f0       ?insert@?$vector@VGameRecord@@V?$allocator@VGameRecord@@@std@@@std@@QAE?AV?$_Vector_iterator@V?$_Vector_val@U?$_Simple_types@VGameRecord@@@std@@@std@@@2@V?$_Vector_const_iterator@V?$_Vector_val@U?$_Simple_types@VGameRecord@@@std@@@std@@@2@ABVGameRecord@@@Z 004378f0 f i UploadState.obj
 0001:000369a0       ?length@?$basic_string@DU?$char_traits@D@std@@V?$allocator@D@2@@std@@QBEIXZ 004379a0 f i UploadState.obj
 0001:000369c0       ?pop_back@?$basic_string@DU?$char_traits@D@std@@V?$allocator@D@2@@std@@QAEXXZ 004379c0 f i UploadState.obj
 0001:00036aa0       ?virtDraw@UserObject@@UAEXXZ 00437aa0 f   UserObject.obj
 0001:00036bd0       ?virtDoUpdate@UserObject@@UAEXH@Z 00437bd0 f   UserObject.obj
 0001:000370b0       ?loadObjectImages@UserObject@@UAEXXZ 004380b0 f   UserObject.obj
 0001:00037230       ?getObjectPixelMap@UserObject@@UAE?AV?$vector@V?$vector@HV?$allocator@H@std@@@std@@V?$allocator@V?$vector@HV?$allocator@H@std@@@std@@@2@@std@@XZ 00438230 f   UserObject.obj
 0001:000373a0       ??6@YAAAV?$basic_ostream@DU?$char_traits@D@std@@@std@@AAV01@AAVUserObject@@@Z 004383a0 f   UserObject.obj
 0001:00037480       ?doubleToInt@UserObject@@AAEHN@Z 00438480 f   UserObject.obj
 0001:000374a0       ?calcUpCollisionDistance@UserObject@@AAEHXZ 004384a0 f   UserObject.obj
 0001:00037750       ?calcDownCollisionDistance@UserObject@@AAEHXZ 00438750 f   UserObject.obj
 0001:00037a00       ?calcLeftCollisionDistance@UserObject@@AAEHXZ 00438a00 f   UserObject.obj
 0001:00037cb0       ?calcRightCollisionDistance@UserObject@@AAEHXZ 00438cb0 f   UserObject.obj
 0001:00038490       ??$?0V?$allocator@V?$vector@HV?$allocator@H@std@@@std@@@std@@$$V@?$_Compressed_pair@V?$allocator@V?$vector@HV?$allocator@H@std@@@std@@@std@@V?$_Vector_val@U?$_Simple_types@V?$vector@HV?$allocator@H@std@@@std@@@std@@@2@$00@std@@QAE@U_One_then_variadic_args_t@1@$$QAV?$allocator@V?$vector@HV?$allocator@H@std@@@std@@@1@@Z 00439490 f i UserObject.obj
 0001:000384c0       ??$_Emplace_back@AAV?$vector@HV?$allocator@H@std@@@std@@@?$_Uninitialized_backout_al@V?$allocator@V?$vector@HV?$allocator@H@std@@@std@@@std@@@std@@QAEXAAV?$vector@HV?$allocator@H@std@@@1@@Z 004394c0 f i UserObject.obj
 0001:00038520       ??$_Get_unwrapped@ABQAV?$vector@HV?$allocator@H@std@@@std@@@std@@YA?A_TABQAV?$vector@HV?$allocator@H@std@@@0@@Z 00439520 f i UserObject.obj
 0001:00038530       ??$_Ucopy@PAV?$vector@HV?$allocator@H@std@@@std@@@?$vector@V?$vector@HV?$allocator@H@std@@@std@@V?$allocator@V?$vector@HV?$allocator@H@std@@@std@@@2@@std@@AAEPAV?$vector@HV?$allocator@H@std@@@1@PAV21@00@Z 00439530 f i UserObject.obj
 0001:00038570       ??$_Uninitialized_copy@PAV?$vector@HV?$allocator@H@std@@@std@@V?$allocator@V?$vector@HV?$allocator@H@std@@@std@@@2@@std@@YAPAV?$vector@HV?$allocator@H@std@@@0@QAV10@0PAV10@AAV?$allocator@V?$vector@HV?$allocator@H@std@@@std@@@0@@Z 00439570 f i UserObject.obj
 0001:00038640       ??$construct@V?$vector@HV?$allocator@H@std@@@std@@AAV12@@?$_Default_allocator_traits@V?$allocator@V?$vector@HV?$allocator@H@std@@@std@@@std@@@std@@SAXAAV?$allocator@V?$vector@HV?$allocator@H@std@@@std@@@1@QAV?$vector@HV?$allocator@H@std@@@1@AAV31@@Z 00439640 f i UserObject.obj
 0001:00038690       ??$forward@AAV?$vector@HV?$allocator@H@std@@@std@@@std@@YAAAV?$vector@HV?$allocator@H@std@@@0@AAV10@@Z 00439690 f i UserObject.obj
 0001:000386a0       ??0?$vector@V?$vector@HV?$allocator@H@std@@@std@@V?$allocator@V?$vector@HV?$allocator@H@std@@@std@@@2@@std@@QAE@ABV01@@Z 004396a0 f i UserObject.obj
 0001:00038800       ?calcCollisionDistance@MyCollisionDetector@@SAHHHV?$vector@V?$vector@HV?$allocator@H@std@@@std@@V?$allocator@V?$vector@HV?$allocator@H@std@@@std@@@2@@std@@HH0H@Z 00439800 f i UserObject.obj
 0001:00038a90       ?select_on_container_copy_construction@?$_Default_allocator_traits@V?$allocator@V?$vector@HV?$allocator@H@std@@@std@@@std@@@std@@SA?AV?$allocator@V?$vector@HV?$allocator@H@std@@@std@@@2@ABV32@@Z 00439a90 f i UserObject.obj
 0001:00038aa0       ?mapCoordinates@CroppedImagePixelMapping@@UAE_NAAN0ABVSimpleImage@@@Z 00439aa0 f i SimpleImage.obj
 0001:00038b40       ??0SimpleImage@@QAE@XZ     00439b40 f   SimpleImage.obj
 0001:00038b70       ??0SimpleImage@@QAE@V?$shared_ptr@VRawImageData@@@std@@@Z 00439b70 f   SimpleImage.obj
 0001:00038bb0       ?exists@SimpleImage@@QBE_NXZ 00439bb0 f   SimpleImage.obj
 0001:00038bd0       ?renderImage@SimpleImage@@QBEXPAVDrawingSurface@@HHHHHH@Z 00439bd0 f   SimpleImage.obj
 0001:00038ce0       ?renderImageWithMask@SimpleImage@@QBEXPAVDrawingSurface@@HHHHHHH@Z 00439ce0 f   SimpleImage.obj
 0001:00038e20       ?renderImageWithMaskAndTransparency@SimpleImage@@QBEXPAVDrawingSurface@@HHHHHHHH@Z 00439e20 f   SimpleImage.obj
 0001:00038ff0       ?renderImageBlit@SimpleImage@@QAEXPAVBaseEngine@@PAVDrawingSurface@@HHHHHHHH@Z 00439ff0 f   SimpleImage.obj
 0001:000392a0       ?adjustXYWidthHeight@SimpleImage@@SA_NPAVDrawingSurface@@AAH11111@Z 0043a2a0 f   SimpleImage.obj
 0001:000394a0       ?renderImageApplyingMapping@SimpleImage@@QBEXPAVBaseEngine@@PAVDrawingSurface@@HHHHPAVImagePixelMapping@@@Z 0043a4a0 f   SimpleImage.obj
 0001:00039ab0       ??BDrawingSurface@@QAEPAUSDL_Surface@@XZ 0043aab0 f i SimpleImage.obj
 0001:00039ad0       ?getSurface@RawImageData@@QAEPAUSDL_Surface@@XZ 0043aad0 f i SimpleImage.obj
 0001:00039af0       ?rawGetPixel@DrawingSurface@@QBEIHH@Z 0043aaf0 f i SimpleImage.obj
 0001:00039b60       ?virtSetupBackgroundBuffer@SimpleDemo@@UAEXXZ 0043ab60 f   SimpleDemo.obj
 0001:00039ca0       ?virtInitialiseObjects@SimpleDemo@@UAEHXZ 0043aca0 f   SimpleDemo.obj
 0001:00039e20       ?virtDrawStringsUnderneath@SimpleDemo@@UAEXXZ 0043ae20 f   SimpleDemo.obj
 0001:00039ea0       ?virtDrawStringsOnTop@SimpleDemo@@UAEXXZ 0043aea0 f   SimpleDemo.obj
 0001:00039f60       ?virtMouseDown@SimpleDemo@@UAEXHHH@Z 0043af60 f   SimpleDemo.obj
 0001:00039f80       ?virtKeyDown@SimpleDemo@@UAEXH@Z 0043af80 f   SimpleDemo.obj
 0001:0003a0f0       ??0BouncingObject@@QAE@PAVBaseEngine@@HHNNNN@Z 0043b0f0 f i SimpleDemo.obj
 0001:0003a1c0       ??1BouncingObject@@UAE@XZ  0043b1c0 f i SimpleDemo.obj
 0001:0003a1e0       ??_GBouncingObject@@UAEPAXI@Z 0043b1e0 f i SimpleDemo.obj
 0001:0003a1e0       ??_EBouncingObject@@UAEPAXI@Z 0043b1e0 f i SimpleDemo.obj
 0001:0003a220       ?appendObjectToArray@DisplayableObjectContainer@@QAEXPAVDisplayableObject@@@Z 0043b220 f i SimpleDemo.obj
 0001:0003a260       ?drawForegroundRectangle@BaseEngine@@QAEXHHHHI@Z 0043b260 f i SimpleDemo.obj
 0001:0003a2a0       ?lockAndSetupBackground@BaseEngine@@QAEXXZ 0043b2a0 f i SimpleDemo.obj
 0001:0003a2e0       ?lockBackgroundForDrawing@BaseEngine@@QAEXXZ 0043b2e0 f i SimpleDemo.obj
 0001:0003a300       ?unlockBackgroundForDrawing@BaseEngine@@QAEXXZ 0043b300 f i SimpleDemo.obj
 0001:0003a320       ?virtDoUpdate@BouncingObject@@UAEXH@Z 0043b320 f i SimpleDemo.obj
 0001:0003a720       ?virtDraw@BouncingObject@@UAEXXZ 0043b720 f i SimpleDemo.obj
 0001:0003a7c0       ??0StarfieldDemo@@QAE@XZ   0043b7c0 f   StarfieldDemo.obj
 0001:0003a800       ??1StarfieldDemo@@UAE@XZ   0043b800 f   StarfieldDemo.obj
 0001:0003a830       ?virtSetupBackgroundBuffer@StarfieldDemo@@UAEXXZ 0043b830 f   StarfieldDemo.obj
 0001:0003a970       ?virtMainLoopDoBeforeUpdate@StarfieldDemo@@UAEXXZ 0043b970 f   StarfieldDemo.obj
 0001:0003a9b0       ?copyAllBackgroundBuffer@StarfieldDemo@@UAEXXZ 0043b9b0 f   StarfieldDemo.obj
 0001:0003aaf0       ??_GStarfieldDemo@@UAEPAXI@Z 0043baf0 f i StarfieldDemo.obj
 0001:0003aaf0       ??_EStarfieldDemo@@UAEPAXI@Z 0043baf0 f i StarfieldDemo.obj
 0001:0003ab30       ?drawAllTiles@TileManager@@QBEXPAVBaseEngine@@PAVDrawingSurface@@@Z 0043bb30 f   TileManager.obj
 0001:0003abd0       ?drawSomeTiles@TileManager@@QBEXPAVBaseEngine@@PAVDrawingSurface@@HHHH@Z 0043bbd0 f   TileManager.obj
 0001:0003ac70       ?virtDrawTileAt@TileManager@@UBEXPAVBaseEngine@@PAVDrawingSurface@@HHHH@Z 0043bc70 f   TileManager.obj
 0001:0003ad60       ??0BouncingBall@@QAE@PAVBouncingBallMain@@HHHHPBDHH@Z 0043bd60 f   BouncingBall.obj
 0001:0003ae30       ??1BouncingBall@@UAE@XZ    0043be30 f   BouncingBall.obj
 0001:0003ae50       ?virtDraw@BouncingBall@@UAEXXZ 0043be50 f   BouncingBall.obj
 0001:0003b120       ?virtDoUpdate@BouncingBall@@UAEXH@Z 0043c120 f   BouncingBall.obj
 0001:0003b140       ??0BouncingBall1@@QAE@PAVBouncingBallMain@@HHHHPBDHHPAVTileManager@@@Z 0043c140 f   BouncingBall.obj
 0001:0003b1e0       ?setMovement@BouncingBall1@@QAEXHHHHHHH@Z 0043c1e0 f   BouncingBall.obj
 0001:0003b250       ?virtDoUpdate@BouncingBall1@@UAEXH@Z 0043c250 f   BouncingBall.obj
 0001:0003b3c0       ??0BouncingBall2@@QAE@PAVBouncingBallMain@@HHHHPBDHH@Z 0043c3c0 f   BouncingBall.obj
 0001:0003b440       ?setPosition@BouncingBall2@@QAEXNN@Z 0043c440 f   BouncingBall.obj
 0001:0003b470       ?setSpeed@BouncingBall2@@QAEXNN@Z 0043c470 f   BouncingBall.obj
 0001:0003b4a0       ?virtDoUpdate@BouncingBall2@@UAEXH@Z 0043c4a0 f   BouncingBall.obj
 0001:0003ba90       ??0MovementPosition@@QAE@XZ 0043ca90 f i BouncingBall.obj
 0001:0003bb10       ??1BouncingBall1@@UAE@XZ   0043cb10 f i BouncingBall.obj
 0001:0003bb30       ??1BouncingBall2@@UAE@XZ   0043cb30 f i BouncingBall.obj
 0001:0003bb50       ??_EBouncingBall1@@UAEPAXI@Z 0043cb50 f i BouncingBall.obj
 0001:0003bb50       ??_GBouncingBall1@@UAEPAXI@Z 0043cb50 f i BouncingBall.obj
 0001:0003bb90       ??_GBouncingBall2@@UAEPAXI@Z 0043cb90 f i BouncingBall.obj
 0001:0003bb90       ??_EBouncingBall2@@UAEPAXI@Z 0043cb90 f i BouncingBall.obj
 0001:0003bbd0       ??_EBouncingBall@@UAEPAXI@Z 0043cbd0 f i BouncingBall.obj
 0001:0003bbd0       ??_GBouncingBall@@UAEPAXI@Z 0043cbd0 f i BouncingBall.obj
 0001:0003bc10       ?calculate@MovementPosition@@QAEXH@Z 0043cc10 f i BouncingBall.obj
 0001:0003bd00       ?getX@MovementPosition@@QBEHXZ 0043cd00 f i BouncingBall.obj
 0001:0003bd20       ?getY@MovementPosition@@QBEHXZ 0043cd20 f i BouncingBall.obj
 0001:0003bd40       ?hasMovementFinished@MovementPosition@@QBE_NH@Z 0043cd40 f i BouncingBall.obj
 0001:0003bd80       ?isValidTilePosition@TileManager@@QBE_NHH@Z 0043cd80 f i BouncingBall.obj
 0001:0003be10       ?reverse@MovementPosition@@QAEXXZ 0043ce10 f i BouncingBall.obj
 0001:0003bea0       ?setAndRedrawMapValueAt@TileManager@@QAEXHHHPAVBaseEngine@@PAVDrawingSurface@@@Z 0043cea0 f i BouncingBall.obj
 0001:0003bf40       ?setup@MovementPosition@@QAEXHHHHHH@Z 0043cf40 f i BouncingBall.obj
 0001:0003bfb0       ?virtMouseDown@BouncingBall@@UAEXHHH@Z 0043cfb0 f i BouncingBall.obj
 0001:0003bff0       ?virtSetupBackgroundBuffer@BouncingBallMain@@UAEXXZ 0043cff0 f   BouncingBallMain.obj
 0001:0003c830       ?virtInitialiseObjects@BouncingBallMain@@UAEHXZ 0043d830 f   BouncingBallMain.obj
 0001:0003cb00       ?virtDrawStringsUnderneath@BouncingBallMain@@UAEXXZ 0043db00 f   BouncingBallMain.obj
 0001:0003cb40       ?virtMouseDown@BouncingBallMain@@UAEXHHH@Z 0043db40 f   BouncingBallMain.obj
 0001:0003cb80       ?virtKeyDown@BouncingBallMain@@UAEXH@Z 0043db80 f   BouncingBallMain.obj
 0001:0003cea0       ?drawBackgroundLine@BaseEngine@@QAEXHHHHI@Z 0043dea0 f i BouncingBallMain.obj
 0001:0003cf10       ?drawBackgroundPolygon@BaseEngine@@QAEXNNNNNNNNI@Z 0043df10 f i BouncingBallMain.obj
 0001:0003cfd0       ?drawBackgroundPolygon@BaseEngine@@QAEXNNNNNNNNNNI@Z 0043dfd0 f i BouncingBallMain.obj
 0001:0003d0a0       ?drawBackgroundPolygon@BaseEngine@@QAEXNNNNNNNNNNNNI@Z 0043e0a0 f i BouncingBallMain.obj
 0001:0003d190       ?drawBackgroundPolygon@BaseEngine@@QAEXNNNNNNNNNNNNNNI@Z 0043e190 f i BouncingBallMain.obj
 0001:0003d290       ?drawBackgroundPolygon@BaseEngine@@QAEXNNNNNNNNNNNNNNNNI@Z 0043e290 f i BouncingBallMain.obj
 0001:0003d3d0       ?drawBackgroundTriangle@BaseEngine@@QAEXHHHHHHI@Z 0043e3d0 f i BouncingBallMain.obj
 0001:0003d460       ?drawBackgroundVerticalSidedRegion@BaseEngine@@QAEXNNNNNNI@Z 0043e460 f i BouncingBallMain.obj
 0001:0003d4f0       ??0WinState@@QAE@PAVGameEngine@@@Z 0043e4f0 f   WinState.obj
 0001:0003d5b0       ?virtSetupBackgroundBuffer@WinState@@UAEXXZ 0043e5b0 f   WinState.obj
 0001:0003d640       ?virtMainLoopDoBeforeUpdate@WinState@@UAEXXZ 0043e640 f   WinState.obj
 0001:0003d690       ?copyAllBackgroundBuffer@WinState@@UAEXXZ 0043e690 f   WinState.obj
 0001:0003d740       ?virtDrawStringsUnderneath@WinState@@UAEXXZ 0043e740 f   WinState.obj
 0001:0003d830       ?virtMouseDown@WinState@@UAEXHHH@Z 0043e830 f   WinState.obj
 0001:0003dc70       ??1WinState@@UAE@XZ        0043ec70 f i WinState.obj
 0001:0003dca0       ??_GWinState@@UAEPAXI@Z    0043eca0 f i WinState.obj
 0001:0003dca0       ??_EWinState@@UAEPAXI@Z    0043eca0 f i WinState.obj
 0001:0003dce0       ?virtInitialise@ZoomingDemo@@UAEHXZ 0043ece0 f   ZoomingDemo.obj
 0001:0003dd30       ?virtSetupBackgroundBuffer@ZoomingDemo@@UAEXXZ 0043ed30 f   ZoomingDemo.obj
 0001:0003dd50       ?virtInitialiseObjects@ZoomingDemo@@UAEHXZ 0043ed50 f   ZoomingDemo.obj
 0001:0003df10       ?virtDrawStringsUnderneath@ZoomingDemo@@UAEXXZ 0043ef10 f   ZoomingDemo.obj
 0001:0003dfc0       ?virtDrawStringsOnTop@ZoomingDemo@@UAEXXZ 0043efc0 f   ZoomingDemo.obj
 0001:0003e040       ?virtMouseDown@ZoomingDemo@@UAEXHHH@Z 0043f040 f   ZoomingDemo.obj
 0001:0003e090       ?virtKeyDown@ZoomingDemo@@UAEXH@Z 0043f090 f   ZoomingDemo.obj
 0001:0003e190       ?virtMouseWheel@ZoomingDemo@@UAEXHHHH@Z 0043f190 f   ZoomingDemo.obj
 0001:0003e390       ??0SimpleFlashingDragableImageObject@@QAE@HHPAVBaseEngine@@V?$basic_string@DU?$char_traits@D@std@@V?$allocator@D@2@@std@@1_N2@Z 0043f390 f i ZoomingDemo.obj
 0001:0003e590       ??1SimpleFlashingDragableImageObject@@UAE@XZ 0043f590 f i ZoomingDemo.obj
 0001:0003e5d0       ??_ESimpleFlashingDragableImageObject@@UAEPAXI@Z 0043f5d0 f i ZoomingDemo.obj
 0001:0003e5d0       ??_GSimpleFlashingDragableImageObject@@UAEPAXI@Z 0043f5d0 f i ZoomingDemo.obj
 0001:0003e610       ?changeOffset@FilterPointsTranslation@@QAEXHH@Z 0043f610 f i ZoomingDemo.obj
 0001:0003e650       ?compress@FilterPointsScaling@@QAEXXZ 0043f650 f i ZoomingDemo.obj
 0001:0003e680       ?compressX@FilterPointsScaling@@QAEXXZ 0043f680 f i ZoomingDemo.obj
 0001:0003e6d0       ?compressY@FilterPointsScaling@@QAEXXZ 0043f6d0 f i ZoomingDemo.obj
 0001:0003e720       ?setOffset@FilterPointsTranslation@@QAEXHH@Z 0043f720 f i ZoomingDemo.obj
 0001:0003e750       ?stretch@FilterPointsScaling@@QAEXXZ 0043f750 f i ZoomingDemo.obj
 0001:0003e780       ?stretchX@FilterPointsScaling@@QAEXXZ 0043f780 f i ZoomingDemo.obj
 0001:0003e7d0       ?stretchY@FilterPointsScaling@@QAEXXZ 0043f7d0 f i ZoomingDemo.obj
 0001:0003e820       ?virtDoUpdate@SimpleFlashingDragableImageObject@@UAEXH@Z 0043f820 f i ZoomingDemo.obj
 0001:0003e880       ?virtDraw@SimpleFlashingDragableImageObject@@UAEXXZ 0043f880 f i ZoomingDemo.obj
 0001:0003e970       ?virtMouseDown@SimpleFlashingDragableImageObject@@UAEXHHH@Z 0043f970 f i ZoomingDemo.obj
 0001:0003e9e0       ?virtMouseMoved@SimpleFlashingDragableImageObject@@UAEXHH@Z 0043f9e0 f i ZoomingDemo.obj
 0001:0003ea40       ?virtMouseUp@SimpleFlashingDragableImageObject@@UAEXHHH@Z 0043fa40 f i ZoomingDemo.obj
 0001:0003ea60       ??0MazeDemoMain@@QAE@XZ    0043fa60 f   MazeDemoMain.obj
 0001:0003eae0       ??1MazeDemoMain@@UAE@XZ    0043fae0 f   MazeDemoMain.obj
 0001:0003eb20       ?virtSetupBackgroundBuffer@MazeDemoMain@@UAEXXZ 0043fb20 f   MazeDemoMain.obj
 0001:0003ed10       ?virtInitialiseObjects@MazeDemoMain@@UAEHXZ 0043fd10 f   MazeDemoMain.obj
 0001:0003ef10       ?virtDrawStringsUnderneath@MazeDemoMain@@UAEXXZ 0043ff10 f   MazeDemoMain.obj
 0001:0003efa0       ?virtMouseDown@MazeDemoMain@@UAEXHHH@Z 0043ffa0 f   MazeDemoMain.obj
 0001:0003efb0       ?virtKeyDown@MazeDemoMain@@UAEXH@Z 0043ffb0 f   MazeDemoMain.obj
 0001:0003f200       ??0MazeDemoTileManager@@QAE@XZ 00440200 f i MazeDemoMain.obj
 0001:0003f230       ??0TileManager@@QAE@HH@Z   00440230 f i MazeDemoMain.obj
 0001:0003f2b0       ??1MazeDemoTileManager@@UAE@XZ 004402b0 f i MazeDemoMain.obj
 0001:0003f2e0       ??_EMazeDemoMain@@UAEPAXI@Z 004402e0 f i MazeDemoMain.obj
 0001:0003f2e0       ??_GMazeDemoMain@@UAEPAXI@Z 004402e0 f i MazeDemoMain.obj
 0001:0003f320       ??_GMazeDemoTileManager@@UAEPAXI@Z 00440320 f i MazeDemoMain.obj
 0001:0003f320       ??_EMazeDemoTileManager@@UAEPAXI@Z 00440320 f i MazeDemoMain.obj
 0001:0003f360       ??0MazeDemoObject@@QAE@PAVMazeDemoMain@@HH@Z 00440360 f   MazeDemoObject.obj
 0001:0003f440       ??1MazeDemoObject@@UAE@XZ  00440440 f   MazeDemoObject.obj
 0001:0003f460       ?virtDraw@MazeDemoObject@@UAEXXZ 00440460 f   MazeDemoObject.obj
 0001:0003f510       ?virtDoUpdate@MazeDemoObject@@UAEXH@Z 00440510 f   MazeDemoObject.obj
 0001:0003fbb0       ??_GMazeDemoObject@@UAEPAXI@Z 00440bb0 f i MazeDemoObject.obj
 0001:0003fbb0       ??_EMazeDemoObject@@UAEPAXI@Z 00440bb0 f i MazeDemoObject.obj
 0001:0003fbf0       ?GetTileManager@MazeDemoMain@@QAEAAVMazeDemoTileManager@@XZ 00440bf0 f i MazeDemoObject.obj
 0001:0003fc10       ?checkCircles@CollisionDetection@@SA_NHHHHH@Z 00440c10 f i MazeDemoObject.obj
 0001:0003fc70       ?drawForegroundOval@BaseEngine@@QAEXHHHHI@Z 00440c70 f i MazeDemoObject.obj
 0001:0003fcb0       ?getDisplayableObject@DisplayableObjectContainer@@QBEPAVDisplayableObject@@H@Z 00440cb0 f i MazeDemoObject.obj
 0001:0003fcf0       ?getXDiffForDirection@MazeDemoObject@@QAEHH@Z 00440cf0 f i MazeDemoObject.obj
 0001:0003fd60       ?getYDiffForDirection@MazeDemoObject@@QAEHH@Z 00440d60 f i MazeDemoObject.obj
 0001:0003fdd0       ?virtDrawTileAt@MazeDemoTileManager@@UBEXPAVBaseEngine@@PAVDrawingSurface@@HHHH@Z 00440dd0 f   MazeDemoTileManager.obj
 0001:0003ffb5       _SDL_CreateRGBSurface      00440fb5 f   SDL2:SDL2.dll
 0001:0003ffbb       _SDL_FreeSurface           00440fbb f   SDL2:SDL2.dll
 0001:0003ffc1       _SDL_UpperBlit             00440fc1 f   SDL2:SDL2.dll
 0001:0003ffc7       _SDL_LockSurface           00440fc7 f   SDL2:SDL2.dll
 0001:0003ffcd       _SDL_UnlockSurface         00440fcd f   SDL2:SDL2.dll
 0001:0003ffd3       _SDL_FillRect              00440fd3 f   SDL2:SDL2.dll
 0001:0003ffd9       _SDL_UpdateTexture         00440fd9 f   SDL2:SDL2.dll
 0001:0003ffdf       _SDL_RenderCopy            00440fdf f   SDL2:SDL2.dll
 0001:0003ffe5       _SDL_RenderPresent         00440fe5 f   SDL2:SDL2.dll
 0001:0003ffeb       _SDL_GetError              00440feb f   SDL2:SDL2.dll
 0001:0003fff1       _SDL_CreateWindow          00440ff1 f   SDL2:SDL2.dll
 0001:0003fff7       _SDL_PollEvent             00440ff7 f   SDL2:SDL2.dll
 0001:0003fffd       _SDL_WaitEvent             00440ffd f   SDL2:SDL2.dll
 0001:00040003       _SDL_CreateRenderer        00441003 f   SDL2:SDL2.dll
 0001:00040009       _SDL_CreateTexture         00441009 f   SDL2:SDL2.dll
 0001:0004000f       _SDL_GetTicks              0044100f f   SDL2:SDL2.dll
 0001:00040015       _SDL_Init                  00441015 f   SDL2:SDL2.dll
 0001:0004001b       _SDL_Quit                  0044101b f   SDL2:SDL2.dll
 0001:00040021       _SDL_SetClipRect           00441021 f   SDL2:SDL2.dll
 0001:00040027       _SDL_UpperBlitScaled       00441027 f   SDL2:SDL2.dll
 0001:0004002d       _IMG_Load                  0044102d f   SDL2_image:SDL2_image.dll
 0001:00040033       _TTF_RenderText_Solid      00441033 f   SDL2_ttf:SDL2_ttf.dll
 0001:00040039       _TTF_Init                  00441039 f   SDL2_ttf:SDL2_ttf.dll
 0001:0004003f       _TTF_Quit                  0044103f f   SDL2_ttf:SDL2_ttf.dll
 0001:00040045       _TTF_OpenFont              00441045 f   SDL2_ttf:SDL2_ttf.dll
 0001:0004004b       _TTF_CloseFont             0044104b f   SDL2_ttf:SDL2_ttf.dll
 0001:00040051       ??0_Lockit@std@@QAE@H@Z    00441051 f   msvcprtd:MSVCP140D.dll
 0001:00040057       ??1_Lockit@std@@QAE@XZ     00441057 f   msvcprtd:MSVCP140D.dll
 0001:0004005d       ?_Xlength_error@std@@YAXPBD@Z 0044105d f   msvcprtd:MSVCP140D.dll
 0001:00040063       ?uncaught_exception@std@@YA_NXZ 00441063 f   msvcprtd:MSVCP140D.dll
 0001:00040069       ?good@ios_base@std@@QBE_NXZ 00441069 f   msvcprtd:MSVCP140D.dll
 0001:0004006f       ?flags@ios_base@std@@QBEHXZ 0044106f f   msvcprtd:MSVCP140D.dll
 0001:00040075       ?width@ios_base@std@@QBE_JXZ 00441075 f   msvcprtd:MSVCP140D.dll
 0001:0004007b       ?width@ios_base@std@@QAE_J_J@Z 0044107b f   msvcprtd:MSVCP140D.dll
 0001:00040081       ?sputc@?$basic_streambuf@DU?$char_traits@D@std@@@std@@QAEHD@Z 00441081 f   msvcprtd:MSVCP140D.dll
 0001:00040087       ?sputn@?$basic_streambuf@DU?$char_traits@D@std@@@std@@QAE_JPBD_J@Z 00441087 f   msvcprtd:MSVCP140D.dll
 0001:0004008d       ?setstate@?$basic_ios@DU?$char_traits@D@std@@@std@@QAEXH_N@Z 0044108d f   msvcprtd:MSVCP140D.dll
 0001:00040093       ?tie@?$basic_ios@DU?$char_traits@D@std@@@std@@QBEPAV?$basic_ostream@DU?$char_traits@D@std@@@2@XZ 00441093 f   msvcprtd:MSVCP140D.dll
 0001:00040099       ?rdbuf@?$basic_ios@DU?$char_traits@D@std@@@std@@QBEPAV?$basic_streambuf@DU?$char_traits@D@std@@@2@XZ 00441099 f   msvcprtd:MSVCP140D.dll
 0001:0004009f       ?fill@?$basic_ios@DU?$char_traits@D@std@@@std@@QBEDXZ 0044109f f   msvcprtd:MSVCP140D.dll
 0001:000400a5       ?widen@?$basic_ios@DU?$char_traits@D@std@@@std@@QBEDD@Z 004410a5 f   msvcprtd:MSVCP140D.dll
 0001:000400ab       ?_Osfx@?$basic_ostream@DU?$char_traits@D@std@@@std@@QAEXXZ 004410ab f   msvcprtd:MSVCP140D.dll
 0001:000400b1       ??6?$basic_ostream@DU?$char_traits@D@std@@@std@@QAEAAV01@P6AAAV01@AAV01@@Z@Z 004410b1 f   msvcprtd:MSVCP140D.dll
 0001:000400b7       ?put@?$basic_ostream@DU?$char_traits@D@std@@@std@@QAEAAV12@D@Z 004410b7 f   msvcprtd:MSVCP140D.dll
 0001:000400bd       ?flush@?$basic_ostream@DU?$char_traits@D@std@@@std@@QAEAAV12@XZ 004410bd f   msvcprtd:MSVCP140D.dll
 0001:000400c3       ??6?$basic_ostream@DU?$char_traits@D@std@@@std@@QAEAAV01@_N@Z 004410c3 f   msvcprtd:MSVCP140D.dll
 0001:000400c9       ??6?$basic_ostream@DU?$char_traits@D@std@@@std@@QAEAAV01@H@Z 004410c9 f   msvcprtd:MSVCP140D.dll
 0001:000400cf       ?_Xout_of_range@std@@YAXPBD@Z 004410cf f   msvcprtd:MSVCP140D.dll
 0001:000400e0       ??0_Fac_node@std@@QAE@PAU01@PAV_Facet_base@1@@Z 004410e0 f i msvcprtd:locale0_implib.obj
 0001:00040110       ??1_Fac_node@std@@QAE@XZ   00441110 f i msvcprtd:locale0_implib.obj
 0001:00040190       ??1_Fac_tidy_reg_t@std@@QAE@XZ 00441190 f i msvcprtd:locale0_implib.obj
 0001:000401f0       ??2_Fac_node@std@@SAPAXI@Z 004411f0 f i msvcprtd:locale0_implib.obj
 0001:00040250       ??3_Fac_node@std@@SAXPAX@Z 00441250 f i msvcprtd:locale0_implib.obj
 0001:00040270       ??_G_Fac_node@std@@QAEPAXI@Z 00441270 f i msvcprtd:locale0_implib.obj
 0001:000402d0       ?_Facet_Register@std@@YAXPAV_Facet_base@1@@Z 004412d0 f   msvcprtd:locale0_implib.obj
 0001:00040380       ?__empty_global_delete@@YAXPAXIW4align_val_t@std@@@Z 00441380 f i msvcprtd:locale0_implib.obj
 0001:00040390       ?__empty_global_delete@@YAXPAXW4align_val_t@std@@@Z 00441390 f i msvcprtd:locale0_implib.obj
 0001:00040395       ??Bid@locale@std@@QAEIXZ   00441395 f   msvcprtd:MSVCP140D.dll
 0001:0004039b       ?_Getgloballocale@locale@std@@CAPAV_Locimp@12@XZ 0044139b f   msvcprtd:MSVCP140D.dll
 0001:000403a1       ?always_noconv@codecvt_base@std@@QBE_NXZ 004413a1 f   msvcprtd:MSVCP140D.dll
 0001:000403a7       ?in@?$codecvt@DDU_Mbstatet@@@std@@QBEHAAU_Mbstatet@@PBD1AAPBDPAD3AAPAD@Z 004413a7 f   msvcprtd:MSVCP140D.dll
 0001:000403ad       ?out@?$codecvt@DDU_Mbstatet@@@std@@QBEHAAU_Mbstatet@@PBD1AAPBDPAD3AAPAD@Z 004413ad f   msvcprtd:MSVCP140D.dll
 0001:000403b3       ?unshift@?$codecvt@DDU_Mbstatet@@@std@@QBEHAAU_Mbstatet@@PAD1AAPAD@Z 004413b3 f   msvcprtd:MSVCP140D.dll
 0001:000403b9       ?_Getcat@?$codecvt@DDU_Mbstatet@@@std@@SAIPAPBVfacet@locale@2@PBV42@@Z 004413b9 f   msvcprtd:MSVCP140D.dll
 0001:000403bf       ??0?$basic_streambuf@DU?$char_traits@D@std@@@std@@IAE@XZ 004413bf f   msvcprtd:MSVCP140D.dll
 0001:000403c5       ??1?$basic_streambuf@DU?$char_traits@D@std@@@std@@UAE@XZ 004413c5 f   msvcprtd:MSVCP140D.dll
 0001:000403cb       ?getloc@?$basic_streambuf@DU?$char_traits@D@std@@@std@@QBE?AVlocale@2@XZ 004413cb f   msvcprtd:MSVCP140D.dll
 0001:000403d1       ?eback@?$basic_streambuf@DU?$char_traits@D@std@@@std@@IBEPADXZ 004413d1 f   msvcprtd:MSVCP140D.dll
 0001:000403d7       ?gptr@?$basic_streambuf@DU?$char_traits@D@std@@@std@@IBEPADXZ 004413d7 f   msvcprtd:MSVCP140D.dll
 0001:000403dd       ?pbase@?$basic_streambuf@DU?$char_traits@D@std@@@std@@IBEPADXZ 004413dd f   msvcprtd:MSVCP140D.dll
 0001:000403e3       ?pptr@?$basic_streambuf@DU?$char_traits@D@std@@@std@@IBEPADXZ 004413e3 f   msvcprtd:MSVCP140D.dll
 0001:000403e9       ?egptr@?$basic_streambuf@DU?$char_traits@D@std@@@std@@IBEPADXZ 004413e9 f   msvcprtd:MSVCP140D.dll
 0001:000403ef       ?gbump@?$basic_streambuf@DU?$char_traits@D@std@@@std@@IAEXH@Z 004413ef f   msvcprtd:MSVCP140D.dll
 0001:000403f5       ?setg@?$basic_streambuf@DU?$char_traits@D@std@@@std@@IAEXPAD00@Z 004413f5 f   msvcprtd:MSVCP140D.dll
 0001:000403fb       ?epptr@?$basic_streambuf@DU?$char_traits@D@std@@@std@@IBEPADXZ 004413fb f   msvcprtd:MSVCP140D.dll
 0001:00040401       ?_Gndec@?$basic_streambuf@DU?$char_traits@D@std@@@std@@IAEPADXZ 00441401 f   msvcprtd:MSVCP140D.dll
 0001:00040407       ?_Gninc@?$basic_streambuf@DU?$char_traits@D@std@@@std@@IAEPADXZ 00441407 f   msvcprtd:MSVCP140D.dll
 0001:0004040d       ?_Gnavail@?$basic_streambuf@DU?$char_traits@D@std@@@std@@IBE_JXZ 0044140d f   msvcprtd:MSVCP140D.dll
 0001:00040413       ?pbump@?$basic_streambuf@DU?$char_traits@D@std@@@std@@IAEXH@Z 00441413 f   msvcprtd:MSVCP140D.dll
 0001:00040419       ?setp@?$basic_streambuf@DU?$char_traits@D@std@@@std@@IAEXPAD00@Z 00441419 f   msvcprtd:MSVCP140D.dll
 0001:0004041f       ?_Pninc@?$basic_streambuf@DU?$char_traits@D@std@@@std@@IAEPADXZ 0044141f f   msvcprtd:MSVCP140D.dll
 0001:00040425       ?_Pnavail@?$basic_streambuf@DU?$char_traits@D@std@@@std@@IBE_JXZ 00441425 f   msvcprtd:MSVCP140D.dll
 0001:0004042b       ?_Init@?$basic_streambuf@DU?$char_traits@D@std@@@std@@IAEXXZ 0044142b f   msvcprtd:MSVCP140D.dll
 0001:00040431       ?_Init@?$basic_streambuf@DU?$char_traits@D@std@@@std@@IAEXPAPAD0PAH001@Z 00441431 f   msvcprtd:MSVCP140D.dll
 0001:00040437       ?xsgetn@?$basic_streambuf@DU?$char_traits@D@std@@@std@@MAE_JPAD_J@Z 00441437 f   msvcprtd:MSVCP140D.dll
 0001:0004043d       ?xsputn@?$basic_streambuf@DU?$char_traits@D@std@@@std@@MAE_JPBD_J@Z 0044143d f   msvcprtd:MSVCP140D.dll
 0001:00040443       ??1?$basic_ios@DU?$char_traits@D@std@@@std@@UAE@XZ 00441443 f   msvcprtd:MSVCP140D.dll
 0001:00040449       ?clear@?$basic_ios@DU?$char_traits@D@std@@@std@@QAEXH_N@Z 00441449 f   msvcprtd:MSVCP140D.dll
 0001:0004044f       ??0?$basic_ios@DU?$char_traits@D@std@@@std@@IAE@XZ 0044144f f   msvcprtd:MSVCP140D.dll
 0001:00040455       ??0?$basic_ostream@DU?$char_traits@D@std@@@std@@QAE@PAV?$basic_streambuf@DU?$char_traits@D@std@@@1@_N@Z 00441455 f   msvcprtd:MSVCP140D.dll
 0001:0004045b       ??1?$basic_ostream@DU?$char_traits@D@std@@@std@@UAE@XZ 0044145b f   msvcprtd:MSVCP140D.dll
 0001:00040461       ??0?$basic_istream@DU?$char_traits@D@std@@@std@@QAE@PAV?$basic_streambuf@DU?$char_traits@D@std@@@1@_N@Z 00441461 f   msvcprtd:MSVCP140D.dll
 0001:00040467       ?swap@?$basic_istream@DU?$char_traits@D@std@@@std@@IAEXAAV12@@Z 00441467 f   msvcprtd:MSVCP140D.dll
 0001:0004046d       ??1?$basic_istream@DU?$char_traits@D@std@@@std@@UAE@XZ 0044146d f   msvcprtd:MSVCP140D.dll
 0001:00040473       ??5?$basic_istream@DU?$char_traits@D@std@@@std@@QAEAAV01@AA_N@Z 00441473 f   msvcprtd:MSVCP140D.dll
 0001:00040479       ??5?$basic_istream@DU?$char_traits@D@std@@@std@@QAEAAV01@AAH@Z 00441479 f   msvcprtd:MSVCP140D.dll
 0001:0004047f       ??5?$basic_istream@DU?$char_traits@D@std@@@std@@QAEAAV01@AAN@Z 0044147f f   msvcprtd:MSVCP140D.dll
 0001:00040485       ?_Fiopen@std@@YAPAU_iobuf@@PBDHH@Z 00441485 f   msvcprtd:MSVCP140D.dll
 0001:0004048b       ?showmanyc@?$basic_streambuf@DU?$char_traits@D@std@@@std@@MAE_JXZ 0044148b f   msvcprtd:MSVCP140D.dll
 0001:00040491       ?is@?$ctype@D@std@@QBE_NFD@Z 00441491 f   msvcprtd:MSVCP140D.dll
 0001:00040497       ?_Getcat@?$ctype@D@std@@SAIPAPBVfacet@locale@2@PBV42@@Z 00441497 f   msvcprtd:MSVCP140D.dll
 0001:0004049d       ?getloc@ios_base@std@@QBE?AVlocale@2@XZ 0044149d f   msvcprtd:MSVCP140D.dll
 0001:000404a3       ?sgetc@?$basic_streambuf@DU?$char_traits@D@std@@@std@@QAEHXZ 004414a3 f   msvcprtd:MSVCP140D.dll
 0001:000404a9       ?snextc@?$basic_streambuf@DU?$char_traits@D@std@@@std@@QAEHXZ 004414a9 f   msvcprtd:MSVCP140D.dll
 0001:000404af       ?_Ipfx@?$basic_istream@DU?$char_traits@D@std@@@std@@QAE_N_N@Z 004414af f   msvcprtd:MSVCP140D.dll
 0001:000404b5       ??6?$basic_ostream@DU?$char_traits@D@std@@@std@@QAEAAV01@N@Z 004414b5 f   msvcprtd:MSVCP140D.dll
 0001:000404bb       ?_Xbad_alloc@std@@YAXXZ    004414bb f   msvcprtd:MSVCP140D.dll
 0001:000408a0       ?configure_argv@__scrt_narrow_argv_policy@@SAHXZ 004418a0 f i MSVCRTD:exe_main.obj
 0001:000408c0       ?initialize_environment@__scrt_narrow_environment_policy@@SAHXZ 004418c0 f i MSVCRTD:exe_main.obj
 0001:00040920       ?set_app_type@__scrt_main_policy@@SAXXZ 00441920 f i MSVCRTD:exe_main.obj
 0001:00040940       ?set_commode@__scrt_file_policy@@SAXXZ 00441940 f i MSVCRTD:exe_main.obj
 0001:00040960       ?set_fmode@__scrt_file_policy@@SAXXZ 00441960 f i MSVCRTD:exe_main.obj
 0001:00040980       _mainCRTStartup            00441980 f   MSVCRTD:exe_main.obj
 0001:00040990       ??2@YAPAXI@Z               00441990 f   MSVCRTD:new_scalar.obj
 0001:000409f0       ??3@YAXPAXI@Z              004419f0 f   MSVCRTD:delete_scalar_size.obj
 0001:00040a10       ??_V@YAXPAX@Z              00441a10 f   MSVCRTD:delete_array.obj
 0001:00040a30       @__security_check_cookie@4 00441a30 f   MSVCRTD:secchk.obj
 0001:00040a50       ??1type_info@@UAE@XZ       00441a50 f   MSVCRTD:std_type_info_static.obj
 0001:00040a70       ??_Etype_info@@UAEPAXI@Z   00441a70 f i MSVCRTD:std_type_info_static.obj
 0001:00040a70       ??_Gtype_info@@UAEPAXI@Z   00441a70 f i MSVCRTD:std_type_info_static.obj
 0001:00040ab0       __alloca_probe             00441ab0 f   MSVCRTD:chkstk.obj
 0001:00040ab0       __chkstk                   00441ab0 f   MSVCRTD:chkstk.obj
 0001:00040af0       ??_U@YAPAXI@Z              00441af0 f   MSVCRTD:new_array.obj
 0001:00040c50       _NtCurrentTeb              00441c50 f i MSVCRTD:utility.obj
 0001:00040c60       ___scrt_acquire_startup_lock 00441c60 f   MSVCRTD:utility.obj
 0001:00040cc0       ___scrt_dllmain_after_initialize_c 00441cc0 f   MSVCRTD:utility.obj
 0001:00040d00       ___scrt_dllmain_before_initialize_c 00441d00 f   MSVCRTD:utility.obj
 0001:00040d30       ___scrt_dllmain_crt_thread_attach 00441d30 f   MSVCRTD:utility.obj
 0001:00040d70       ___scrt_dllmain_crt_thread_detach 00441d70 f   MSVCRTD:utility.obj
 0001:00040d90       ___scrt_dllmain_exception_filter 00441d90 f   MSVCRTD:utility.obj
 0001:00040df0       ___scrt_dllmain_uninitialize_c 00441df0 f   MSVCRTD:utility.obj
 0001:00040e30       ___scrt_dllmain_uninitialize_critical 00441e30 f   MSVCRTD:utility.obj
 0001:00040e50       ___scrt_initialize_crt     00441e50 f   MSVCRTD:utility.obj
 0001:00040eb0       ___scrt_initialize_onexit_tables 00441eb0 f   MSVCRTD:utility.obj
 0001:00040fc0       ___scrt_is_nonwritable_in_current_image 00441fc0 f   MSVCRTD:utility.obj
 0001:00041140       ___scrt_release_startup_lock 00442140 f   MSVCRTD:utility.obj
 0001:00041170       ___scrt_uninitialize_crt   00442170 f   MSVCRTD:utility.obj
 0001:000411c0       __onexit                   004421c0 f   MSVCRTD:utility.obj
 0001:00041240       _at_quick_exit             00442240 f   MSVCRTD:utility.obj
 0001:00041290       _atexit                    00442290 f   MSVCRTD:utility.obj
 0001:000412d0       @_guard_check_icall_nop@4  004422d0 f i MSVCRTD:guard_support.obj
 0001:000412e0       _ReadNoFence               004422e0 f i MSVCRTD:guard_support.obj
 0001:00041300       _ReadPointerNoFence        00442300 f i MSVCRTD:guard_support.obj
 0001:00041320       ___castguard_check_failure_debugbreak 00442320 f i MSVCRTD:guard_support.obj
 0001:00041340       ___castguard_check_failure_fastfail 00442340 f i MSVCRTD:guard_support.obj
 0001:00041370       ___castguard_check_failure_nop 00442370 f i MSVCRTD:guard_support.obj
 0001:00041380       ___castguard_check_failure_os_handled 00442380 f i MSVCRTD:guard_support.obj
 0001:00041420       ___castguard_slow_path_check_debugbreak 00442420 f i MSVCRTD:guard_support.obj
 0001:00041460       ___castguard_slow_path_check_fastfail 00442460 f i MSVCRTD:guard_support.obj
 0001:000414b0       ___castguard_slow_path_check_nop 004424b0 f i MSVCRTD:guard_support.obj
 0001:000414c0       ___castguard_slow_path_check_os_handled 004424c0 f i MSVCRTD:guard_support.obj
 0001:00041580       __guard_icall_checks_enforced 00442580 f i MSVCRTD:guard_support.obj
 0001:00041650       ___security_init_cookie    00442650 f   MSVCRTD:gs_support.obj
 0001:000416f0       __matherr                  004426f0 f   MSVCRTD:matherr.obj
 0001:00041700       __get_startup_argv_mode    00442700 f   MSVCRTD:argv_mode.obj
 0001:00041710       __get_startup_commit_mode  00442710 f   MSVCRTD:commit_mode.obj
 0001:00041720       __get_startup_file_mode    00442720 f   MSVCRTD:file_mode.obj
 0001:00041730       __get_startup_new_mode     00442730 f   MSVCRTD:new_mode.obj
 0001:00041740       __get_startup_thread_locale_mode 00442740 f   MSVCRTD:thread_locale.obj
 0001:00041750       ?__scrt_initialize_type_info@@YAXXZ 00442750 f   MSVCRTD:tncleanup.obj
 0001:00041770       ?__scrt_uninitialize_type_info@@YAXXZ 00442770 f   MSVCRTD:tncleanup.obj
 0001:00041790       __should_initialize_environment 00442790 f   MSVCRTD:env_mode.obj
 0001:000417a0       __initialize_default_precision 004427a0 f   MSVCRTD:default_precision.obj
 0001:000417d0       __initialize_invalid_parameter_handler 004427d0 f   MSVCRTD:invalid_parameter_handler.obj
 0001:000417e0       __initialize_denormal_control 004427e0 f   MSVCRTD:denormal_control.obj
 0001:000417f0       ___local_stdio_scanf_options 004427f0 f i MSVCRTD:default_local_stdio_options.obj
 0001:00041800       ___scrt_initialize_default_local_stdio_options 00442800 f   MSVCRTD:default_local_stdio_options.obj
 0001:00041850       ___scrt_is_user_matherr_present 00442850 f   MSVCRTD:matherr_detection.obj
 0001:00041880       ___scrt_get_dyn_tls_init_callback 00442880 f   MSVCRTD:dyn_tls_init.obj
 0001:00041890       ___scrt_get_dyn_tls_dtor_callback 00442890 f   MSVCRTD:dyn_tls_dtor.obj
 0001:000418a0       ___scrt_fastfail           004428a0 f   MSVCRTD:utility_desktop.obj
 0001:00041a30       ___scrt_get_show_window_mode 00442a30 f   MSVCRTD:utility_desktop.obj
 0001:00041a80       ___scrt_initialize_mta     00442a80 f   MSVCRTD:utility_desktop.obj
 0001:00041a90       ___scrt_initialize_winrt   00442a90 f   MSVCRTD:utility_desktop.obj
 0001:00041aa0       ___scrt_is_managed_app     00442aa0 f   MSVCRTD:utility_desktop.obj
 0001:00041b50       ___scrt_set_unhandled_exception_filter 00442b50 f   MSVCRTD:utility_desktop.obj
 0001:00041b70       ___scrt_exe_initialize_mta 00442b70 f   MSVCRTD:utility_desktop.obj
 0001:00041b70       ___scrt_stub_for_initialize_mta 00442b70 f   MSVCRTD:utility_desktop.obj
 0001:00041b80       ___scrt_unhandled_exception_filter@4 00442b80 f   MSVCRTD:utility_desktop.obj
 0001:00041c20       __crt_debugger_hook        00442c20 f   MSVCRTD:utility_desktop.obj
 0001:00041c40       __RTC_Initialize           00442c40 f   MSVCRTD:initsect.obj
 0001:00041c80       __RTC_Terminate            00442c80 f   MSVCRTD:initsect.obj
 0001:00041cc0       __except_handler4          00442cc0 f   MSVCRTD:chandler4gs.obj
 0001:00041d10       ??0bad_alloc@std@@QAE@XZ   00442d10 f i MSVCRTD:throw_bad_alloc.obj
 0001:00041d40       ?__scrt_throw_std_bad_alloc@@YAXXZ 00442d40 f   MSVCRTD:throw_bad_alloc.obj
 0001:00041d70       ?__scrt_throw_std_bad_array_new_length@@YAXXZ 00442d70 f   MSVCRTD:throw_bad_alloc.obj
 0001:00041da0       ??3@YAXPAX@Z               00442da0 f   MSVCRTD:delete_scalar.obj
 0001:00041dc0       ___raise_securityfailure   00442dc0 f   MSVCRTD:gs_report.obj
 0001:00041e00       ___report_gsfailure        00442e00 f   MSVCRTD:gs_report.obj
 0001:00041f50       ___report_rangecheckfailure 00442f50 f   MSVCRTD:gs_report.obj
 0001:00041f60       ___report_securityfailure  00442f60 f   MSVCRTD:gs_report.obj
 0001:00042070       ___report_securityfailureEx 00443070 f   MSVCRTD:gs_report.obj
 0001:000421e0       ___isa_available_init      004431e0 f   MSVCRTD:cpu_disp.obj
 0001:000425e0       ___scrt_is_ucrt_dll_in_use 004435e0 f   MSVCRTD:ucrt_detection.obj
 0001:0004260d       _memcmp                    0044360d f   vcruntimed:VCRUNTIME140D.dll
 0001:00042613       _memcpy                    00443613 f   vcruntimed:VCRUNTIME140D.dll
 0001:00042619       _memmove                   00443619 f   vcruntimed:VCRUNTIME140D.dll
 0001:0004261f       _memset                    0044361f f   vcruntimed:VCRUNTIME140D.dll
 0001:00042625       ___std_exception_copy      00443625 f   vcruntimed:VCRUNTIME140D.dll
 0001:0004262b       ___std_exception_destroy   0044362b f   vcruntimed:VCRUNTIME140D.dll
 0001:00042631       __CxxThrowException@8      00443631 f   vcruntimed:VCRUNTIME140D.dll
 0001:00042637       ___CxxFrameHandler3        00443637 f   vcruntimed:VCRUNTIME140D.dll
 0001:0004263d       ___RTDynamicCast           0044363d f   vcruntimed:VCRUNTIME140D.dll
 0001:00042643       __purecall                 00443643 f   vcruntimed:VCRUNTIME140D.dll
 0001:00042649       ___std_type_info_destroy_list 00443649 f   vcruntimed:VCRUNTIME140D.dll
 0001:0004264f       ___current_exception       0044364f f   vcruntimed:VCRUNTIME140D.dll
 0001:00042655       ___current_exception_context 00443655 f   vcruntimed:VCRUNTIME140D.dll
 0001:0004265b       __except_handler4_common   0044365b f   vcruntimed:VCRUNTIME140D.dll
 0001:00042661       __invalid_parameter        00443661 f   ucrtd:ucrtbased.dll
 0001:00042667       __CrtDbgReport             00443667 f   ucrtd:ucrtbased.dll
 0001:0004266d       ___acrt_iob_func           0044366d f   ucrtd:ucrtbased.dll
 0001:00042673       ___stdio_common_vfprintf   00443673 f   ucrtd:ucrtbased.dll
 0001:00042679       _strlen                    00443679 f   ucrtd:ucrtbased.dll
 0001:0004267f       _rand                      0044367f f   ucrtd:ucrtbased.dll
 0001:00042685       _atan                      00443685 f   ucrtd:ucrtbased.dll
 0001:0004268b       _cos                       0044368b f   ucrtd:ucrtbased.dll
 0001:00042691       _sin                       00443691 f   ucrtd:ucrtbased.dll
 0001:00042697       __get_stream_buffer_pointers 00443697 f   ucrtd:ucrtbased.dll
 0001:0004269d       _fclose                    0044369d f   ucrtd:ucrtbased.dll
 0001:000426a3       _fflush                    004436a3 f   ucrtd:ucrtbased.dll
 0001:000426a9       _fgetc                     004436a9 f   ucrtd:ucrtbased.dll
 0001:000426af       _fgetpos                   004436af f   ucrtd:ucrtbased.dll
 0001:000426b5       _fputc                     004436b5 f   ucrtd:ucrtbased.dll
 0001:000426bb       _fread                     004436bb f   ucrtd:ucrtbased.dll
 0001:000426c1       _fsetpos                   004436c1 f   ucrtd:ucrtbased.dll
 0001:000426c7       __fseeki64                 004436c7 f   ucrtd:ucrtbased.dll
 0001:000426cd       _fwrite                    004436cd f   ucrtd:ucrtbased.dll
 0001:000426d3       _setvbuf                   004436d3 f   ucrtd:ucrtbased.dll
 0001:000426d9       _ungetc                    004436d9 f   ucrtd:ucrtbased.dll
 0001:000426df       __lock_file                004436df f   ucrtd:ucrtbased.dll
 0001:000426e5       __unlock_file              004436e5 f   ucrtd:ucrtbased.dll
 0001:000426eb       ___stdio_common_vsprintf   004436eb f   ucrtd:ucrtbased.dll
 0001:000426f1       _sqrt                      004436f1 f   ucrtd:ucrtbased.dll
 0001:000426f7       __CrtDumpMemoryLeaks       004436f7 f   ucrtd:ucrtbased.dll
 0001:000426fd       _srand                     004436fd f   ucrtd:ucrtbased.dll
 0001:00042703       __time64                   00443703 f   ucrtd:ucrtbased.dll
 0001:00042709       _puts                      00443709 f   ucrtd:ucrtbased.dll
 0001:0004270f       _strcmp                    0044370f f   ucrtd:ucrtbased.dll
 0001:00042715       _strcpy                    00443715 f   ucrtd:ucrtbased.dll
 0001:0004271b       __free_dbg                 0044371b f   ucrtd:ucrtbased.dll
 0001:00042721       __malloc_dbg               00443721 f   ucrtd:ucrtbased.dll
 0001:00042727       __seh_filter_exe           00443727 f   ucrtd:ucrtbased.dll
 0001:0004272d       __set_app_type             0044372d f   ucrtd:ucrtbased.dll
 0001:00042733       ___setusermatherr          00443733 f   ucrtd:ucrtbased.dll
 0001:00042739       __configure_narrow_argv    00443739 f   ucrtd:ucrtbased.dll
 0001:0004273f       __initialize_narrow_environment 0044373f f   ucrtd:ucrtbased.dll
 0001:00042745       __get_initial_narrow_environment 00443745 f   ucrtd:ucrtbased.dll
 0001:0004274b       __initterm                 0044374b f   ucrtd:ucrtbased.dll
 0001:00042751       __initterm_e               00443751 f   ucrtd:ucrtbased.dll
 0001:00042757       _exit                      00443757 f   ucrtd:ucrtbased.dll
 0001:0004275d       __exit                     0044375d f   ucrtd:ucrtbased.dll
 0001:00042763       __set_fmode                00443763 f   ucrtd:ucrtbased.dll
 0001:00042769       ___p___argc                00443769 f   ucrtd:ucrtbased.dll
 0001:0004276f       ___p___argv                0044376f f   ucrtd:ucrtbased.dll
 0001:00042775       __cexit                    00443775 f   ucrtd:ucrtbased.dll
 0001:0004277b       __c_exit                   0044377b f   ucrtd:ucrtbased.dll
 0001:00042781       __register_thread_local_exe_atexit_callback 00443781 f   ucrtd:ucrtbased.dll
 0001:00042787       __configthreadlocale       00443787 f   ucrtd:ucrtbased.dll
 0001:0004278d       __set_new_mode             0044378d f   ucrtd:ucrtbased.dll
 0001:00042793       ___p__commode              00443793 f   ucrtd:ucrtbased.dll
 0001:00042799       __callnewh                 00443799 f   ucrtd:ucrtbased.dll
 0001:0004279f       _malloc                    0044379f f   ucrtd:ucrtbased.dll
 0001:000427a5       __seh_filter_dll           004437a5 f   ucrtd:ucrtbased.dll
 0001:000427ab       __initialize_onexit_table  004437ab f   ucrtd:ucrtbased.dll
 0001:000427b1       __register_onexit_function 004437b1 f   ucrtd:ucrtbased.dll
 0001:000427b7       __execute_onexit_table     004437b7 f   ucrtd:ucrtbased.dll
 0001:000427bd       __crt_atexit               004437bd f   ucrtd:ucrtbased.dll
 0001:000427c3       __crt_at_quick_exit        004437c3 f   ucrtd:ucrtbased.dll
 0001:000427c9       __controlfp_s              004437c9 f   ucrtd:ucrtbased.dll
 0001:000427cf       _terminate                 004437cf f   ucrtd:ucrtbased.dll
 0001:00042920       _WinMain@16                00443920 f   SDL2main:SDL_windows_main.obj
 0001:00042930       _main                      00443930 f   SDL2main:SDL_windows_main.obj
 0001:00042a80       _wmain                     00443a80 f   SDL2main:SDL_windows_main.obj
 0001:00042a85       _QueryPerformanceCounter@4 00443a85 f   kernel32:KERNEL32.dll
 0001:00042a8b       _GetCurrentProcessId@0     00443a8b f   kernel32:KERNEL32.dll
 0001:00042a91       _GetCurrentThreadId@0      00443a91 f   kernel32:KERNEL32.dll
 0001:00042a97       _GetSystemTimeAsFileTime@4 00443a97 f   kernel32:KERNEL32.dll
 0001:00042a9d       _InitializeSListHead@4     00443a9d f   kernel32:KERNEL32.dll
 0001:00042aa3       _IsDebuggerPresent@0       00443aa3 f   kernel32:KERNEL32.dll
 0001:00042aa9       _UnhandledExceptionFilter@4 00443aa9 f   kernel32:KERNEL32.dll
 0001:00042aaf       _SetUnhandledExceptionFilter@4 00443aaf f   kernel32:KERNEL32.dll
 0001:00042ab5       _GetStartupInfoW@4         00443ab5 f   kernel32:KERNEL32.dll
 0001:00042abb       _IsProcessorFeaturePresent@4 00443abb f   kernel32:KERNEL32.dll
 0001:00042ac1       _GetModuleHandleW@4        00443ac1 f   kernel32:KERNEL32.dll
 0001:00042ac7       _GetCurrentProcess@0       00443ac7 f   kernel32:KERNEL32.dll
 0001:00042acd       _TerminateProcess@8        00443acd f   kernel32:KERNEL32.dll
 0001:00042ad3       _GetCommandLineW@0         00443ad3 f   kernel32:KERNEL32.dll
 0001:00042ad9       _VirtualAlloc@16           00443ad9 f   kernel32:KERNEL32.dll
 0001:00042adf       _VirtualFree@12            00443adf f   kernel32:KERNEL32.dll
 0001:00042ae5       _WideCharToMultiByte@32    00443ae5 f   kernel32:KERNEL32.dll
 0001:00042aeb       _SDL_SetMainReady          00443aeb f   SDL2:SDL2.dll
 0001:00042af1       _SDL_ShowSimpleMessageBox  00443af1 f   SDL2:SDL2.dll
 0001:00042b00       ___scrt_stub_for_acrt_initialize 00443b00 f   MSVCRTD:ucrt_stubs.obj
 0001:00042b00       ___acrt_initialize         00443b00 f   MSVCRTD:ucrt_stubs.obj
 0001:00042b00       ___vcrt_initialize         00443b00 f   MSVCRTD:ucrt_stubs.obj
 0001:00042b10       ___acrt_thread_attach      00443b10 f   MSVCRTD:ucrt_stubs.obj
 0001:00042b10       ___scrt_stub_for_acrt_thread_attach 00443b10 f   MSVCRTD:ucrt_stubs.obj
 0001:00042b10       ___vcrt_thread_attach      00443b10 f   MSVCRTD:ucrt_stubs.obj
 0001:00042b20       ___vcrt_thread_detach      00443b20 f   MSVCRTD:ucrt_stubs.obj
 0001:00042b20       ___acrt_thread_detach      00443b20 f   MSVCRTD:ucrt_stubs.obj
 0001:00042b20       ___scrt_stub_for_acrt_thread_detach 00443b20 f   MSVCRTD:ucrt_stubs.obj
 0001:00042b30       ___acrt_uninitialize       00443b30 f   MSVCRTD:ucrt_stubs.obj
 0001:00042b30       ___scrt_stub_for_acrt_uninitialize 00443b30 f   MSVCRTD:ucrt_stubs.obj
 0001:00042b30       ___vcrt_uninitialize       00443b30 f   MSVCRTD:ucrt_stubs.obj
 0001:00042b40       ___acrt_uninitialize_critical 00443b40 f   MSVCRTD:ucrt_stubs.obj
 0001:00042b40       ___scrt_stub_for_acrt_uninitialize_critical 00443b40 f   MSVCRTD:ucrt_stubs.obj
 0001:00042b40       ___vcrt_uninitialize_critical 00443b40 f   MSVCRTD:ucrt_stubs.obj
 0001:00042b50       __is_c_termination_complete 00443b50 f   MSVCRTD:ucrt_stubs.obj
 0001:00042b50       ___scrt_stub_for_is_c_termination_complete 00443b50 f   MSVCRTD:ucrt_stubs.obj
 0001:00042b60       __filter_x86_sse2_floating_point_exception 00443b60 f   MSVCRTD:x86_exception_filter.obj
 0001:00042b60       __filter_x86_sse2_floating_point_exception_default 00443b60 f   MSVCRTD:x86_exception_filter.obj
 0002:00000000       ___xc_a                    0044c000     MSVCRTD:initializers.obj
 0002:0000030c       ___xc_z                    0044c30c     MSVCRTD:initializers.obj
 0002:00000410       ___xi_a                    0044c410     MSVCRTD:initializers.obj
 0002:0000071c       ___xi_z                    0044c71c     MSVCRTD:initializers.obj
 0002:00000820       ___xp_a                    0044c820     MSVCRTD:initializers.obj
 0002:00000924       ___xp_z                    0044c924     MSVCRTD:initializers.obj
 0002:00000a28       ___xt_a                    0044ca28     MSVCRTD:initializers.obj
 0002:00000b2c       ___xt_z                    0044cb2c     MSVCRTD:initializers.obj
 0002:00001110       ??_7exception@std@@6B@     0044d110     BaseEnemyObject.obj
 0002:0000111c       ??_C@_0BC@EOODALEL@Unknown?5exception@ 0044d11c     BaseEnemyObject.obj
 0002:00001138       ??_7bad_alloc@std@@6B@     0044d138     BaseEnemyObject.obj
 0002:00001148       ??_7bad_array_new_length@std@@6B@ 0044d148     BaseEnemyObject.obj
 0002:00001154       ??_C@_0BF@KINCDENJ@bad?5array?5new?5length@ 0044d154     BaseEnemyObject.obj
 0002:00001170       ??_C@_0BB@FCMFBGOM@invalid?5argument@ 0044d170     BaseEnemyObject.obj
 0002:00001184       ??_C@_02DKCKIIND@?$CFs@    0044d184     BaseEnemyObject.obj
 0002:00001188       ??_C@_0GI@MNEMJBML@C?3?2Program?5Files?5?$CIx86?$CJ?2Microsof@ 0044d188     BaseEnemyObject.obj
 0002:00001208       ??_C@_1NA@MJBOBEJL@?$AAC?$AA?3?$AA?2?$AAP?$AAr?$AAo?$AAg?$AAr?$AAa?$AAm?$AA?5?$AAF?$AAi?$AAl?$AAe@ 0044d208     BaseEnemyObject.obj
 0002:00001308       ??_C@_1EK@NIFDJFDG@?$AAs?$AAt?$AAd?$AA?3?$AA?3?$AA_?$AAA?$AAd?$AAj?$AAu?$AAs?$AAt?$AA_?$AAm?$AAa@ 0044d308     BaseEnemyObject.obj
 0002:00001360       ??_C@_1CG@JNLFBNGN@?$AA?$CC?$AAi?$AAn?$AAv?$AAa?$AAl?$AAi?$AAd?$AA?5?$AAa?$AAr?$AAg?$AAu?$AAm?$AAe@ 0044d360     BaseEnemyObject.obj
 0002:00001390       ??_C@_0BJ@LFDBABJJ@ITERATOR?5LIST?5CORRUPTED?$CB@ 0044d390     BaseEnemyObject.obj
 0002:000013b0       ??_C@_1FM@FOFDAEGI@?$AAs?$AAt?$AAd?$AA?3?$AA?3?$AA_?$AAI?$AAt?$AAe?$AAr?$AAa?$AAt?$AAo?$AAr?$AA_@ 0044d3b0     BaseEnemyObject.obj
 0002:00001420       ??_C@_1DG@PLBPCAEM@?$AA?$CC?$AAI?$AAT?$AAE?$AAR?$AAA?$AAT?$AAO?$AAR?$AA?5?$AAL?$AAI?$AAS?$AAT?$AA?5@ 0044d420     BaseEnemyObject.obj
 0002:00001460       ??_C@_0BA@JFNIOLAK@string?5too?5long@ 0044d460     BaseEnemyObject.obj
 0002:00001474       ??_C@_0BB@GCADKGJO@map?1set?5too?5long@ 0044d474     BaseEnemyObject.obj
 0002:00001488       ??_C@_0DC@BNOGMHFL@Error?5creating?5surface?5in?5RawIm@ 0044d488     BaseEnemyObject.obj
 0002:000014c4       ??_C@_0BD@IFIGDDIC@?7?7?$CL?$CL?$CL?5Load?5image?3?5@ 0044d4c4     BaseEnemyObject.obj
 0002:000014dc       ??_C@_0DJ@OJEPJEDH@ImageManager?3?3getImagePtrbyURL?$CI@ 0044d4dc     BaseEnemyObject.obj
 0002:00001520       ??_C@_0BJ@LOCNEGOL@Failed?5to?5load?5image?5?$CFs?6@ 0044d520     BaseEnemyObject.obj
 0002:00001540       ??_C@_0BO@PFKOHNJC@vector?5subscript?5out?5of?5range@ 0044d540     BaseEnemyObject.obj
 0002:00001568       ??_C@_0GH@KMHDIFOI@C?3?2Program?5Files?5?$CIx86?$CJ?2Microsof@ 0044d568     BaseEnemyObject.obj
 0002:000015e8       ??_C@_1MO@NOHEJINP@?$AAC?$AA?3?$AA?2?$AAP?$AAr?$AAo?$AAg?$AAr?$AAa?$AAm?$AA?5?$AAF?$AAi?$AAl?$AAe@ 0044d5e8     BaseEnemyObject.obj
 0002:000016e0       ??_C@_1HC@HBCEAHKD@?$AAs?$AAt?$AAd?$AA?3?$AA?3?$AAv?$AAe?$AAc?$AAt?$AAo?$AAr?$AA?$DM?$AAi?$AAn?$AAt@ 0044d6e0     BaseEnemyObject.obj
 0002:00001768       ??_C@_1EA@LEKOKFNB@?$AA?$CC?$AAv?$AAe?$AAc?$AAt?$AAo?$AAr?$AA?5?$AAs?$AAu?$AAb?$AAs?$AAc?$AAr?$AAi@ 0044d768     BaseEnemyObject.obj
 0002:000017b8       ??_C@_1BCM@BMJMJMGN@?$AAs?$AAt?$AAd?$AA?3?$AA?3?$AAv?$AAe?$AAc?$AAt?$AAo?$AAr?$AA?$DM?$AAc?$AAl?$AAa@ 0044d7b8     BaseEnemyObject.obj
 0002:00001920       ??_C@_1KK@EPMNOLOP@?$AAs?$AAt?$AAd?$AA?3?$AA?3?$AAv?$AAe?$AAc?$AAt?$AAo?$AAr?$AA?$DM?$AAc?$AAl?$AAa@ 0044d920     BaseEnemyObject.obj
 0002:000019f0       ??_C@_1MK@PODALHBD@?$AAs?$AAt?$AAd?$AA?3?$AA?3?$AAv?$AAe?$AAc?$AAt?$AAo?$AAr?$AA?$DM?$AAc?$AAl?$AAa@ 0044d9f0     BaseEnemyObject.obj
 0002:00001ae4       ??_C@_0BP@OLDKBHLM@map?1set?5iterators?5incompatible@ 0044dae4     BaseEnemyObject.obj
 0002:00001b10       ??_C@_0GG@BJFDHGEO@C?3?2Program?5Files?5?$CIx86?$CJ?2Microsof@ 0044db10     BaseEnemyObject.obj
 0002:00001b90       ??_C@_1MM@JHPNFGGF@?$AAC?$AA?3?$AA?2?$AAP?$AAr?$AAo?$AAg?$AAr?$AAa?$AAm?$AA?5?$AAF?$AAi?$AAl?$AAe@ 0044db90     BaseEnemyObject.obj
 0002:00001c88       ??_C@_1EC@JLIDLCDH@?$AA?$CC?$AAm?$AAa?$AAp?$AA?1?$AAs?$AAe?$AAt?$AA?5?$AAi?$AAt?$AAe?$AAr?$AAa?$AAt@ 0044dc88     BaseEnemyObject.obj
 0002:00001cd8       ??_C@_1BPG@KHABJGCD@?$AAs?$AAt?$AAd?$AA?3?$AA?3?$AA_?$AAT?$AAr?$AAe?$AAe?$AA_?$AAc?$AAo?$AAn?$AAs@ 0044dcd8     BaseEnemyObject.obj
 0002:00001f34       ??_C@_0DG@LCFNIIPB@cannot?5dereference?5value?9initia@ 0044df34     BaseEnemyObject.obj
 0002:00001f78       ??_C@_1BPE@BBFPAJEC@?$AAs?$AAt?$AAd?$AA?3?$AA?3?$AA_?$AAT?$AAr?$AAe?$AAe?$AA_?$AAc?$AAo?$AAn?$AAs@ 0044df78     BaseEnemyObject.obj
 0002:000021d0       ??_C@_1HA@ILGCNILF@?$AA?$CC?$AAc?$AAa?$AAn?$AAn?$AAo?$AAt?$AA?5?$AAd?$AAe?$AAr?$AAe?$AAf?$AAe?$AAr@ 0044e1d0     BaseEnemyObject.obj
 0002:00002258       ??_C@_0CI@OKFEHCEB@cannot?5dereference?5end?5map?1set?5@ 0044e258     BaseEnemyObject.obj
 0002:00002288       ??_C@_1FE@NKHAAGMB@?$AA?$CC?$AAc?$AAa?$AAn?$AAn?$AAo?$AAt?$AA?5?$AAd?$AAe?$AAr?$AAe?$AAf?$AAe?$AAr@ 0044e288     BaseEnemyObject.obj
 0002:000022ec       ??_C@_0DA@GGPHOHEL@map?1set?5erase?5iterator?5from?5inc@ 0044e2ec     BaseEnemyObject.obj
 0002:00002328       ??_C@_1DJG@KIJFPGMB@?$AAs?$AAt?$AAd?$AA?3?$AA?3?$AA_?$AAT?$AAr?$AAe?$AAe?$AA?$DM?$AAc?$AAl?$AAa?$AAs@ 0044e328     BaseEnemyObject.obj
 0002:00002778       ??_C@_1GE@FENJBJJO@?$AA?$CC?$AAm?$AAa?$AAp?$AA?1?$AAs?$AAe?$AAt?$AA?5?$AAe?$AAr?$AAa?$AAs?$AAe?$AA?5@ 0044e778     BaseEnemyObject.obj
 0002:000027f0       ??_C@_0CE@JAJNKOFK@cannot?5erase?5map?1set?5end?$CI?$CJ?5iter@ 0044e7f0     BaseEnemyObject.obj
 0002:00002820       ??_C@_1EM@MEAEPHLP@?$AA?$CC?$AAc?$AAa?$AAn?$AAn?$AAo?$AAt?$AA?5?$AAe?$AAr?$AAa?$AAs?$AAe?$AA?5?$AAm@ 0044e820     BaseEnemyObject.obj
 0002:00002880       ??_7?$_Ref_count@VRawImageData@@@std@@6B@ 0044e880     BaseEnemyObject.obj
 0002:00002894       ??_C@_0BA@FOIKENOD@vector?5too?5long@ 0044e894     BaseEnemyObject.obj
 0002:000028a8       ??_C@_0GJ@MPIAFDPJ@C?3?2Program?5Files?5?$CIx86?$CJ?2Microsof@ 0044e8a8     BaseEnemyObject.obj
 0002:00002928       ??_C@_1NC@IFKPGDLA@?$AAC?$AA?3?$AA?2?$AAP?$AAr?$AAo?$AAg?$AAr?$AAa?$AAm?$AA?5?$AAF?$AAi?$AAl?$AAe@ 0044e928     BaseEnemyObject.obj
 0002:00002a24       ??_C@_0BD@FEEMDEPI@invalid?5comparator@ 0044ea24     BaseEnemyObject.obj
 0002:00002a3c       ??_C@_1CI@JONCLBEJ@?$AAs?$AAt?$AAd?$AA?3?$AA?3?$AA_?$AAD?$AAe?$AAb?$AAu?$AAg?$AA_?$AAl?$AAt?$AA_@ 0044ea3c     BaseEnemyObject.obj
 0002:00002a6c       ??_C@_1CK@NDNHPKPI@?$AA?$CC?$AAi?$AAn?$AAv?$AAa?$AAl?$AAi?$AAd?$AA?5?$AAc?$AAo?$AAm?$AAp?$AAa?$AAr@ 0044ea6c     BaseEnemyObject.obj
 0002:00002f64       ??_7BaseState@@6B@         0044ef64     BaseState.obj
 0002:000038a4       ??_C@_0DE@CHADHGFF@can?8t?5dereference?5value?9initial@ 0044f8a4     BossEnemyObject.obj
 0002:000038e8       ??_C@_1GM@FNBFNBEL@?$AA?$CC?$AAc?$AAa?$AAn?$AA?8?$AAt?$AA?5?$AAd?$AAe?$AAr?$AAe?$AAf?$AAe?$AAr?$AAe@ 0044f8e8     BossEnemyObject.obj
 0002:0000396c       ??_C@_0CP@MDHADBHN@can?8t?5dereference?5out?5of?5range?5@ 0044f96c     BossEnemyObject.obj
 0002:000039a8       ??_C@_1GC@JDCKOLAC@?$AA?$CC?$AAc?$AAa?$AAn?$AA?8?$AAt?$AA?5?$AAd?$AAe?$AAr?$AAe?$AAf?$AAe?$AAr?$AAe@ 0044f9a8     BossEnemyObject.obj
 0002:00003a20       ??_C@_0DC@KEKNBAEB@can?8t?5increment?5value?9initializ@ 0044fa20     BossEnemyObject.obj
 0002:00003a60       ??_C@_1NK@JBMODOAD@?$AAs?$AAt?$AAd?$AA?3?$AA?3?$AA_?$AAV?$AAe?$AAc?$AAt?$AAo?$AAr?$AA_?$AAc?$AAo@ 0044fa60     BossEnemyObject.obj
 0002:00003b68       ??_C@_1GI@EDCILPL@?$AA?$CC?$AAc?$AAa?$AAn?$AA?8?$AAt?$AA?5?$AAi?$AAn?$AAc?$AAr?$AAe?$AAm?$AAe?$AAn@ 0044fb68     BossEnemyObject.obj
 0002:00003be4       ??_C@_0CJ@OAAAAGPM@can?8t?5increment?5vector?5iterator@ 0044fbe4     BossEnemyObject.obj
 0002:00003c18       ??_C@_1FG@LDPPKMGP@?$AA?$CC?$AAc?$AAa?$AAn?$AA?8?$AAt?$AA?5?$AAi?$AAn?$AAc?$AAr?$AAe?$AAm?$AAe?$AAn@ 0044fc18     BossEnemyObject.obj
 0002:00003c80       ??_C@_1NI@JGBEILGC@?$AAs?$AAt?$AAd?$AA?3?$AA?3?$AA_?$AAV?$AAe?$AAc?$AAt?$AAo?$AAr?$AA_?$AAc?$AAo@ 0044fc80     BossEnemyObject.obj
 0002:00003d84       ??_C@_0BH@EDKEEENI@deque?5empty?5before?5pop@ 0044fd84     BossEnemyObject.obj
 0002:00003da0       ??_C@_0GG@DOFEAGAC@C?3?2Program?5Files?5?$CIx86?$CJ?2Microsof@ 0044fda0     BossEnemyObject.obj
 0002:00003e20       ??_C@_1MM@NLNKBJLG@?$AAC?$AA?3?$AA?2?$AAP?$AAr?$AAo?$AAg?$AAr?$AAa?$AAm?$AA?5?$AAF?$AAi?$AAl?$AAe@ 0044fe20     BossEnemyObject.obj
 0002:00003f18       ??_C@_1JM@CMOJHCME@?$AAs?$AAt?$AAd?$AA?3?$AA?3?$AAd?$AAe?$AAq?$AAu?$AAe?$AA?$DM?$AAs?$AAt?$AAr?$AAu@ 0044ff18     BossEnemyObject.obj
 0002:00003fd4       ??_C@_1DC@NJAACHCD@?$AA?$CC?$AAd?$AAe?$AAq?$AAu?$AAe?$AA?5?$AAe?$AAm?$AAp?$AAt?$AAy?$AA?5?$AAb?$AAe@ 0044ffd4     BossEnemyObject.obj
 0002:00004010       ??_C@_0BO@PEOHNLIM@front?$CI?$CJ?5called?5on?5empty?5deque@ 00450010     BossEnemyObject.obj
 0002:00004038       ??_C@_1JE@INOIAFBN@?$AAs?$AAt?$AAd?$AA?3?$AA?3?$AAd?$AAe?$AAq?$AAu?$AAe?$AA?$DM?$AAs?$AAt?$AAr?$AAu@ 00450038     BossEnemyObject.obj
 0002:000040f0       ??_C@_1EA@EELNAHHD@?$AA?$CC?$AAf?$AAr?$AAo?$AAn?$AAt?$AA?$CI?$AA?$CJ?$AA?5?$AAc?$AAa?$AAl?$AAl?$AAe?$AAd@ 004500f0     BossEnemyObject.obj
 0002:0000413c       ??_C@_0BO@CAOBBIOC@vector?5iterators?5incompatible@ 0045013c     BossEnemyObject.obj
 0002:00004160       ??_C@_1NC@PIJGNNMC@?$AAs?$AAt?$AAd?$AA?3?$AA?3?$AA_?$AAV?$AAe?$AAc?$AAt?$AAo?$AAr?$AA_?$AAc?$AAo@ 00450160     BossEnemyObject.obj
 0002:00004260       ??_C@_1EA@DJDGNIII@?$AA?$CC?$AAv?$AAe?$AAc?$AAt?$AAo?$AAr?$AA?5?$AAi?$AAt?$AAe?$AAr?$AAa?$AAt?$AAo@ 00450260     BossEnemyObject.obj
 0002:000042b0       ??_C@_1JK@KJCAENOG@?$AAs?$AAt?$AAd?$AA?3?$AA?3?$AAd?$AAe?$AAq?$AAu?$AAe?$AA?$DM?$AAs?$AAt?$AAr?$AAu@ 004502b0     BossEnemyObject.obj
 0002:00004368       ??_C@_0BC@KBDMBKEH@deque?$DMT?$DO?5too?5long@ 00450368     BossEnemyObject.obj
 0002:00004380       ??_C@_0BJ@HAJGEHKO@transposed?5pointer?5range@ 00450380     BossEnemyObject.obj
 0002:000043a0       ??_C@_1CG@LJCPDKEJ@?$AAs?$AAt?$AAd?$AA?3?$AA?3?$AA_?$AAV?$AAe?$AAr?$AAi?$AAf?$AAy?$AA_?$AAr?$AAa@ 004503a0     BossEnemyObject.obj
 0002:000043d0       ??_C@_1DG@FJIKMGFD@?$AA?$CC?$AAt?$AAr?$AAa?$AAn?$AAs?$AAp?$AAo?$AAs?$AAe?$AAd?$AA?5?$AAp?$AAo?$AAi@ 004503d0     BossEnemyObject.obj
 0002:00004e34       ??_C@_0CN@GHCLOPHF@Error?5in?5setting?5pixel?9?5should?5@ 00450e34     DraggingDemo.obj
 0002:00004e70       ??_C@_0JM@GIEKPEHN@WARNING?3?5Attempted?5write?5to?5sur@ 00450e70     DraggingDemo.obj
 0002:00004f30       ??_7DragableBaseClassObject@@6B@ 00450f30     DraggingDemo.obj
 0002:00004f88       ??_7DragableObject@@6B@    00450f88     DraggingDemo.obj
 0002:00004fe0       ??_7DragableImageObject@@6B@ 00450fe0     DraggingDemo.obj
 0002:00005038       ??_7ImageObject@@6B@       00451038     DraggingDemo.obj
 0002:00005078       ?MY_PI@DrawingSurface@@2NB 00451078     DrawingSurface.obj
 0002:00005540       ??_C@_0LN@HOLHFHJI@WARNING?3?5Attempted?5blit?5to?5lock@ 00451540     DrawingSurface.obj
 0002:00005628       __real@3fe0000000000000    00451628     DrawingSurface.obj
 0002:00005638       __real@3fe0c152382d7365    00451638     DrawingSurface.obj
 0002:00005648       __real@3ff0000000000000    00451648     DrawingSurface.obj
 0002:00005658       __real@3ff8000000000000    00451658     DrawingSurface.obj
 0002:00005668       __real@3ff921fb54442d18    00451668     DrawingSurface.obj
 0002:00005678       __real@4000000000000000    00451678     DrawingSurface.obj
 0002:00005688       __real@4008000000000000    00451688     DrawingSurface.obj
 0002:00005698       __real@400921fb54442d18    00451698     DrawingSurface.obj
 0002:000056a8       __real@400f6a7a2955385e    004516a8     DrawingSurface.obj
 0002:000056b8       __real@4010000000000000    004516b8     DrawingSurface.obj
 0002:000056c8       __real@401921fb54442d18    004516c8     DrawingSurface.obj
 0002:0000618c       ??_7FlashingDemo@@6BDisplayableObjectContainer@@@ 0045218c     FlashingDemo.obj
 0002:00006238       ??_7FlashingDemo@@6BFilterPoints@@@ 00452238     FlashingDemo.obj
 0002:000077c0       ??_7bad_cast@std@@6B@      004537c0     GameState.obj
 0002:000077cc       ??_C@_08EPJLHIJG@bad?5cast@ 004537cc     GameState.obj
 0002:000077dc       ??_7MyDisplayableObjectContainer@@6B@ 004537dc     GameState.obj
 0002:000077ec       ??_7GameState@@6B@         004537ec     GameState.obj
 0002:00007848       ??_7TemplateObject@@6B@    00453848     GameState.obj
 0002:00007894       ??_7UserObject@@6B@        00453894     GameState.obj
 0002:000078e0       ??_7BulletObject@@6B@      004538e0     GameState.obj
 0002:0000792c       ??_7BaseEnemyObject@@6B@   0045392c     GameState.obj
 0002:00007980       ??_7RegularEnemyObject@@6B@ 00453980     GameState.obj
 0002:000079d4       ??_7EliteEnemyObject@@6B@  004539d4     GameState.obj
 0002:00007a28       ??_7BossEnemyObject@@6B@   00453a28     GameState.obj
 0002:00007a7c       ??_7?$basic_filebuf@DU?$char_traits@D@std@@@std@@6B@ 00453a7c     GameState.obj
 0002:00007ac8       ??_7?$basic_ifstream@DU?$char_traits@D@std@@@std@@6B@ 00453ac8     GameState.obj
 0002:00007ad0       ??_8?$basic_ifstream@DU?$char_traits@D@std@@@std@@7B@ 00453ad0     GameState.obj
 0002:00007ae0       ??_7?$basic_ofstream@DU?$char_traits@D@std@@@std@@6B@ 00453ae0     GameState.obj
 0002:00007ae8       ??_8?$basic_ofstream@DU?$char_traits@D@std@@@std@@7B@ 00453ae8     GameState.obj
 0002:00007af8       ??_C@_1PA@DMJFJEGO@?$AAs?$AAt?$AAd?$AA?3?$AA?3?$AA_?$AAV?$AAe?$AAc?$AAt?$AAo?$AAr?$AA_?$AAc?$AAo@ 00453af8     GameState.obj
 0002:00007c18       ??_C@_0CE@EAMOGAIE@vector?5erase?5iterator?5outside?5r@ 00453c18     GameState.obj
 0002:00007c48       ??_C@_1LO@PHHLNKEP@?$AAs?$AAt?$AAd?$AA?3?$AA?3?$AAv?$AAe?$AAc?$AAt?$AAo?$AAr?$AA?$DM?$AAc?$AAl?$AAa@ 00453c48     GameState.obj
 0002:00007d30       ??_C@_1EM@BEMPOGMM@?$AA?$CC?$AAv?$AAe?$AAc?$AAt?$AAo?$AAr?$AA?5?$AAe?$AAr?$AAa?$AAs?$AAe?$AA?5?$AAi@ 00453d30     GameState.obj
 0002:00007d90       ??_C@_0GI@DEIBJNCC@C?3?2Program?5Files?5?$CIx86?$CJ?2Microsof@ 00453d90     GameState.obj
 0002:00007e10       ??_C@_1NA@CHJCONEK@?$AAC?$AA?3?$AA?2?$AAP?$AAr?$AAo?$AAg?$AAr?$AAa?$AAm?$AA?5?$AAF?$AAi?$AAl?$AAe@ 00453e10     GameState.obj
 0002:00007f10       ??_C@_1PC@LAHDNGHL@?$AAs?$AAt?$AAd?$AA?3?$AA?3?$AA_?$AAV?$AAe?$AAc?$AAt?$AAo?$AAr?$AA_?$AAc?$AAo@ 00453f10     GameState.obj
 0002:00008034       ??_C@_0BP@PFIPNLNI@front?$CI?$CJ?5called?5on?5empty?5string@ 00454034     GameState.obj
 0002:00008060       ??_C@_1LC@BJDDPGPA@?$AAs?$AAt?$AAd?$AA?3?$AA?3?$AAb?$AAa?$AAs?$AAi?$AAc?$AA_?$AAs?$AAt?$AAr?$AAi@ 00454060     GameState.obj
 0002:00008138       ??_C@_1EC@DINNLDHA@?$AA?$CC?$AAf?$AAr?$AAo?$AAn?$AAt?$AA?$CI?$AA?$CJ?$AA?5?$AAc?$AAa?$AAl?$AAl?$AAe?$AAd@ 00454138     GameState.obj
 0002:00008188       ??_C@_1OK@EOCJDFAL@?$AAs?$AAt?$AAd?$AA?3?$AA?3?$AA_?$AAV?$AAe?$AAc?$AAt?$AAo?$AAr?$AA_?$AAc?$AAo@ 00454188     GameState.obj
 0002:000082a0       ??_C@_0BI@CFPLBAOH@invalid?5string?5position@ 004542a0     GameState.obj
 0002:000082bc       ??_C@_0DI@PBEELKIF@vector?5iterators?5in?5range?5are?5f@ 004542bc     GameState.obj
 0002:00008300       ??_C@_1HE@KBMFDAFB@?$AA?$CC?$AAv?$AAe?$AAc?$AAt?$AAo?$AAr?$AA?5?$AAi?$AAt?$AAe?$AAr?$AAa?$AAt?$AAo@ 00454300     GameState.obj
 0002:0000838c       ??_C@_0CB@LIAHLBAO@vector?5iterator?5range?5transpose@ 0045438c     GameState.obj
 0002:000083b8       ??_C@_1EG@ODKBEHFN@?$AA?$CC?$AAv?$AAe?$AAc?$AAt?$AAo?$AAr?$AA?5?$AAi?$AAt?$AAe?$AAr?$AAa?$AAt?$AAo@ 004543b8     GameState.obj
 0002:00008fe8       ??_7FilterPoints@@6B@      00454fe8     GuidanceState.obj
 0002:00009004       ??_7MyFilterPoint@@6B@     00455004     GuidanceState.obj
 0002:00009020       ??_7GuidanceState@@6B@     00455020     GuidanceState.obj
 0002:000099cc       ??_7ImagePixelMapping@@6B@ 004559cc     HistoryState.obj
 0002:000099dc       ??_7MyImagePixelMapping@@6B@ 004559dc     HistoryState.obj
 0002:000099ec       ??_7HistoryState@@6B@      004559ec     HistoryState.obj
 0002:00009a48       ??_7MappableImageObject@@6B@ 00455a48     HistoryState.obj
 0002:00009aa0       ??_C@_1KG@CJDCAIAF@?$AAs?$AAt?$AAd?$AA?3?$AA?3?$AAv?$AAe?$AAc?$AAt?$AAo?$AAr?$AA?$DM?$AAc?$AAl?$AAa@ 00455aa0     HistoryState.obj
 0002:0000a078       __real@3f1a36e2eb1c432d    00456078     ImageMappingDemo.obj
 0002:0000a088       __real@4059000000000000    00456088     ImageMappingDemo.obj
 0002:0000a098       __real@c059000000000000    00456098     ImageMappingDemo.obj
 0002:0000a6f4       ??_7InitialState@@6B@      004566f4     InitialState.obj
 0002:0000acfc       ??_7LoseState@@6B@         00456cfc     LoseState.obj
 0002:0000b270       ??_7TileManager@@6B@       00457270     mainfunction.obj
 0002:0000b280       ??_7GameTileManager@@6B@   00457280     mainfunction.obj
 0002:0000b290       ??_7GameEngine@@6BDisplayableObjectContainer@@@ 00457290     mainfunction.obj
 0002:0000b33c       ??_7GameEngine@@6BFilterPoints@@@ 0045733c     mainfunction.obj
 0002:0000b870       ??_7DisplayableObjectContainer@@6B@ 00457870     BaseEngine.obj
 0002:0000b880       ??_7BaseEngine@@6BDisplayableObjectContainer@@@ 00457880     BaseEngine.obj
 0002:0000b92c       ??_7BaseEngine@@6BFilterPoints@@@ 0045792c     BaseEngine.obj
 0002:0000be0c       ??_7DisplayableObject@@6B@ 00457e0c     DisplayableObject.obj
 0002:0000c12c       ??_C@_0BI@GMOFELCF@Free?5font?3?5?$CFd?5point?5?$CFs?6@ 0045812c     FontManager.obj
 0002:0000ccf8       ??_7UploadState@@6B@       00458cf8     UploadState.obj
 0002:0000cd50       ??_C@_01EEMJAFIK@?6@       00458d50     UploadState.obj
 0002:0000cd54       ??_C@_01CLKCMJKC@?5@       00458d54     UploadState.obj
 0002:0000cd58       ??_C@_0CB@EJBNKHHC@invalid?5to?5pop_back?5empty?5strin@ 00458d58     UploadState.obj
 0002:0000cd80       ??_C@_1LI@HCBEBID@?$AAs?$AAt?$AAd?$AA?3?$AA?3?$AAb?$AAa?$AAs?$AAi?$AAc?$AA_?$AAs?$AAt?$AAr?$AAi@ 00458d80     UploadState.obj
 0002:0000ce60       ??_C@_1EG@GNALHNOG@?$AA?$CC?$AAi?$AAn?$AAv?$AAa?$AAl?$AAi?$AAd?$AA?5?$AAt?$AAo?$AA?5?$AAp?$AAo?$AAp@ 00458e60     UploadState.obj
 0002:0000ceb8       ??_C@_1OA@HEOHFPKM@?$AAs?$AAt?$AAd?$AA?3?$AA?3?$AA_?$AAV?$AAe?$AAc?$AAt?$AAo?$AAr?$AA_?$AAc?$AAo@ 00458eb8     UploadState.obj
 0002:0000cfc8       ??_C@_1NO@PADODKDJ@?$AAs?$AAt?$AAd?$AA?3?$AA?3?$AA_?$AAV?$AAe?$AAc?$AAt?$AAo?$AAr?$AA_?$AAc?$AAo@ 00458fc8     UploadState.obj
 0002:0000d0d8       ??_C@_1NI@CEHHEOM@?$AAs?$AAt?$AAd?$AA?3?$AA?3?$AA_?$AAV?$AAe?$AAc?$AAt?$AAo?$AAr?$AA_?$AAc?$AAo@ 004590d8     UploadState.obj
 0002:0000d1dc       ??_C@_0CG@PHHCFCMA@vector?5emplace?5iterator?5outside@ 004591dc     UploadState.obj
 0002:0000d210       ??_C@_1JO@CPFJBJPL@?$AAs?$AAt?$AAd?$AA?3?$AA?3?$AAv?$AAe?$AAc?$AAt?$AAo?$AAr?$AA?$DM?$AAc?$AAl?$AAa@ 00459210     UploadState.obj
 0002:0000d2d0       ??_C@_1FA@JJEJIKGE@?$AA?$CC?$AAv?$AAe?$AAc?$AAt?$AAo?$AAr?$AA?5?$AAe?$AAm?$AAp?$AAl?$AAa?$AAc?$AAe@ 004592d0     UploadState.obj
 0002:0000d8b8       __real@0000000000000000    004598b8     UserObject.obj
 0002:0000d8c8       __real@3fc8000000000000    004598c8     UserObject.obj
 0002:0000d8d8       __real@c01ac00000000000    004598d8     UserObject.obj
 0002:0000ddb0       ??_7CroppedImagePixelMapping@@6B@ 00459db0     SimpleImage.obj
 0002:0000e338       ??_7BouncingObject@@6B@    0045a338     SimpleDemo.obj
 0002:0000e378       __real@3f747ae147ae147b    0045a378     SimpleDemo.obj
 0002:0000e388       __real@4004000000000000    0045a388     SimpleDemo.obj
 0002:0000e398       __real@400c000000000000    0045a398     SimpleDemo.obj
 0002:0000e3a8       __real@4069000000000000    0045a3a8     SimpleDemo.obj
 0002:0000e3b8       __real@4072c00000000000    0045a3b8     SimpleDemo.obj
 0002:0000e3d0       __xmm@80000000000000008000000000000000 0045a3d0     SimpleDemo.obj
 0002:0000e8ac       ??_7StarfieldDemo@@6BDisplayableObjectContainer@@@ 0045a8ac     StarfieldDemo.obj
 0002:0000e958       ??_7StarfieldDemo@@6BFilterPoints@@@ 0045a958     StarfieldDemo.obj
 0002:0000f2f4       ??_7BouncingBall@@6B@      0045b2f4     BouncingBall.obj
 0002:0000f338       ??_7BouncingBall1@@6B@     0045b338     BouncingBall.obj
 0002:0000f37c       ??_7BouncingBall2@@6B@     0045b37c     BouncingBall.obj
 0002:0000f3c0       __real@3f847ae147ae147b    0045b3c0     BouncingBall.obj
 0002:0000f8d8       __real@3fe999999999999a    0045b8d8     BouncingBallMain.obj
 0002:0000f8e8       __real@3ff199999999999a    0045b8e8     BouncingBallMain.obj
 0002:0000f8f8       __real@3ff3333333333333    0045b8f8     BouncingBallMain.obj
 0002:0000f908       __real@4049000000000000    0045b908     BouncingBallMain.obj
 0002:0000f918       __real@4062c00000000000    0045b918     BouncingBallMain.obj
 0002:0000f928       __real@4066800000000000    0045b928     BouncingBallMain.obj
 0002:0000f938       __real@406f400000000000    0045b938     BouncingBallMain.obj
 0002:0000f948       __real@4071300000000000    0045b948     BouncingBallMain.obj
 0002:0000f958       __real@4074500000000000    0045b958     BouncingBallMain.obj
 0002:0000f968       __real@4075e00000000000    0045b968     BouncingBallMain.obj
 0002:0000f978       __real@4077700000000000    0045b978     BouncingBallMain.obj
 0002:0000f988       __real@4079000000000000    0045b988     BouncingBallMain.obj
 0002:0000f998       __real@4079a00000000000    0045b998     BouncingBallMain.obj
 0002:0000f9a8       __real@407c200000000000    0045b9a8     BouncingBallMain.obj
 0002:0000f9b8       __real@407f400000000000    0045b9b8     BouncingBallMain.obj
 0002:0000f9c8       __real@4081300000000000    0045b9c8     BouncingBallMain.obj
 0002:0000f9d8       __real@4082c00000000000    0045b9d8     BouncingBallMain.obj
 0002:0000f9e8       __real@4084500000000000    0045b9e8     BouncingBallMain.obj
 0002:0000f9f8       __real@4087700000000000    0045b9f8     BouncingBallMain.obj
 0002:0000ffb0       ??_7WinState@@6B@          0045bfb0     WinState.obj
 0002:00010568       ??_7SimpleFlashingDragableImageObject@@6B@ 0045c568     ZoomingDemo.obj
 0002:00010c08       ??_7MazeDemoTileManager@@6B@ 0045cc08     MazeDemoMain.obj
 0002:00010c18       ??_7MazeDemoMain@@6BDisplayableObjectContainer@@@ 0045cc18     MazeDemoMain.obj
 0002:00010cc4       ??_7MazeDemoMain@@6BFilterPoints@@@ 0045ccc4     MazeDemoMain.obj
 0002:000111a4       ??_7MazeDemoObject@@6B@    0045d1a4     MazeDemoObject.obj
 0002:000116a8       ??_C@_0DN@HNMKBFBH@d?3?2a01?2_work?211?2s?2src?2vctools?2c@ 0045d6a8     msvcprtd:locale0_implib.obj
 0002:000116f8       ??_7type_info@@6B@         0045d6f8     MSVCRTD:std_type_info_static.obj
 0002:00011700       ??_C@_0P@GHFPNOJB@bad?5allocation@ 0045d700     MSVCRTD:throw_bad_alloc.obj
 0002:00011720       ??_C@_0BJ@HFNMHALN@Out?5of?5memory?5?9?5aborting@ 0045d720     SDL2main:SDL_windows_main.obj
 0002:00011740       ??_C@_0M@HFFOIJBL@Fatal?5Error@ 0045d740     SDL2main:SDL_windows_main.obj
 0002:00011788       __load_config_used         0045d788     MSVCRTD:loadcfg.obj
 0002:00011a80       ___CastGuardVftablesStart  0045da80     MSVCRTD:guard_support.obj
 0002:00011b84       ___CastGuardVftablesEnd    0045db84     MSVCRTD:guard_support.obj
 0002:00011c88       ??_R4exception@std@@6B@    0045dc88     BaseEnemyObject.obj
 0002:00011ca0       ??_R3exception@std@@8      0045dca0     BaseEnemyObject.obj
 0002:00011cb4       ??_R2exception@std@@8      0045dcb4     BaseEnemyObject.obj
 0002:00011cbc       ??_R1A@?0A@EA@exception@std@@8 0045dcbc     BaseEnemyObject.obj
 0002:00011ce0       ??_R4bad_alloc@std@@6B@    0045dce0     BaseEnemyObject.obj
 0002:00011cf8       ??_R3bad_alloc@std@@8      0045dcf8     BaseEnemyObject.obj
 0002:00011d0c       ??_R2bad_alloc@std@@8      0045dd0c     BaseEnemyObject.obj
 0002:00011d18       ??_R1A@?0A@EA@bad_alloc@std@@8 0045dd18     BaseEnemyObject.obj
 0002:00011d3c       ??_R4bad_array_new_length@std@@6B@ 0045dd3c     BaseEnemyObject.obj
 0002:00011d54       ??_R3bad_array_new_length@std@@8 0045dd54     BaseEnemyObject.obj
 0002:00011d68       ??_R2bad_array_new_length@std@@8 0045dd68     BaseEnemyObject.obj
 0002:00011d78       ??_R1A@?0A@EA@bad_array_new_length@std@@8 0045dd78     BaseEnemyObject.obj
 0002:00011d9c       ??_R3_Ref_count_base@std@@8 0045dd9c     BaseEnemyObject.obj
 0002:00011db0       ??_R2_Ref_count_base@std@@8 0045ddb0     BaseEnemyObject.obj
 0002:00011db8       ??_R1A@?0A@EA@_Ref_count_base@std@@8 0045ddb8     BaseEnemyObject.obj
 0002:00011ddc       ??_R4?$_Ref_count@VRawImageData@@@std@@6B@ 0045dddc     BaseEnemyObject.obj
 0002:00011df4       ??_R3?$_Ref_count@VRawImageData@@@std@@8 0045ddf4     BaseEnemyObject.obj
 0002:00011e08       ??_R2?$_Ref_count@VRawImageData@@@std@@8 0045de08     BaseEnemyObject.obj
 0002:00011e14       ??_R1A@?0A@EA@?$_Ref_count@VRawImageData@@@std@@8 0045de14     BaseEnemyObject.obj
 0002:00011e38       ??_R4BaseState@@6B@        0045de38     BaseState.obj
 0002:00011e50       ??_R3BaseState@@8          0045de50     BaseState.obj
 0002:00011e64       ??_R2BaseState@@8          0045de64     BaseState.obj
 0002:00011e6c       ??_R1A@?0A@EA@BaseState@@8 0045de6c     BaseState.obj
 0002:00011e90       ??_R4DragableBaseClassObject@@6B@ 0045de90     DraggingDemo.obj
 0002:00011ea8       ??_R3DragableBaseClassObject@@8 0045dea8     DraggingDemo.obj
 0002:00011ebc       ??_R2DragableBaseClassObject@@8 0045debc     DraggingDemo.obj
 0002:00011ec8       ??_R1A@?0A@EA@DragableBaseClassObject@@8 0045dec8     DraggingDemo.obj
 0002:00011eec       ??_R1A@?0A@EA@DisplayableObject@@8 0045deec     DraggingDemo.obj
 0002:00011f10       ??_R3DisplayableObject@@8  0045df10     DraggingDemo.obj
 0002:00011f24       ??_R2DisplayableObject@@8  0045df24     DraggingDemo.obj
 0002:00011f2c       ??_R4DragableObject@@6B@   0045df2c     DraggingDemo.obj
 0002:00011f44       ??_R3DragableObject@@8     0045df44     DraggingDemo.obj
 0002:00011f58       ??_R2DragableObject@@8     0045df58     DraggingDemo.obj
 0002:00011f68       ??_R1A@?0A@EA@DragableObject@@8 0045df68     DraggingDemo.obj
 0002:00011f8c       ??_R4DragableImageObject@@6B@ 0045df8c     DraggingDemo.obj
 0002:00011fa4       ??_R3DragableImageObject@@8 0045dfa4     DraggingDemo.obj
 0002:00011fb8       ??_R2DragableImageObject@@8 0045dfb8     DraggingDemo.obj
 0002:00011fc8       ??_R1A@?0A@EA@DragableImageObject@@8 0045dfc8     DraggingDemo.obj
 0002:00011fec       ??_R4ImageObject@@6B@      0045dfec     DraggingDemo.obj
 0002:00012004       ??_R3ImageObject@@8        0045e004     DraggingDemo.obj
 0002:00012018       ??_R2ImageObject@@8        0045e018     DraggingDemo.obj
 0002:00012024       ??_R1A@?0A@EA@ImageObject@@8 0045e024     DraggingDemo.obj
 0002:00012048       ??_R3DisplayableObjectContainer@@8 0045e048     FlashingDemo.obj
 0002:0001205c       ??_R2DisplayableObjectContainer@@8 0045e05c     FlashingDemo.obj
 0002:00012064       ??_R1A@?0A@EA@DisplayableObjectContainer@@8 0045e064     FlashingDemo.obj
 0002:00012088       ??_R4FlashingDemo@@6BDisplayableObjectContainer@@@ 0045e088     FlashingDemo.obj
 0002:000120a0       ??_R3FlashingDemo@@8       0045e0a0     FlashingDemo.obj
 0002:000120b4       ??_R2FlashingDemo@@8       0045e0b4     FlashingDemo.obj
 0002:000120c8       ??_R1A@?0A@EA@FlashingDemo@@8 0045e0c8     FlashingDemo.obj
 0002:000120ec       ??_R1A@?0A@EA@BaseEngine@@8 0045e0ec     FlashingDemo.obj
 0002:00012110       ??_R3BaseEngine@@8         0045e110     FlashingDemo.obj
 0002:00012124       ??_R2BaseEngine@@8         0045e124     FlashingDemo.obj
 0002:00012134       ??_R1BM@?0A@EA@FilterPoints@@8 0045e134     FlashingDemo.obj
 0002:00012158       ??_R3FilterPoints@@8       0045e158     FlashingDemo.obj
 0002:0001216c       ??_R2FilterPoints@@8       0045e16c     FlashingDemo.obj
 0002:00012174       ??_R1A@?0A@EA@FilterPoints@@8 0045e174     FlashingDemo.obj
 0002:00012198       ??_R4FlashingDemo@@6BFilterPoints@@@ 0045e198     FlashingDemo.obj
 0002:000121b0       ??_R4?$basic_filebuf@DU?$char_traits@D@std@@@std@@6B@ 0045e1b0     GameState.obj
 0002:000121c8       ??_R3?$basic_filebuf@DU?$char_traits@D@std@@@std@@8 0045e1c8     GameState.obj
 0002:000121dc       ??_R2?$basic_filebuf@DU?$char_traits@D@std@@@std@@8 0045e1dc     GameState.obj
 0002:000121e8       ??_R1A@?0A@EA@?$basic_filebuf@DU?$char_traits@D@std@@@std@@8 0045e1e8     GameState.obj
 0002:0001220c       ??_R1A@?0A@EA@?$basic_streambuf@DU?$char_traits@D@std@@@std@@8 0045e20c     GameState.obj
 0002:00012230       ??_R3?$basic_streambuf@DU?$char_traits@D@std@@@std@@8 0045e230     GameState.obj
 0002:00012244       ??_R2?$basic_streambuf@DU?$char_traits@D@std@@@std@@8 0045e244     GameState.obj
 0002:0001224c       ??_R4?$basic_ifstream@DU?$char_traits@D@std@@@std@@6B@ 0045e24c     GameState.obj
 0002:00012264       ??_R3?$basic_ifstream@DU?$char_traits@D@std@@@std@@8 0045e264     GameState.obj
 0002:00012278       ??_R2?$basic_ifstream@DU?$char_traits@D@std@@@std@@8 0045e278     GameState.obj
 0002:00012294       ??_R1A@?0A@EA@?$basic_ifstream@DU?$char_traits@D@std@@@std@@8 0045e294     GameState.obj
 0002:000122b8       ??_R1A@?0A@EA@?$basic_istream@DU?$char_traits@D@std@@@std@@8 0045e2b8     GameState.obj
 0002:000122dc       ??_R3?$basic_istream@DU?$char_traits@D@std@@@std@@8 0045e2dc     GameState.obj
 0002:000122f0       ??_R2?$basic_istream@DU?$char_traits@D@std@@@std@@8 0045e2f0     GameState.obj
 0002:00012304       ??_R1A@A@3FA@?$basic_ios@DU?$char_traits@D@std@@@std@@8 0045e304     GameState.obj
 0002:00012328       ??_R3?$basic_ios@DU?$char_traits@D@std@@@std@@8 0045e328     GameState.obj
 0002:0001233c       ??_R2?$basic_ios@DU?$char_traits@D@std@@@std@@8 0045e33c     GameState.obj
 0002:0001234c       ??_R1A@?0A@EA@?$basic_ios@DU?$char_traits@D@std@@@std@@8 0045e34c     GameState.obj
 0002:00012370       ??_R1A@?0A@EA@ios_base@std@@8 0045e370     GameState.obj
 0002:00012394       ??_R3ios_base@std@@8       0045e394     GameState.obj
 0002:000123a8       ??_R2ios_base@std@@8       0045e3a8     GameState.obj
 0002:000123b4       ??_R17?0A@EA@?$_Iosb@H@std@@8 0045e3b4     GameState.obj
 0002:000123d8       ??_R3?$_Iosb@H@std@@8      0045e3d8     GameState.obj
 0002:000123ec       ??_R2?$_Iosb@H@std@@8      0045e3ec     GameState.obj
 0002:000123f4       ??_R1A@?0A@EA@?$_Iosb@H@std@@8 0045e3f4     GameState.obj
 0002:00012418       ??_R1A@A@3EA@ios_base@std@@8 0045e418     GameState.obj
 0002:0001243c       ??_R17A@3EA@?$_Iosb@H@std@@8 0045e43c     GameState.obj
 0002:00012460       ??_R4?$basic_ofstream@DU?$char_traits@D@std@@@std@@6B@ 0045e460     GameState.obj
 0002:00012478       ??_R3?$basic_ofstream@DU?$char_traits@D@std@@@std@@8 0045e478     GameState.obj
 0002:0001248c       ??_R2?$basic_ofstream@DU?$char_traits@D@std@@@std@@8 0045e48c     GameState.obj
 0002:000124a8       ??_R1A@?0A@EA@?$basic_ofstream@DU?$char_traits@D@std@@@std@@8 0045e4a8     GameState.obj
 0002:000124cc       ??_R1A@?0A@EA@?$basic_ostream@DU?$char_traits@D@std@@@std@@8 0045e4cc     GameState.obj
 0002:000124f0       ??_R3?$basic_ostream@DU?$char_traits@D@std@@@std@@8 0045e4f0     GameState.obj
 0002:00012504       ??_R2?$basic_ostream@DU?$char_traits@D@std@@@std@@8 0045e504     GameState.obj
 0002:00012518       ??_R4bad_cast@std@@6B@     0045e518     GameState.obj
 0002:00012530       ??_R3bad_cast@std@@8       0045e530     GameState.obj
 0002:00012544       ??_R2bad_cast@std@@8       0045e544     GameState.obj
 0002:00012550       ??_R1A@?0A@EA@bad_cast@std@@8 0045e550     GameState.obj
 0002:00012574       ??_R4MyDisplayableObjectContainer@@6B@ 0045e574     GameState.obj
 0002:0001258c       ??_R3MyDisplayableObjectContainer@@8 0045e58c     GameState.obj
 0002:000125a0       ??_R2MyDisplayableObjectContainer@@8 0045e5a0     GameState.obj
 0002:000125a8       ??_R1A@?0A@EA@MyDisplayableObjectContainer@@8 0045e5a8     GameState.obj
 0002:000125cc       ??_R4GameState@@6B@        0045e5cc     GameState.obj
 0002:000125e4       ??_R3GameState@@8          0045e5e4     GameState.obj
 0002:000125f8       ??_R2GameState@@8          0045e5f8     GameState.obj
 0002:00012604       ??_R1A@?0A@EA@GameState@@8 0045e604     GameState.obj
 0002:00012628       ??_R4UserObject@@6B@       0045e628     GameState.obj
 0002:00012640       ??_R3UserObject@@8         0045e640     GameState.obj
 0002:00012654       ??_R2UserObject@@8         0045e654     GameState.obj
 0002:00012664       ??_R1A@?0A@EA@UserObject@@8 0045e664     GameState.obj
 0002:00012688       ??_R1A@?0A@EA@TemplateObject@@8 0045e688     GameState.obj
 0002:000126ac       ??_R3TemplateObject@@8     0045e6ac     GameState.obj
 0002:000126c0       ??_R2TemplateObject@@8     0045e6c0     GameState.obj
 0002:000126cc       ??_R4BaseEnemyObject@@6B@  0045e6cc     GameState.obj
 0002:000126e4       ??_R3BaseEnemyObject@@8    0045e6e4     GameState.obj
 0002:000126f8       ??_R2BaseEnemyObject@@8    0045e6f8     GameState.obj
 0002:00012708       ??_R1A@?0A@EA@BaseEnemyObject@@8 0045e708     GameState.obj
 0002:0001272c       ??_R4RegularEnemyObject@@6B@ 0045e72c     GameState.obj
 0002:00012744       ??_R3RegularEnemyObject@@8 0045e744     GameState.obj
 0002:00012758       ??_R2RegularEnemyObject@@8 0045e758     GameState.obj
 0002:0001276c       ??_R1A@?0A@EA@RegularEnemyObject@@8 0045e76c     GameState.obj
 0002:00012790       ??_R4EliteEnemyObject@@6B@ 0045e790     GameState.obj
 0002:000127a8       ??_R3EliteEnemyObject@@8   0045e7a8     GameState.obj
 0002:000127bc       ??_R2EliteEnemyObject@@8   0045e7bc     GameState.obj
 0002:000127d0       ??_R1A@?0A@EA@EliteEnemyObject@@8 0045e7d0     GameState.obj
 0002:000127f4       ??_R4BossEnemyObject@@6B@  0045e7f4     GameState.obj
 0002:0001280c       ??_R3BossEnemyObject@@8    0045e80c     GameState.obj
 0002:00012820       ??_R2BossEnemyObject@@8    0045e820     GameState.obj
 0002:00012834       ??_R1A@?0A@EA@BossEnemyObject@@8 0045e834     GameState.obj
 0002:00012858       ??_R4BulletObject@@6B@     0045e858     GameState.obj
 0002:00012870       ??_R3BulletObject@@8       0045e870     GameState.obj
 0002:00012884       ??_R2BulletObject@@8       0045e884     GameState.obj
 0002:00012894       ??_R1A@?0A@EA@BulletObject@@8 0045e894     GameState.obj
 0002:000128b8       ??_R4TemplateObject@@6B@   0045e8b8     GameState.obj
 0002:000128d0       ??_R4FilterPoints@@6B@     0045e8d0     GuidanceState.obj
 0002:000128e8       ??_R4MyFilterPoint@@6B@    0045e8e8     GuidanceState.obj
 0002:00012900       ??_R3MyFilterPoint@@8      0045e900     GuidanceState.obj
 0002:00012914       ??_R2MyFilterPoint@@8      0045e914     GuidanceState.obj
 0002:00012920       ??_R1A@?0A@EA@MyFilterPoint@@8 0045e920     GuidanceState.obj
 0002:00012944       ??_R4GuidanceState@@6B@    0045e944     GuidanceState.obj
 0002:0001295c       ??_R3GuidanceState@@8      0045e95c     GuidanceState.obj
 0002:00012970       ??_R2GuidanceState@@8      0045e970     GuidanceState.obj
 0002:0001297c       ??_R1A@?0A@EA@GuidanceState@@8 0045e97c     GuidanceState.obj
 0002:000129a0       ??_R4ImagePixelMapping@@6B@ 0045e9a0     HistoryState.obj
 0002:000129b8       ??_R3ImagePixelMapping@@8  0045e9b8     HistoryState.obj
 0002:000129cc       ??_R2ImagePixelMapping@@8  0045e9cc     HistoryState.obj
 0002:000129d4       ??_R1A@?0A@EA@ImagePixelMapping@@8 0045e9d4     HistoryState.obj
 0002:000129f8       ??_R4MyImagePixelMapping@@6B@ 0045e9f8     HistoryState.obj
 0002:00012a10       ??_R3MyImagePixelMapping@@8 0045ea10     HistoryState.obj
 0002:00012a24       ??_R2MyImagePixelMapping@@8 0045ea24     HistoryState.obj
 0002:00012a30       ??_R1A@?0A@EA@MyImagePixelMapping@@8 0045ea30     HistoryState.obj
 0002:00012a54       ??_R4HistoryState@@6B@     0045ea54     HistoryState.obj
 0002:00012a6c       ??_R3HistoryState@@8       0045ea6c     HistoryState.obj
 0002:00012a80       ??_R2HistoryState@@8       0045ea80     HistoryState.obj
 0002:00012a8c       ??_R1A@?0A@EA@HistoryState@@8 0045ea8c     HistoryState.obj
 0002:00012ab0       ??_R4MappableImageObject@@6B@ 0045eab0     HistoryState.obj
 0002:00012ac8       ??_R3MappableImageObject@@8 0045eac8     HistoryState.obj
 0002:00012adc       ??_R2MappableImageObject@@8 0045eadc     HistoryState.obj
 0002:00012af0       ??_R1A@?0A@EA@MappableImageObject@@8 0045eaf0     HistoryState.obj
 0002:00012b14       ??_R4InitialState@@6B@     0045eb14     InitialState.obj
 0002:00012b2c       ??_R3InitialState@@8       0045eb2c     InitialState.obj
 0002:00012b40       ??_R2InitialState@@8       0045eb40     InitialState.obj
 0002:00012b4c       ??_R1A@?0A@EA@InitialState@@8 0045eb4c     InitialState.obj
 0002:00012b70       ??_R4LoseState@@6B@        0045eb70     LoseState.obj
 0002:00012b88       ??_R3LoseState@@8          0045eb88     LoseState.obj
 0002:00012b9c       ??_R2LoseState@@8          0045eb9c     LoseState.obj
 0002:00012ba8       ??_R1A@?0A@EA@LoseState@@8 0045eba8     LoseState.obj
 0002:00012bcc       ??_R4TileManager@@6B@      0045ebcc     mainfunction.obj
 0002:00012be4       ??_R3TileManager@@8        0045ebe4     mainfunction.obj
 0002:00012bf8       ??_R2TileManager@@8        0045ebf8     mainfunction.obj
 0002:00012c00       ??_R1A@?0A@EA@TileManager@@8 0045ec00     mainfunction.obj
 0002:00012c24       ??_R4GameEngine@@6BDisplayableObjectContainer@@@ 0045ec24     mainfunction.obj
 0002:00012c3c       ??_R3GameEngine@@8         0045ec3c     mainfunction.obj
 0002:00012c50       ??_R2GameEngine@@8         0045ec50     mainfunction.obj
 0002:00012c64       ??_R1A@?0A@EA@GameEngine@@8 0045ec64     mainfunction.obj
 0002:00012c88       ??_R4GameEngine@@6BFilterPoints@@@ 0045ec88     mainfunction.obj
 0002:00012ca0       ??_R4GameTileManager@@6B@  0045eca0     mainfunction.obj
 0002:00012cb8       ??_R3GameTileManager@@8    0045ecb8     mainfunction.obj
 0002:00012ccc       ??_R2GameTileManager@@8    0045eccc     mainfunction.obj
 0002:00012cd8       ??_R1A@?0A@EA@GameTileManager@@8 0045ecd8     mainfunction.obj
 0002:00012cfc       ??_R4BaseEngine@@6BDisplayableObjectContainer@@@ 0045ecfc     BaseEngine.obj
 0002:00012d14       ??_R4BaseEngine@@6BFilterPoints@@@ 0045ed14     BaseEngine.obj
 0002:00012d2c       ??_R4DisplayableObjectContainer@@6B@ 0045ed2c     BaseEngine.obj
 0002:00012d44       ??_R4DisplayableObject@@6B@ 0045ed44     DisplayableObject.obj
 0002:00012d5c       ??_R4UploadState@@6B@      0045ed5c     UploadState.obj
 0002:00012d74       ??_R3UploadState@@8        0045ed74     UploadState.obj
 0002:00012d88       ??_R2UploadState@@8        0045ed88     UploadState.obj
 0002:00012d94       ??_R1A@?0A@EA@UploadState@@8 0045ed94     UploadState.obj
 0002:00012db8       ??_R4CroppedImagePixelMapping@@6B@ 0045edb8     SimpleImage.obj
 0002:00012dd0       ??_R3CroppedImagePixelMapping@@8 0045edd0     SimpleImage.obj
 0002:00012de4       ??_R2CroppedImagePixelMapping@@8 0045ede4     SimpleImage.obj
 0002:00012df0       ??_R1A@?0A@EA@CroppedImagePixelMapping@@8 0045edf0     SimpleImage.obj
 0002:00012e14       ??_R4BouncingObject@@6B@   0045ee14     SimpleDemo.obj
 0002:00012e2c       ??_R3BouncingObject@@8     0045ee2c     SimpleDemo.obj
 0002:00012e40       ??_R2BouncingObject@@8     0045ee40     SimpleDemo.obj
 0002:00012e4c       ??_R1A@?0A@EA@BouncingObject@@8 0045ee4c     SimpleDemo.obj
 0002:00012e70       ??_R4StarfieldDemo@@6BDisplayableObjectContainer@@@ 0045ee70     StarfieldDemo.obj
 0002:00012e88       ??_R3StarfieldDemo@@8      0045ee88     StarfieldDemo.obj
 0002:00012e9c       ??_R2StarfieldDemo@@8      0045ee9c     StarfieldDemo.obj
 0002:00012eb0       ??_R1A@?0A@EA@StarfieldDemo@@8 0045eeb0     StarfieldDemo.obj
 0002:00012ed4       ??_R4StarfieldDemo@@6BFilterPoints@@@ 0045eed4     StarfieldDemo.obj
 0002:00012eec       ??_R4BouncingBall@@6B@     0045eeec     BouncingBall.obj
 0002:00012f04       ??_R3BouncingBall@@8       0045ef04     BouncingBall.obj
 0002:00012f18       ??_R2BouncingBall@@8       0045ef18     BouncingBall.obj
 0002:00012f24       ??_R1A@?0A@EA@BouncingBall@@8 0045ef24     BouncingBall.obj
 0002:00012f48       ??_R4BouncingBall1@@6B@    0045ef48     BouncingBall.obj
 0002:00012f60       ??_R3BouncingBall1@@8      0045ef60     BouncingBall.obj
 0002:00012f74       ??_R2BouncingBall1@@8      0045ef74     BouncingBall.obj
 0002:00012f84       ??_R1A@?0A@EA@BouncingBall1@@8 0045ef84     BouncingBall.obj
 0002:00012fa8       ??_R4BouncingBall2@@6B@    0045efa8     BouncingBall.obj
 0002:00012fc0       ??_R3BouncingBall2@@8      0045efc0     BouncingBall.obj
 0002:00012fd4       ??_R2BouncingBall2@@8      0045efd4     BouncingBall.obj
 0002:00012fe4       ??_R1A@?0A@EA@BouncingBall2@@8 0045efe4     BouncingBall.obj
 0002:00013008       ??_R4WinState@@6B@         0045f008     WinState.obj
 0002:00013020       ??_R3WinState@@8           0045f020     WinState.obj
 0002:00013034       ??_R2WinState@@8           0045f034     WinState.obj
 0002:00013040       ??_R1A@?0A@EA@WinState@@8  0045f040     WinState.obj
 0002:00013064       ??_R4SimpleFlashingDragableImageObject@@6B@ 0045f064     ZoomingDemo.obj
 0002:0001307c       ??_R3SimpleFlashingDragableImageObject@@8 0045f07c     ZoomingDemo.obj
 0002:00013090       ??_R2SimpleFlashingDragableImageObject@@8 0045f090     ZoomingDemo.obj
 0002:0001309c       ??_R1A@?0A@EA@SimpleFlashingDragableImageObject@@8 0045f09c     ZoomingDemo.obj
 0002:000130c0       ??_R4MazeDemoMain@@6BDisplayableObjectContainer@@@ 0045f0c0     MazeDemoMain.obj
 0002:000130d8       ??_R3MazeDemoMain@@8       0045f0d8     MazeDemoMain.obj
 0002:000130ec       ??_R2MazeDemoMain@@8       0045f0ec     MazeDemoMain.obj
 0002:00013100       ??_R1A@?0A@EA@MazeDemoMain@@8 0045f100     MazeDemoMain.obj
 0002:00013124       ??_R4MazeDemoMain@@6BFilterPoints@@@ 0045f124     MazeDemoMain.obj
 0002:0001313c       ??_R4MazeDemoTileManager@@6B@ 0045f13c     MazeDemoMain.obj
 0002:00013154       ??_R3MazeDemoTileManager@@8 0045f154     MazeDemoMain.obj
 0002:00013168       ??_R2MazeDemoTileManager@@8 0045f168     MazeDemoMain.obj
 0002:00013174       ??_R1A@?0A@EA@MazeDemoTileManager@@8 0045f174     MazeDemoMain.obj
 0002:00013198       ??_R4MazeDemoObject@@6B@   0045f198     MazeDemoObject.obj
 0002:000131b0       ??_R3MazeDemoObject@@8     0045f1b0     MazeDemoObject.obj
 0002:000131c4       ??_R2MazeDemoObject@@8     0045f1c4     MazeDemoObject.obj
 0002:000131d0       ??_R1A@?0A@EA@MazeDemoObject@@8 0045f1d0     MazeDemoObject.obj
 0002:000131f4       ??_R4type_info@@6B@        0045f1f4     MSVCRTD:std_type_info_static.obj
 0002:0001320c       ??_R3type_info@@8          0045f20c     MSVCRTD:std_type_info_static.obj
 0002:00013220       ??_R2type_info@@8          0045f220     MSVCRTD:std_type_info_static.obj
 0002:00013228       ??_R1A@?0A@EA@type_info@@8 0045f228     MSVCRTD:std_type_info_static.obj
 0002:000133dc       ___safe_se_handler_table   0045f3dc     <linker-defined>
 0002:00013a98       ___rtc_iaa                 0045fa98     MSVCRTD:initsect.obj
 0002:00013b9c       ___rtc_izz                 0045fb9c     MSVCRTD:initsect.obj
 0002:00013ca0       ___rtc_taa                 0045fca0     MSVCRTD:initsect.obj
 0002:00013da4       ___rtc_tzz                 0045fda4     MSVCRTD:initsect.obj
 0002:000148a0       __TI3?AVbad_array_new_length@std@@ 004608a0     BaseEnemyObject.obj
 0002:000148b4       __CTA3?AVbad_array_new_length@std@@ 004608b4     BaseEnemyObject.obj
 0002:000148c8       __CT??_R0?AVbad_array_new_length@std@@@8??0bad_array_new_length@std@@QAE@ABV01@@Z12 004608c8     BaseEnemyObject.obj
 0002:000148e8       __CT??_R0?AVbad_alloc@std@@@8??0bad_alloc@std@@QAE@ABV01@@Z12 004608e8     BaseEnemyObject.obj
 0002:00014908       __CT??_R0?AVexception@std@@@8??0exception@std@@QAE@ABV01@@Z12 00460908     BaseEnemyObject.obj
 0002:00015bbc       __TI2?AVbad_cast@std@@     00461bbc     GameState.obj
 0002:00015bd0       __CTA2?AVbad_cast@std@@    00461bd0     GameState.obj
 0002:00015be0       __CT??_R0?AVbad_cast@std@@@8??0bad_cast@std@@QAE@ABV01@@Z12 00461be0     GameState.obj
 0002:00016f70       __TI2?AVbad_alloc@std@@    00462f70     MSVCRTD:throw_bad_alloc.obj
 0002:00016f84       __CTA2?AVbad_alloc@std@@   00462f84     MSVCRTD:throw_bad_alloc.obj
 0003:00000008       ___security_cookie_complement 00464008     MSVCRTD:gs_cookie.obj
 0003:0000000c       ___security_cookie         0046400c     MSVCRTD:gs_cookie.obj
 0003:00000020       __fltused                  00464020     MSVCRTD:fltused.obj
 0003:00000024       ___scrt_native_dllmain_reason 00464024     MSVCRTD:utility.obj
 0003:00000028       ___scrt_default_matherr    00464028     MSVCRTD:matherr.obj
 0003:0000002c       ___isa_enabled             0046402c     MSVCRTD:cpu_disp.obj
 0003:00000030       ___scrt_ucrt_dll_is_in_use 00464030     MSVCRTD:ucrt_stubs.obj
 0003:00000140       ??_R0?AVbad_array_new_length@std@@@8 00464140     BaseEnemyObject.obj
 0003:00000170       ??_R0?AVbad_alloc@std@@@8  00464170     BaseEnemyObject.obj
 0003:00000194       ??_R0?AVexception@std@@@8  00464194     BaseEnemyObject.obj
 0003:000001b8       ??_R0?AVDisplayableObject@@@8 004641b8     BaseEnemyObject.obj
 0003:000001e0       ??_R0?AVBulletObject@@@8   004641e0     BaseEnemyObject.obj
 0003:00000200       ??_R0?AVUserObject@@@8     00464200     BossEnemyObject.obj
 0003:00000220       ??_R0?AVbad_cast@std@@@8   00464220     GameState.obj
 0003:00000240       ??_R0?AVRegularEnemyObject@@@8 00464240     GameState.obj
 0003:00000268       ??_R0?AVEliteEnemyObject@@@8 00464268     GameState.obj
 0003:00000290       ??_R0?AVBossEnemyObject@@@8 00464290     GameState.obj
 0003:000003bc       ??_R0?AV_Ref_count_base@std@@@8 004643bc     BaseEnemyObject.obj
 0003:000003e4       ??_R0?AV?$_Ref_count@VRawImageData@@@std@@@8 004643e4     BaseEnemyObject.obj
 0003:0000041c       ??_R0?AVBaseState@@@8      0046441c     BaseState.obj
 0003:00000438       ??_R0?AVDragableBaseClassObject@@@8 00464438     DraggingDemo.obj
 0003:00000468       ??_R0?AVDragableObject@@@8 00464468     DraggingDemo.obj
 0003:0000048c       ??_R0?AVDragableImageObject@@@8 0046448c     DraggingDemo.obj
 0003:000004b4       ??_R0?AVImageObject@@@8    004644b4     DraggingDemo.obj
 0003:000004d4       ??_R0?AVDisplayableObjectContainer@@@8 004644d4     FlashingDemo.obj
 0003:00000508       ??_R0?AVFlashingDemo@@@8   00464508     FlashingDemo.obj
 0003:00000528       ??_R0?AVBaseEngine@@@8     00464528     FlashingDemo.obj
 0003:00000548       ??_R0?AVFilterPoints@@@8   00464548     FlashingDemo.obj
 0003:00000568       ??_R0?AV?$basic_filebuf@DU?$char_traits@D@std@@@std@@@8 00464568     GameState.obj
 0003:000005b0       ??_R0?AV?$basic_streambuf@DU?$char_traits@D@std@@@std@@@8 004645b0     GameState.obj
 0003:000005f8       ??_R0?AV?$basic_ifstream@DU?$char_traits@D@std@@@std@@@8 004645f8     GameState.obj
 0003:00000640       ??_R0?AV?$basic_istream@DU?$char_traits@D@std@@@std@@@8 00464640     GameState.obj
 0003:00000688       ??_R0?AV?$basic_ios@DU?$char_traits@D@std@@@std@@@8 00464688     GameState.obj
 0003:000006c8       ??_R0?AVios_base@std@@@8   004646c8     GameState.obj
 0003:000006e8       ??_R0?AV?$_Iosb@H@std@@@8  004646e8     GameState.obj
 0003:0000070c       ??_R0?AV?$basic_ofstream@DU?$char_traits@D@std@@@std@@@8 0046470c     GameState.obj
 0003:00000754       ??_R0?AV?$basic_ostream@DU?$char_traits@D@std@@@std@@@8 00464754     GameState.obj
 0003:0000079c       ??_R0?AVMyDisplayableObjectContainer@@@8 0046479c     GameState.obj
 0003:000007d0       ??_R0?AVGameState@@@8      004647d0     GameState.obj
 0003:000007ec       ??_R0?AVTemplateObject@@@8 004647ec     GameState.obj
 0003:00000810       ??_R0?AVBaseEnemyObject@@@8 00464810     GameState.obj
 0003:00000834       ??_R0?AVMyFilterPoint@@@8  00464834     GuidanceState.obj
 0003:00000858       ??_R0?AVGuidanceState@@@8  00464858     GuidanceState.obj
 0003:0000087c       ??_R0?AVImagePixelMapping@@@8 0046487c     HistoryState.obj
 0003:000008a4       ??_R0?AVMyImagePixelMapping@@@8 004648a4     HistoryState.obj
 0003:000008cc       ??_R0?AVHistoryState@@@8   004648cc     HistoryState.obj
 0003:000008ec       ??_R0?AVMappableImageObject@@@8 004648ec     HistoryState.obj
 0003:00000914       ??_R0?AVInitialState@@@8   00464914     InitialState.obj
 0003:00000934       ??_R0?AVLoseState@@@8      00464934     LoseState.obj
 0003:00000950       ??_R0?AVTileManager@@@8    00464950     mainfunction.obj
 0003:00000970       ??_R0?AVGameEngine@@@8     00464970     mainfunction.obj
 0003:00000990       ??_R0?AVGameTileManager@@@8 00464990     mainfunction.obj
 0003:000009b4       ??_R0?AVUploadState@@@8    004649b4     UploadState.obj
 0003:000009d4       ??_R0?AVCroppedImagePixelMapping@@@8 004649d4     SimpleImage.obj
 0003:00000a04       ??_R0?AVBouncingObject@@@8 00464a04     SimpleDemo.obj
 0003:00000a28       ??_R0?AVStarfieldDemo@@@8  00464a28     StarfieldDemo.obj
 0003:00000a4c       ??_R0?AVBouncingBall@@@8   00464a4c     BouncingBall.obj
 0003:00000a6c       ??_R0?AVBouncingBall1@@@8  00464a6c     BouncingBall.obj
 0003:00000a90       ??_R0?AVBouncingBall2@@@8  00464a90     BouncingBall.obj
 0003:00000ab4       ??_R0?AVWinState@@@8       00464ab4     WinState.obj
 0003:00000ad0       ??_R0?AVSimpleFlashingDragableImageObject@@@8 00464ad0     ZoomingDemo.obj
 0003:00000b0c       ??_R0?AVMazeDemoMain@@@8   00464b0c     MazeDemoMain.obj
 0003:00000b2c       ??_R0?AVMazeDemoTileManager@@@8 00464b2c     MazeDemoMain.obj
 0003:00000b54       ??_R0?AVMazeDemoObject@@@8 00464b54     MazeDemoObject.obj
 0003:00000b78       ??_R0?AVtype_info@@@8      00464b78     MSVCRTD:std_type_info_static.obj
 0003:00000cc0       ?_OptionsStorage@?1??__local_stdio_printf_options@@9@4_KA 00464cc0     BaseEnemyObject.obj
 0003:00000ccc       ?_Stinit@?1??_Init@?$basic_filebuf@DU?$char_traits@D@std@@@std@@IAEXPAU_iobuf@@W4_Initfl@23@@Z@4U_Mbstatet@@A 00464ccc     GameState.obj
 0003:00000cd8       ?_Psave@?$_Facetptr@V?$codecvt@DDU_Mbstatet@@@std@@@std@@2PBVfacet@locale@2@B 00464cd8     GameState.obj
 0003:00000cdc       ?_Psave@?$_Facetptr@V?$ctype@D@std@@@std@@2PBVfacet@locale@2@B 00464cdc     HistoryState.obj
 0003:00000ce0       ?g_pManager@ImageManager@@0PAV1@A 00464ce0     SimpleImage.obj
 0003:00000cec       ___scrt_current_native_startup_state 00464cec     MSVCRTD:utility.obj
 0003:00000cf0       ___scrt_native_startup_lock 00464cf0     MSVCRTD:utility.obj
 0003:00000d18       ___castguard_check_failure_os_handled_fptr 00464d18     MSVCRTD:guard_support.obj
 0003:00000d20       ?__type_info_root_node@@3U__type_info_node@@A 00464d20     MSVCRTD:tncleanup.obj
 0003:00000d30       ?_OptionsStorage@?1??__local_stdio_scanf_options@@9@4_KA 00464d30     MSVCRTD:default_local_stdio_options.obj
 0003:00000d3c       ___scrt_debugger_hook_flag 00464d3c     MSVCRTD:utility_desktop.obj
 0003:000010fc       ___isa_available           004650fc     MSVCRTD:cpu_disp.obj
 0003:00001100       ___favor                   00465100     MSVCRTD:cpu_disp.obj
 0003:00001108       ___dyn_tls_dtor_callback   00465108     <common>
 0003:00001114       ___dyn_tls_init_callback   00465114     <common>
 0004:00000000       __imp__QueryPerformanceCounter@4 00466000     kernel32:KERNEL32.dll
 0004:00000004       __imp__GetCurrentProcessId@0 00466004     kernel32:KERNEL32.dll
 0004:00000008       __imp__GetCurrentThreadId@0 00466008     kernel32:KERNEL32.dll
 0004:0000000c       __imp__GetSystemTimeAsFileTime@4 0046600c     kernel32:KERNEL32.dll
 0004:00000010       __imp__InitializeSListHead@4 00466010     kernel32:KERNEL32.dll
 0004:00000014       __imp__IsDebuggerPresent@0 00466014     kernel32:KERNEL32.dll
 0004:00000018       __imp__UnhandledExceptionFilter@4 00466018     kernel32:KERNEL32.dll
 0004:0000001c       __imp__SetUnhandledExceptionFilter@4 0046601c     kernel32:KERNEL32.dll
 0004:00000020       __imp__GetStartupInfoW@4   00466020     kernel32:KERNEL32.dll
 0004:00000024       __imp__IsProcessorFeaturePresent@4 00466024     kernel32:KERNEL32.dll
 0004:00000028       __imp__GetCurrentProcess@0 00466028     kernel32:KERNEL32.dll
 0004:0000002c       __imp__TerminateProcess@8  0046602c     kernel32:KERNEL32.dll
 0004:00000030       __imp__GetCommandLineW@0   00466030     kernel32:KERNEL32.dll
 0004:00000034       __imp__VirtualAlloc@16     00466034     kernel32:KERNEL32.dll
 0004:00000038       __imp__GetModuleHandleW@4  00466038     kernel32:KERNEL32.dll
 0004:0000003c       __imp__VirtualFree@12      0046603c     kernel32:KERNEL32.dll
 0004:00000040       __imp__WideCharToMultiByte@32 00466040     kernel32:KERNEL32.dll
 0004:00000044       \177KERNEL32_NULL_THUNK_DATA 00466044     kernel32:KERNEL32.dll
 0004:0000007c       __imp_?showmanyc@?$basic_streambuf@DU?$char_traits@D@std@@@std@@MAE_JXZ 0046607c     msvcprtd:MSVCP140D.dll
 0004:00000080       __imp_?_Fiopen@std@@YAPAU_iobuf@@PBDHH@Z 00466080     msvcprtd:MSVCP140D.dll
 0004:00000084       __imp_?id@?$codecvt@DDU_Mbstatet@@@std@@2V0locale@2@A 00466084     msvcprtd:MSVCP140D.dll
 0004:00000088       __imp_?is@?$ctype@D@std@@QBE_NFD@Z 00466088     msvcprtd:MSVCP140D.dll
 0004:0000008c       __imp_?_Getcat@?$ctype@D@std@@SAIPAPBVfacet@locale@2@PBV42@@Z 0046608c     msvcprtd:MSVCP140D.dll
 0004:00000090       __imp_?getloc@ios_base@std@@QBE?AVlocale@2@XZ 00466090     msvcprtd:MSVCP140D.dll
 0004:00000094       __imp_?snextc@?$basic_streambuf@DU?$char_traits@D@std@@@std@@QAEHXZ 00466094     msvcprtd:MSVCP140D.dll
 0004:00000098       __imp_?_Ipfx@?$basic_istream@DU?$char_traits@D@std@@@std@@QAE_N_N@Z 00466098     msvcprtd:MSVCP140D.dll
 0004:0000009c       __imp_??6?$basic_ostream@DU?$char_traits@D@std@@@std@@QAEAAV01@N@Z 0046609c     msvcprtd:MSVCP140D.dll
 0004:000000a0       __imp_?_Xbad_alloc@std@@YAXXZ 004660a0     msvcprtd:MSVCP140D.dll
 0004:000000a4       __imp_?sgetc@?$basic_streambuf@DU?$char_traits@D@std@@@std@@QAEHXZ 004660a4     msvcprtd:MSVCP140D.dll
 0004:000000a8       __imp_??0_Lockit@std@@QAE@H@Z 004660a8     msvcprtd:MSVCP140D.dll
 0004:000000ac       __imp_??1_Lockit@std@@QAE@XZ 004660ac     msvcprtd:MSVCP140D.dll
 0004:000000b0       __imp_?_Xlength_error@std@@YAXPBD@Z 004660b0     msvcprtd:MSVCP140D.dll
 0004:000000b4       __imp_?uncaught_exception@std@@YA_NXZ 004660b4     msvcprtd:MSVCP140D.dll
 0004:000000b8       __imp_?good@ios_base@std@@QBE_NXZ 004660b8     msvcprtd:MSVCP140D.dll
 0004:000000bc       __imp_?flags@ios_base@std@@QBEHXZ 004660bc     msvcprtd:MSVCP140D.dll
 0004:000000c0       __imp_?width@ios_base@std@@QBE_JXZ 004660c0     msvcprtd:MSVCP140D.dll
 0004:000000c4       __imp_?width@ios_base@std@@QAE_J_J@Z 004660c4     msvcprtd:MSVCP140D.dll
 0004:000000c8       __imp_?sputc@?$basic_streambuf@DU?$char_traits@D@std@@@std@@QAEHD@Z 004660c8     msvcprtd:MSVCP140D.dll
 0004:000000cc       __imp_?sputn@?$basic_streambuf@DU?$char_traits@D@std@@@std@@QAE_JPBD_J@Z 004660cc     msvcprtd:MSVCP140D.dll
 0004:000000d0       __imp_?setstate@?$basic_ios@DU?$char_traits@D@std@@@std@@QAEXH_N@Z 004660d0     msvcprtd:MSVCP140D.dll
 0004:000000d4       __imp_?tie@?$basic_ios@DU?$char_traits@D@std@@@std@@QBEPAV?$basic_ostream@DU?$char_traits@D@std@@@2@XZ 004660d4     msvcprtd:MSVCP140D.dll
 0004:000000d8       __imp_?rdbuf@?$basic_ios@DU?$char_traits@D@std@@@std@@QBEPAV?$basic_streambuf@DU?$char_traits@D@std@@@2@XZ 004660d8     msvcprtd:MSVCP140D.dll
 0004:000000dc       __imp_?fill@?$basic_ios@DU?$char_traits@D@std@@@std@@QBEDXZ 004660dc     msvcprtd:MSVCP140D.dll
 0004:000000e0       __imp_?widen@?$basic_ios@DU?$char_traits@D@std@@@std@@QBEDD@Z 004660e0     msvcprtd:MSVCP140D.dll
 0004:000000e4       __imp_?_Osfx@?$basic_ostream@DU?$char_traits@D@std@@@std@@QAEXXZ 004660e4     msvcprtd:MSVCP140D.dll
 0004:000000e8       __imp_??6?$basic_ostream@DU?$char_traits@D@std@@@std@@QAEAAV01@P6AAAV01@AAV01@@Z@Z 004660e8     msvcprtd:MSVCP140D.dll
 0004:000000ec       __imp_?put@?$basic_ostream@DU?$char_traits@D@std@@@std@@QAEAAV12@D@Z 004660ec     msvcprtd:MSVCP140D.dll
 0004:000000f0       __imp_?flush@?$basic_ostream@DU?$char_traits@D@std@@@std@@QAEAAV12@XZ 004660f0     msvcprtd:MSVCP140D.dll
 0004:000000f4       __imp_?cout@std@@3V?$basic_ostream@DU?$char_traits@D@std@@@1@A 004660f4     msvcprtd:MSVCP140D.dll
 0004:000000f8       __imp_??6?$basic_ostream@DU?$char_traits@D@std@@@std@@QAEAAV01@_N@Z 004660f8     msvcprtd:MSVCP140D.dll
 0004:000000fc       __imp_??6?$basic_ostream@DU?$char_traits@D@std@@@std@@QAEAAV01@H@Z 004660fc     msvcprtd:MSVCP140D.dll
 0004:00000100       __imp_?_Xout_of_range@std@@YAXPBD@Z 00466100     msvcprtd:MSVCP140D.dll
 0004:00000104       __imp_??Bid@locale@std@@QAEIXZ 00466104     msvcprtd:MSVCP140D.dll
 0004:00000108       __imp_?_Getgloballocale@locale@std@@CAPAV_Locimp@12@XZ 00466108     msvcprtd:MSVCP140D.dll
 0004:0000010c       __imp_?always_noconv@codecvt_base@std@@QBE_NXZ 0046610c     msvcprtd:MSVCP140D.dll
 0004:00000110       __imp_?in@?$codecvt@DDU_Mbstatet@@@std@@QBEHAAU_Mbstatet@@PBD1AAPBDPAD3AAPAD@Z 00466110     msvcprtd:MSVCP140D.dll
 0004:00000114       __imp_?out@?$codecvt@DDU_Mbstatet@@@std@@QBEHAAU_Mbstatet@@PBD1AAPBDPAD3AAPAD@Z 00466114     msvcprtd:MSVCP140D.dll
 0004:00000118       __imp_?unshift@?$codecvt@DDU_Mbstatet@@@std@@QBEHAAU_Mbstatet@@PAD1AAPAD@Z 00466118     msvcprtd:MSVCP140D.dll
 0004:0000011c       __imp_?_Getcat@?$codecvt@DDU_Mbstatet@@@std@@SAIPAPBVfacet@locale@2@PBV42@@Z 0046611c     msvcprtd:MSVCP140D.dll
 0004:00000120       __imp_??0?$basic_streambuf@DU?$char_traits@D@std@@@std@@IAE@XZ 00466120     msvcprtd:MSVCP140D.dll
 0004:00000124       __imp_??1?$basic_streambuf@DU?$char_traits@D@std@@@std@@UAE@XZ 00466124     msvcprtd:MSVCP140D.dll
 0004:00000128       __imp_?getloc@?$basic_streambuf@DU?$char_traits@D@std@@@std@@QBE?AVlocale@2@XZ 00466128     msvcprtd:MSVCP140D.dll
 0004:0000012c       __imp_?eback@?$basic_streambuf@DU?$char_traits@D@std@@@std@@IBEPADXZ 0046612c     msvcprtd:MSVCP140D.dll
 0004:00000130       __imp_?gptr@?$basic_streambuf@DU?$char_traits@D@std@@@std@@IBEPADXZ 00466130     msvcprtd:MSVCP140D.dll
 0004:00000134       __imp_?pbase@?$basic_streambuf@DU?$char_traits@D@std@@@std@@IBEPADXZ 00466134     msvcprtd:MSVCP140D.dll
 0004:00000138       __imp_?pptr@?$basic_streambuf@DU?$char_traits@D@std@@@std@@IBEPADXZ 00466138     msvcprtd:MSVCP140D.dll
 0004:0000013c       __imp_?egptr@?$basic_streambuf@DU?$char_traits@D@std@@@std@@IBEPADXZ 0046613c     msvcprtd:MSVCP140D.dll
 0004:00000140       __imp_?gbump@?$basic_streambuf@DU?$char_traits@D@std@@@std@@IAEXH@Z 00466140     msvcprtd:MSVCP140D.dll
 0004:00000144       __imp_?setg@?$basic_streambuf@DU?$char_traits@D@std@@@std@@IAEXPAD00@Z 00466144     msvcprtd:MSVCP140D.dll
 0004:00000148       __imp_?epptr@?$basic_streambuf@DU?$char_traits@D@std@@@std@@IBEPADXZ 00466148     msvcprtd:MSVCP140D.dll
 0004:0000014c       __imp_?_Gndec@?$basic_streambuf@DU?$char_traits@D@std@@@std@@IAEPADXZ 0046614c     msvcprtd:MSVCP140D.dll
 0004:00000150       __imp_?_Gninc@?$basic_streambuf@DU?$char_traits@D@std@@@std@@IAEPADXZ 00466150     msvcprtd:MSVCP140D.dll
 0004:00000154       __imp_?_Gnavail@?$basic_streambuf@DU?$char_traits@D@std@@@std@@IBE_JXZ 00466154     msvcprtd:MSVCP140D.dll
 0004:00000158       __imp_?pbump@?$basic_streambuf@DU?$char_traits@D@std@@@std@@IAEXH@Z 00466158     msvcprtd:MSVCP140D.dll
 0004:0000015c       __imp_?setp@?$basic_streambuf@DU?$char_traits@D@std@@@std@@IAEXPAD00@Z 0046615c     msvcprtd:MSVCP140D.dll
 0004:00000160       __imp_?_Pninc@?$basic_streambuf@DU?$char_traits@D@std@@@std@@IAEPADXZ 00466160     msvcprtd:MSVCP140D.dll
 0004:00000164       __imp_?_Pnavail@?$basic_streambuf@DU?$char_traits@D@std@@@std@@IBE_JXZ 00466164     msvcprtd:MSVCP140D.dll
 0004:00000168       __imp_?_Init@?$basic_streambuf@DU?$char_traits@D@std@@@std@@IAEXXZ 00466168     msvcprtd:MSVCP140D.dll
 0004:0000016c       __imp_?_Init@?$basic_streambuf@DU?$char_traits@D@std@@@std@@IAEXPAPAD0PAH001@Z 0046616c     msvcprtd:MSVCP140D.dll
 0004:00000170       __imp_?xsgetn@?$basic_streambuf@DU?$char_traits@D@std@@@std@@MAE_JPAD_J@Z 00466170     msvcprtd:MSVCP140D.dll
 0004:00000174       __imp_?xsputn@?$basic_streambuf@DU?$char_traits@D@std@@@std@@MAE_JPBD_J@Z 00466174     msvcprtd:MSVCP140D.dll
 0004:00000178       __imp_??1?$basic_ios@DU?$char_traits@D@std@@@std@@UAE@XZ 00466178     msvcprtd:MSVCP140D.dll
 0004:0000017c       __imp_?clear@?$basic_ios@DU?$char_traits@D@std@@@std@@QAEXH_N@Z 0046617c     msvcprtd:MSVCP140D.dll
 0004:00000180       __imp_??0?$basic_ios@DU?$char_traits@D@std@@@std@@IAE@XZ 00466180     msvcprtd:MSVCP140D.dll
 0004:00000184       __imp_??0?$basic_ostream@DU?$char_traits@D@std@@@std@@QAE@PAV?$basic_streambuf@DU?$char_traits@D@std@@@1@_N@Z 00466184     msvcprtd:MSVCP140D.dll
 0004:00000188       __imp_??1?$basic_ostream@DU?$char_traits@D@std@@@std@@UAE@XZ 00466188     msvcprtd:MSVCP140D.dll
 0004:0000018c       __imp_??0?$basic_istream@DU?$char_traits@D@std@@@std@@QAE@PAV?$basic_streambuf@DU?$char_traits@D@std@@@1@_N@Z 0046618c     msvcprtd:MSVCP140D.dll
 0004:00000190       __imp_?swap@?$basic_istream@DU?$char_traits@D@std@@@std@@IAEXAAV12@@Z 00466190     msvcprtd:MSVCP140D.dll
 0004:00000194       __imp_??1?$basic_istream@DU?$char_traits@D@std@@@std@@UAE@XZ 00466194     msvcprtd:MSVCP140D.dll
 0004:00000198       __imp_??5?$basic_istream@DU?$char_traits@D@std@@@std@@QAEAAV01@AA_N@Z 00466198     msvcprtd:MSVCP140D.dll
 0004:0000019c       __imp_??5?$basic_istream@DU?$char_traits@D@std@@@std@@QAEAAV01@AAH@Z 0046619c     msvcprtd:MSVCP140D.dll
 0004:000001a0       __imp_??5?$basic_istream@DU?$char_traits@D@std@@@std@@QAEAAV01@AAN@Z 004661a0     msvcprtd:MSVCP140D.dll
 0004:000001a4       __imp_?id@?$ctype@D@std@@2V0locale@2@A 004661a4     msvcprtd:MSVCP140D.dll
 0004:000001a8       \177MSVCP140D_NULL_THUNK_DATA 004661a8     msvcprtd:MSVCP140D.dll
 0004:00000210       __imp__SDL_SetClipRect     00466210     SDL2:SDL2.dll
 0004:00000214       __imp__SDL_Quit            00466214     SDL2:SDL2.dll
 0004:00000218       __imp__SDL_Init            00466218     SDL2:SDL2.dll
 0004:0000021c       __imp__SDL_GetTicks        0046621c     SDL2:SDL2.dll
 0004:00000220       __imp__SDL_UpperBlitScaled 00466220     SDL2:SDL2.dll
 0004:00000224       __imp__SDL_CreateRenderer  00466224     SDL2:SDL2.dll
 0004:00000228       __imp__SDL_WaitEvent       00466228     SDL2:SDL2.dll
 0004:0000022c       __imp__SDL_CreateRGBSurface 0046622c     SDL2:SDL2.dll
 0004:00000230       __imp__SDL_PollEvent       00466230     SDL2:SDL2.dll
 0004:00000234       __imp__SDL_CreateWindow    00466234     SDL2:SDL2.dll
 0004:00000238       __imp__SDL_CreateTexture   00466238     SDL2:SDL2.dll
 0004:0000023c       __imp__SDL_GetError        0046623c     SDL2:SDL2.dll
 0004:00000240       __imp__SDL_RenderPresent   00466240     SDL2:SDL2.dll
 0004:00000244       __imp__SDL_RenderCopy      00466244     SDL2:SDL2.dll
 0004:00000248       __imp__SDL_UpdateTexture   00466248     SDL2:SDL2.dll
 0004:0000024c       __imp__SDL_FillRect        0046624c     SDL2:SDL2.dll
 0004:00000250       __imp__SDL_UnlockSurface   00466250     SDL2:SDL2.dll
 0004:00000254       __imp__SDL_LockSurface     00466254     SDL2:SDL2.dll
 0004:00000258       __imp__SDL_UpperBlit       00466258     SDL2:SDL2.dll
 0004:0000025c       __imp__SDL_FreeSurface     0046625c     SDL2:SDL2.dll
 0004:00000260       __imp__SDL_SetMainReady    00466260     SDL2:SDL2.dll
 0004:00000264       __imp__SDL_ShowSimpleMessageBox 00466264     SDL2:SDL2.dll
 0004:00000268       \177SDL2_NULL_THUNK_DATA   00466268     SDL2:SDL2.dll
 0004:000002a4       __imp__IMG_Load            004662a4     SDL2_image:SDL2_image.dll
 0004:000002a8       \177SDL2_image_NULL_THUNK_DATA 004662a8     SDL2_image:SDL2_image.dll
 0004:000002d4       __imp__TTF_CloseFont       004662d4     SDL2_ttf:SDL2_ttf.dll
 0004:000002d8       __imp__TTF_OpenFont        004662d8     SDL2_ttf:SDL2_ttf.dll
 0004:000002dc       __imp__TTF_RenderText_Solid 004662dc     SDL2_ttf:SDL2_ttf.dll
 0004:000002e0       __imp__TTF_Quit            004662e0     SDL2_ttf:SDL2_ttf.dll
 0004:000002e4       __imp__TTF_Init            004662e4     SDL2_ttf:SDL2_ttf.dll
 0004:000002e8       \177SDL2_ttf_NULL_THUNK_DATA 004662e8     SDL2_ttf:SDL2_ttf.dll
 0004:00000318       __imp____current_exception_context 00466318     vcruntimed:VCRUNTIME140D.dll
 0004:0000031c       __imp___except_handler4_common 0046631c     vcruntimed:VCRUNTIME140D.dll
 0004:00000320       __imp____current_exception 00466320     vcruntimed:VCRUNTIME140D.dll
 0004:00000324       __imp__memcmp              00466324     vcruntimed:VCRUNTIME140D.dll
 0004:00000328       __imp__memcpy              00466328     vcruntimed:VCRUNTIME140D.dll
 0004:0000032c       __imp__memmove             0046632c     vcruntimed:VCRUNTIME140D.dll
 0004:00000330       __imp__memset              00466330     vcruntimed:VCRUNTIME140D.dll
 0004:00000334       __imp____std_exception_copy 00466334     vcruntimed:VCRUNTIME140D.dll
 0004:00000338       __imp____std_exception_destroy 00466338     vcruntimed:VCRUNTIME140D.dll
 0004:0000033c       __imp___CxxThrowException@8 0046633c     vcruntimed:VCRUNTIME140D.dll
 0004:00000340       __imp____CxxFrameHandler3  00466340     vcruntimed:VCRUNTIME140D.dll
 0004:00000344       __imp____RTDynamicCast     00466344     vcruntimed:VCRUNTIME140D.dll
 0004:00000348       __imp___purecall           00466348     vcruntimed:VCRUNTIME140D.dll
 0004:0000034c       __imp____std_type_info_destroy_list 0046634c     vcruntimed:VCRUNTIME140D.dll
 0004:00000350       \177VCRUNTIME140D_NULL_THUNK_DATA 00466350     vcruntimed:VCRUNTIME140D.dll
 0004:00000384       __imp__ungetc              00466384     ucrtd:ucrtbased.dll
 0004:00000388       __imp___lock_file          00466388     ucrtd:ucrtbased.dll
 0004:0000038c       __imp___unlock_file        0046638c     ucrtd:ucrtbased.dll
 0004:00000390       __imp____stdio_common_vsprintf 00466390     ucrtd:ucrtbased.dll
 0004:00000394       __imp__sqrt                00466394     ucrtd:ucrtbased.dll
 0004:00000398       __imp___CrtDumpMemoryLeaks 00466398     ucrtd:ucrtbased.dll
 0004:0000039c       __imp__srand               0046639c     ucrtd:ucrtbased.dll
 0004:000003a0       __imp___time64             004663a0     ucrtd:ucrtbased.dll
 0004:000003a4       __imp__puts                004663a4     ucrtd:ucrtbased.dll
 0004:000003a8       __imp__strcmp              004663a8     ucrtd:ucrtbased.dll
 0004:000003ac       __imp__strcpy              004663ac     ucrtd:ucrtbased.dll
 0004:000003b0       __imp___free_dbg           004663b0     ucrtd:ucrtbased.dll
 0004:000003b4       __imp___malloc_dbg         004663b4     ucrtd:ucrtbased.dll
 0004:000003b8       __imp___seh_filter_exe     004663b8     ucrtd:ucrtbased.dll
 0004:000003bc       __imp___set_app_type       004663bc     ucrtd:ucrtbased.dll
 0004:000003c0       __imp____setusermatherr    004663c0     ucrtd:ucrtbased.dll
 0004:000003c4       __imp___configure_narrow_argv 004663c4     ucrtd:ucrtbased.dll
 0004:000003c8       __imp___initialize_narrow_environment 004663c8     ucrtd:ucrtbased.dll
 0004:000003cc       __imp___get_initial_narrow_environment 004663cc     ucrtd:ucrtbased.dll
 0004:000003d0       __imp__fwrite              004663d0     ucrtd:ucrtbased.dll
 0004:000003d4       __imp___initterm_e         004663d4     ucrtd:ucrtbased.dll
 0004:000003d8       __imp__exit                004663d8     ucrtd:ucrtbased.dll
 0004:000003dc       __imp___exit               004663dc     ucrtd:ucrtbased.dll
 0004:000003e0       __imp___set_fmode          004663e0     ucrtd:ucrtbased.dll
 0004:000003e4       __imp____p___argc          004663e4     ucrtd:ucrtbased.dll
 0004:000003e8       __imp____p___argv          004663e8     ucrtd:ucrtbased.dll
 0004:000003ec       __imp___cexit              004663ec     ucrtd:ucrtbased.dll
 0004:000003f0       __imp___c_exit             004663f0     ucrtd:ucrtbased.dll
 0004:000003f4       __imp___register_thread_local_exe_atexit_callback 004663f4     ucrtd:ucrtbased.dll
 0004:000003f8       __imp___configthreadlocale 004663f8     ucrtd:ucrtbased.dll
 0004:000003fc       __imp___set_new_mode       004663fc     ucrtd:ucrtbased.dll
 0004:00000400       __imp____p__commode        00466400     ucrtd:ucrtbased.dll
 0004:00000404       __imp___callnewh           00466404     ucrtd:ucrtbased.dll
 0004:00000408       __imp__malloc              00466408     ucrtd:ucrtbased.dll
 0004:0000040c       __imp___seh_filter_dll     0046640c     ucrtd:ucrtbased.dll
 0004:00000410       __imp___initialize_onexit_table 00466410     ucrtd:ucrtbased.dll
 0004:00000414       __imp___register_onexit_function 00466414     ucrtd:ucrtbased.dll
 0004:00000418       __imp___execute_onexit_table 00466418     ucrtd:ucrtbased.dll
 0004:0000041c       __imp___crt_atexit         0046641c     ucrtd:ucrtbased.dll
 0004:00000420       __imp___crt_at_quick_exit  00466420     ucrtd:ucrtbased.dll
 0004:00000424       __imp___controlfp_s        00466424     ucrtd:ucrtbased.dll
 0004:00000428       __imp__terminate           00466428     ucrtd:ucrtbased.dll
 0004:0000042c       __imp__setvbuf             0046642c     ucrtd:ucrtbased.dll
 0004:00000430       __imp___fseeki64           00466430     ucrtd:ucrtbased.dll
 0004:00000434       __imp__fsetpos             00466434     ucrtd:ucrtbased.dll
 0004:00000438       __imp__fread               00466438     ucrtd:ucrtbased.dll
 0004:0000043c       __imp__fputc               0046643c     ucrtd:ucrtbased.dll
 0004:00000440       __imp__fgetpos             00466440     ucrtd:ucrtbased.dll
 0004:00000444       __imp__fgetc               00466444     ucrtd:ucrtbased.dll
 0004:00000448       __imp__fflush              00466448     ucrtd:ucrtbased.dll
 0004:0000044c       __imp__fclose              0046644c     ucrtd:ucrtbased.dll
 0004:00000450       __imp___get_stream_buffer_pointers 00466450     ucrtd:ucrtbased.dll
 0004:00000454       __imp__sin                 00466454     ucrtd:ucrtbased.dll
 0004:00000458       __imp__cos                 00466458     ucrtd:ucrtbased.dll
 0004:0000045c       __imp__atan                0046645c     ucrtd:ucrtbased.dll
 0004:00000460       __imp__rand                00466460     ucrtd:ucrtbased.dll
 0004:00000464       __imp__strlen              00466464     ucrtd:ucrtbased.dll
 0004:00000468       __imp____stdio_common_vfprintf 00466468     ucrtd:ucrtbased.dll
 0004:0000046c       __imp____acrt_iob_func     0046646c     ucrtd:ucrtbased.dll
 0004:00000470       __imp___CrtDbgReport       00466470     ucrtd:ucrtbased.dll
 0004:00000474       __imp___invalid_parameter  00466474     ucrtd:ucrtbased.dll
 0004:00000478       __imp___initterm           00466478     ucrtd:ucrtbased.dll
 0004:0000047c       \177ucrtbased_NULL_THUNK_DATA 0046647c     ucrtd:ucrtbased.dll
 0004:000004d8       __IMPORT_DESCRIPTOR_SDL2   004664d8     SDL2:SDL2.dll
 0004:000004ec       __IMPORT_DESCRIPTOR_SDL2_image 004664ec     SDL2_image:SDL2_image.dll
 0004:00000500       __IMPORT_DESCRIPTOR_SDL2_ttf 00466500     SDL2_ttf:SDL2_ttf.dll
 0004:00000514       __IMPORT_DESCRIPTOR_MSVCP140D 00466514     msvcprtd:MSVCP140D.dll
 0004:00000528       __IMPORT_DESCRIPTOR_VCRUNTIME140D 00466528     vcruntimed:VCRUNTIME140D.dll
 0004:0000053c       __IMPORT_DESCRIPTOR_ucrtbased 0046653c     ucrtd:ucrtbased.dll
 0004:00000550       __IMPORT_DESCRIPTOR_KERNEL32 00466550     kernel32:KERNEL32.dll
 0004:00000564       __NULL_IMPORT_DESCRIPTOR   00466564     SDL2:SDL2.dll
 0005:00000000       ___guard_check_icall_fptr  00469000     MSVCRTD:guard_support.obj
 0005:00000004       ___guard_xfg_check_icall_fptr 00469004     MSVCRTD:guard_support.obj

 entry point at        0001:000000be

 Static symbols

 0000:fff97000       _volmd                     00400000     BaseEnemyObject.obj
 0000:fff97000       _volmd                     00400000     BaseEnemyObject.obj
 0000:fff97000       _volmd                     00400000     BaseEnemyObject.obj
 0000:fff97000       _volmd                     00400000     BaseEnemyObject.obj
 0000:fff97000       _volmd                     00400000     BaseEnemyObject.obj
 0000:fff97000       _volmd                     00400000     BaseEnemyObject.obj
 0000:fff97000       _volmd                     00400000     BaseEnemyObject.obj
 0000:fff97000       _volmd                     00400000     BaseEnemyObject.obj
 0000:fff97000       _volmd                     00400000     BaseEnemyObject.obj
 0000:fff97000       _volmd                     00400000     BaseEnemyObject.obj
 0000:fff97000       _volmd                     00400000     BaseEnemyObject.obj
 0000:fff97000       _volmd                     00400000     BaseEnemyObject.obj
 0000:fff97000       _volmd                     00400000     BaseEnemyObject.obj
 0000:fff97000       _volmd                     00400000     BaseEnemyObject.obj
 0000:fff97000       _volmd                     00400000     BaseEnemyObject.obj
 0000:fff97000       _volmd                     00400000     BaseEnemyObject.obj
 0000:fff97000       _volmd                     00400000     BaseEnemyObject.obj
 0000:fff97000       _volmd                     00400000     BaseEnemyObject.obj
 0000:fff97000       _volmd                     00400000     BaseEnemyObject.obj
 0000:fff97000       _volmd                     00400000     BaseEnemyObject.obj
 0000:fff97000       _volmd                     00400000     BaseEnemyObject.obj
 0000:fff97000       _volmd                     00400000     BaseEnemyObject.obj
 0000:fff97000       _volmd                     00400000     BaseEnemyObject.obj
 0000:fff97000       _volmd                     00400000     BaseEnemyObject.obj
 0000:fff97000       _volmd                     00400000     BaseEnemyObject.obj
 0000:fff97000       _volmd                     00400000     BaseEnemyObject.obj
 0000:fff97000       _volmd                     00400000     BaseEnemyObject.obj
 0000:fff97000       _volmd                     00400000     BaseEnemyObject.obj
 0000:fff97000       _volmd                     00400000     BaseEnemyObject.obj
 0000:fff97000       _volmd                     00400000     BaseEnemyObject.obj
 0000:fff97000       _volmd                     00400000     BaseEnemyObject.obj
 0000:fff97000       _volmd                     00400000     BaseEnemyObject.obj
 0000:fff97000       _volmd                     00400000     BaseEnemyObject.obj
 0000:fff97000       _volmd                     00400000     BaseEnemyObject.obj
 0000:fff97000       _volmd                     00400000     BaseEnemyObject.obj
 0000:fff97000       _volmd                     00400000     BaseEnemyObject.obj
 0000:fff97000       _volmd                     00400000     BaseEnemyObject.obj
 0000:fff97000       _volmd                     00400000     BaseEnemyObject.obj
 0000:fff97000       _volmd                     00400000     BaseEnemyObject.obj
 0000:fff97000       _volmd                     00400000     BaseEnemyObject.obj
 0000:fff97000       _volmd                     00400000     BaseEnemyObject.obj
 0000:fff97000       _volmd                     00400000     BaseEnemyObject.obj
 0000:fff97000       _volmd                     00400000     BaseEnemyObject.obj
 0000:fff97000       _volmd                     00400000     BaseEnemyObject.obj
 0000:fff97000       _volmd                     00400000     BaseEnemyObject.obj
 0000:fff97000       _volmd                     00400000     BaseEnemyObject.obj
 0000:fff97000       _volmd                     00400000     BaseEnemyObject.obj
 0000:fff97000       _volmd                     00400000     BaseEnemyObject.obj
 0002:fffb4000       __ehfuncinfo$??$_Deallocate@$07$0A@@std@@YAXPAXI@Z 00400000     BaseEngine.obj
 0002:fffb4000       __ehfuncinfo$??$_Deallocate_plain@V?$allocator@U_Container_proxy@std@@@std@@@std@@YAXAAV?$allocator@U_Container_proxy@std@@@0@QAU_Container_proxy@0@@Z 00400000     BaseEngine.obj
 0002:fffb4000       __ehfuncinfo$?_Tidy@?$vector@PAVDisplayableObject@@V?$allocator@PAVDisplayableObject@@@std@@@std@@AAEXXZ 00400000     BaseEngine.obj
 0001:fffff000       __ehhandler$??$_Deallocate@$07$0A@@std@@YAXPAXI@Z 00400000 f   BaseEngine.obj
 0001:fffff000       __ehhandler$??$_Deallocate_plain@V?$allocator@U_Container_proxy@std@@@std@@@std@@YAXAAV?$allocator@U_Container_proxy@std@@@0@QAU_Container_proxy@0@@Z 00400000 f   BaseEngine.obj
 0001:fffff000       __ehhandler$?_Tidy@?$vector@PAVDisplayableObject@@V?$allocator@PAVDisplayableObject@@@std@@@std@@AAEXXZ 00400000 f   BaseEngine.obj
 0001:fffff000       __unwindfunclet$??$_Construct_n_copies_of_ty@U_Value_init_tag@std@@@?$vector@PAVDisplayableObject@@V?$allocator@PAVDisplayableObject@@@std@@@std@@AAEXIABU_Value_init_tag@1@@Z$0 00400000 f   BaseEngine.obj
 0001:fffff000       __unwindfunclet$??$_Uninitialized_value_construct_n@V?$allocator@PAVDisplayableObject@@@std@@@std@@YAPAPAVDisplayableObject@@PAPAV1@IAAV?$allocator@PAVDisplayableObject@@@0@@Z$0 00400000 f   BaseEngine.obj
 0002:fffb4000       __unwindtable$??$_Construct_n_copies_of_ty@U_Value_init_tag@std@@@?$vector@PAVDisplayableObject@@V?$allocator@PAVDisplayableObject@@@std@@@std@@AAEXIABU_Value_init_tag@1@@Z 00400000     BaseEngine.obj
 0002:fffb4000       __unwindtable$??$_Uninitialized_value_construct_n@V?$allocator@PAVDisplayableObject@@@std@@@std@@YAPAPAVDisplayableObject@@PAPAV1@IAAV?$allocator@PAVDisplayableObject@@@0@@Z 00400000     BaseEngine.obj
 0000:fff97000       _volmd                     00400000     BaseEngine.obj
 0000:fff97000       _volmd                     00400000     BaseEngine.obj
 0000:fff97000       _volmd                     00400000     BaseEngine.obj
 0000:fff97000       _volmd                     00400000     BaseEngine.obj
 0000:fff97000       _volmd                     00400000     BaseEngine.obj
 0000:fff97000       _volmd                     00400000     BaseEngine.obj
 0000:fff97000       _volmd                     00400000     BaseEngine.obj
 0000:fff97000       _volmd                     00400000     BaseEngine.obj
 0000:fff97000       _volmd                     00400000     BaseEngine.obj
 0000:fff97000       _volmd                     00400000     BaseEngine.obj
 0000:fff97000       _volmd                     00400000     BaseEngine.obj
 0000:fff97000       _volmd                     00400000     BaseEngine.obj
 0000:fff97000       _volmd                     00400000     BaseEngine.obj
 0002:fffb4000       __catchsym$??$?6U?$char_traits@D@std@@@std@@YAAAV?$basic_ostream@DU?$char_traits@D@std@@@0@AAV10@PBD@Z$3 00400000     BossEnemyObject.obj
 0002:fffb4000       __catchsym$??$_Insert_string@DU?$char_traits@D@std@@I@std@@YAAAV?$basic_ostream@DU?$char_traits@D@std@@@0@AAV10@QBDI@Z$3 00400000     BossEnemyObject.obj
 0002:fffb4000       __ehfuncinfo$??$_Deallocate@$07$0A@@std@@YAXPAXI@Z 00400000     BossEnemyObject.obj
 0002:fffb4000       __ehfuncinfo$??$_Deallocate_plain@V?$allocator@U_Container_proxy@std@@@std@@@std@@YAXAAV?$allocator@U_Container_proxy@std@@@0@QAU_Container_proxy@0@@Z 00400000     BossEnemyObject.obj
 0002:fffb4000       __ehfuncinfo$??$_Destroy_range@V?$allocator@V?$vector@HV?$allocator@H@std@@@std@@@std@@@std@@YAXPAV?$vector@HV?$allocator@H@std@@@0@QAV10@AAV?$allocator@V?$vector@HV?$allocator@H@std@@@std@@@0@@Z 00400000     BossEnemyObject.obj
 0002:fffb4000       __ehfuncinfo$??$_Freenode0@V?$allocator@U?$_Tree_node@U?$pair@$$CBV?$basic_string@DU?$char_traits@D@std@@V?$allocator@D@2@@std@@V?$weak_ptr@VRawImageData@@@2@@std@@PAX@std@@@std@@@?$_Tree_node@U?$pair@$$CBV?$basic_string@DU?$char_traits@D@std@@V?$allocator@D@2@@std@@V?$weak_ptr@VRawImageData@@@2@@std@@PAX@std@@SAXAAV?$allocator@U?$_Tree_node@U?$pair@$$CBV?$basic_string@DU?$char_traits@D@std@@V?$allocator@D@2@@std@@V?$weak_ptr@VRawImageData@@@2@@std@@PAX@std@@@1@PAU01@@Z 00400000     BossEnemyObject.obj
 0002:fffb4000       __ehfuncinfo$??$_Freenode@V?$allocator@U?$_Tree_node@U?$pair@$$CBV?$basic_string@DU?$char_traits@D@std@@V?$allocator@D@2@@std@@V?$weak_ptr@VRawImageData@@@2@@std@@PAX@std@@@std@@@?$_Tree_node@U?$pair@$$CBV?$basic_string@DU?$char_traits@D@std@@V?$allocator@D@2@@std@@V?$weak_ptr@VRawImageData@@@2@@std@@PAX@std@@SAXAAV?$allocator@U?$_Tree_node@U?$pair@$$CBV?$basic_string@DU?$char_traits@D@std@@V?$allocator@D@2@@std@@V?$weak_ptr@VRawImageData@@@2@@std@@PAX@std@@@1@PAU01@@Z 00400000     BossEnemyObject.obj
 0002:fffb4000       __ehfuncinfo$??0?$basic_string@DU?$char_traits@D@std@@V?$allocator@D@2@@std@@QAE@$$QAV01@@Z 00400000     BossEnemyObject.obj
 0002:fffb4000       __ehfuncinfo$??1?$_Alloc_construct_ptr@V?$allocator@U?$_Tree_node@U?$pair@$$CBV?$basic_string@DU?$char_traits@D@std@@V?$allocator@D@2@@std@@V?$shared_ptr@VRawImageData@@@2@@std@@PAX@std@@@std@@@std@@QAE@XZ 00400000     BossEnemyObject.obj
 0002:fffb4000       __ehfuncinfo$??1?$_Alloc_construct_ptr@V?$allocator@U?$_Tree_node@U?$pair@$$CBV?$basic_string@DU?$char_traits@D@std@@V?$allocator@D@2@@std@@V?$weak_ptr@VRawImageData@@@2@@std@@PAX@std@@@std@@@std@@QAE@XZ 00400000     BossEnemyObject.obj
 0002:fffb4000       __ehfuncinfo$??1?$_Tree_temp_node@V?$allocator@U?$_Tree_node@U?$pair@$$CBV?$basic_string@DU?$char_traits@D@std@@V?$allocator@D@2@@std@@V?$shared_ptr@VRawImageData@@@2@@std@@PAX@std@@@std@@@std@@QAE@XZ 00400000     BossEnemyObject.obj
 0002:fffb4000       __ehfuncinfo$??1?$_Tree_temp_node@V?$allocator@U?$_Tree_node@U?$pair@$$CBV?$basic_string@DU?$char_traits@D@std@@V?$allocator@D@2@@std@@V?$weak_ptr@VRawImageData@@@2@@std@@PAX@std@@@std@@@std@@QAE@XZ 00400000     BossEnemyObject.obj
 0002:fffb4000       __ehfuncinfo$??1RawImageData@@QAE@XZ 00400000     BossEnemyObject.obj
 0002:fffb4000       __ehfuncinfo$??1_Sentry_base@?$basic_ostream@DU?$char_traits@D@std@@@std@@QAE@XZ 00400000     BossEnemyObject.obj
 0002:fffb4000       __ehfuncinfo$??1sentry@?$basic_ostream@DU?$char_traits@D@std@@@std@@QAE@XZ 00400000     BossEnemyObject.obj
 0002:fffb4000       __ehfuncinfo$?_Take_contents@?$basic_string@DU?$char_traits@D@std@@V?$allocator@D@2@@std@@AAEXAAV12@@Z 00400000     BossEnemyObject.obj
 0002:fffb4000       __ehfuncinfo$?_Tidy@?$vector@HV?$allocator@H@std@@@std@@AAEXXZ 00400000     BossEnemyObject.obj
 0002:fffb4000       __ehfuncinfo$?_Tidy@?$vector@V?$vector@HV?$allocator@H@std@@@std@@V?$allocator@V?$vector@HV?$allocator@H@std@@@std@@@2@@std@@AAEXXZ 00400000     BossEnemyObject.obj
 0002:fffb4000       __ehfuncinfo$?_Tidy_deallocate@?$basic_string@DU?$char_traits@D@std@@V?$allocator@D@2@@std@@AAEXXZ 00400000     BossEnemyObject.obj
 0002:fffb4000       __ehfuncinfo$?getImagePtrbyURL@ImageManager@@QAE?AV?$shared_ptr@VRawImageData@@@std@@V?$basic_string@DU?$char_traits@D@std@@V?$allocator@D@2@@3@_N1@Z 00400000     BossEnemyObject.obj
 0001:fffff000       __ehhandler$??$_Deallocate@$07$0A@@std@@YAXPAXI@Z 00400000 f   BossEnemyObject.obj
 0001:fffff000       __ehhandler$??$_Deallocate_plain@V?$allocator@U_Container_proxy@std@@@std@@@std@@YAXAAV?$allocator@U_Container_proxy@std@@@0@QAU_Container_proxy@0@@Z 00400000 f   BossEnemyObject.obj
 0001:fffff000       __ehhandler$??$_Destroy_range@V?$allocator@V?$vector@HV?$allocator@H@std@@@std@@@std@@@std@@YAXPAV?$vector@HV?$allocator@H@std@@@0@QAV10@AAV?$allocator@V?$vector@HV?$allocator@H@std@@@std@@@0@@Z 00400000 f   BossEnemyObject.obj
 0001:fffff000       __ehhandler$??$_Freenode0@V?$allocator@U?$_Tree_node@U?$pair@$$CBV?$basic_string@DU?$char_traits@D@std@@V?$allocator@D@2@@std@@V?$weak_ptr@VRawImageData@@@2@@std@@PAX@std@@@std@@@?$_Tree_node@U?$pair@$$CBV?$basic_string@DU?$char_traits@D@std@@V?$allocator@D@2@@std@@V?$weak_ptr@VRawImageData@@@2@@std@@PAX@std@@SAXAAV?$allocator@U?$_Tree_node@U?$pair@$$CBV?$basic_string@DU?$char_traits@D@std@@V?$allocator@D@2@@std@@V?$weak_ptr@VRawImageData@@@2@@std@@PAX@std@@@1@PAU01@@Z 00400000 f   BossEnemyObject.obj
 0001:fffff000       __ehhandler$??$_Freenode@V?$allocator@U?$_Tree_node@U?$pair@$$CBV?$basic_string@DU?$char_traits@D@std@@V?$allocator@D@2@@std@@V?$weak_ptr@VRawImageData@@@2@@std@@PAX@std@@@std@@@?$_Tree_node@U?$pair@$$CBV?$basic_string@DU?$char_traits@D@std@@V?$allocator@D@2@@std@@V?$weak_ptr@VRawImageData@@@2@@std@@PAX@std@@SAXAAV?$allocator@U?$_Tree_node@U?$pair@$$CBV?$basic_string@DU?$char_traits@D@std@@V?$allocator@D@2@@std@@V?$weak_ptr@VRawImageData@@@2@@std@@PAX@std@@@1@PAU01@@Z 00400000 f   BossEnemyObject.obj
 0001:fffff000       __ehhandler$??0?$basic_string@DU?$char_traits@D@std@@V?$allocator@D@2@@std@@QAE@$$QAV01@@Z 00400000 f   BossEnemyObject.obj
 0001:fffff000       __ehhandler$??1?$_Alloc_construct_ptr@V?$allocator@U?$_Tree_node@U?$pair@$$CBV?$basic_string@DU?$char_traits@D@std@@V?$allocator@D@2@@std@@V?$shared_ptr@VRawImageData@@@2@@std@@PAX@std@@@std@@@std@@QAE@XZ 00400000 f   BossEnemyObject.obj
 0001:fffff000       __ehhandler$??1?$_Alloc_construct_ptr@V?$allocator@U?$_Tree_node@U?$pair@$$CBV?$basic_string@DU?$char_traits@D@std@@V?$allocator@D@2@@std@@V?$weak_ptr@VRawImageData@@@2@@std@@PAX@std@@@std@@@std@@QAE@XZ 00400000 f   BossEnemyObject.obj
 0001:fffff000       __ehhandler$??1?$_Tree_temp_node@V?$allocator@U?$_Tree_node@U?$pair@$$CBV?$basic_string@DU?$char_traits@D@std@@V?$allocator@D@2@@std@@V?$shared_ptr@VRawImageData@@@2@@std@@PAX@std@@@std@@@std@@QAE@XZ 00400000 f   BossEnemyObject.obj
 0001:fffff000       __ehhandler$??1?$_Tree_temp_node@V?$allocator@U?$_Tree_node@U?$pair@$$CBV?$basic_string@DU?$char_traits@D@std@@V?$allocator@D@2@@std@@V?$weak_ptr@VRawImageData@@@2@@std@@PAX@std@@@std@@@std@@QAE@XZ 00400000 f   BossEnemyObject.obj
 0001:fffff000       __ehhandler$??1RawImageData@@QAE@XZ 00400000 f   BossEnemyObject.obj
 0001:fffff000       __ehhandler$??1_Sentry_base@?$basic_ostream@DU?$char_traits@D@std@@@std@@QAE@XZ 00400000 f   BossEnemyObject.obj
 0001:fffff000       __ehhandler$??1sentry@?$basic_ostream@DU?$char_traits@D@std@@@std@@QAE@XZ 00400000 f   BossEnemyObject.obj
 0001:fffff000       __ehhandler$?_Take_contents@?$basic_string@DU?$char_traits@D@std@@V?$allocator@D@2@@std@@AAEXAAV12@@Z 00400000 f   BossEnemyObject.obj
 0001:fffff000       __ehhandler$?_Tidy@?$vector@HV?$allocator@H@std@@@std@@AAEXXZ 00400000 f   BossEnemyObject.obj
 0001:fffff000       __ehhandler$?_Tidy@?$vector@V?$vector@HV?$allocator@H@std@@@std@@V?$allocator@V?$vector@HV?$allocator@H@std@@@std@@@2@@std@@AAEXXZ 00400000 f   BossEnemyObject.obj
 0001:fffff000       __ehhandler$?_Tidy_deallocate@?$basic_string@DU?$char_traits@D@std@@V?$allocator@D@2@@std@@AAEXXZ 00400000 f   BossEnemyObject.obj
 0001:fffff000       __unwindfunclet$??$?0U?$pair@V?$basic_string@DU?$char_traits@D@std@@V?$allocator@D@2@@std@@V?$shared_ptr@VRawImageData@@@2@@std@@@?$_Tree_temp_node@V?$allocator@U?$_Tree_node@U?$pair@$$CBV?$basic_string@DU?$char_traits@D@std@@V?$allocator@D@2@@std@@V?$shared_ptr@VRawImageData@@@2@@std@@PAX@std@@@std@@@std@@QAE@AAV?$allocator@U?$_Tree_node@U?$pair@$$CBV?$basic_string@DU?$char_traits@D@std@@V?$allocator@D@2@@std@@V?$shared_ptr@VRawImageData@@@2@@std@@PAX@std@@@1@PAU?$_Tree_node@U?$pair@$$CBV?$basic_string@DU?$char_traits@D@std@@V?$allocator@D@2@@std@@V?$shared_ptr@VRawImageData@@@2@@std@@PAX@1@$$QAU?$pair@V?$basic_string@DU?$char_traits@D@std@@V?$allocator@D@2@@std@@V?$shared_ptr@VRawImageData@@@2@@1@@Z$0 00400000 f   BossEnemyObject.obj
 0001:fffff000       __unwindfunclet$??$?0U?$pair@V?$basic_string@DU?$char_traits@D@std@@V?$allocator@D@2@@std@@V?$weak_ptr@VRawImageData@@@2@@std@@@?$_Tree_temp_node@V?$allocator@U?$_Tree_node@U?$pair@$$CBV?$basic_string@DU?$char_traits@D@std@@V?$allocator@D@2@@std@@V?$weak_ptr@VRawImageData@@@2@@std@@PAX@std@@@std@@@std@@QAE@AAV?$allocator@U?$_Tree_node@U?$pair@$$CBV?$basic_string@DU?$char_traits@D@std@@V?$allocator@D@2@@std@@V?$weak_ptr@VRawImageData@@@2@@std@@PAX@std@@@1@PAU?$_Tree_node@U?$pair@$$CBV?$basic_string@DU?$char_traits@D@std@@V?$allocator@D@2@@std@@V?$weak_ptr@VRawImageData@@@2@@std@@PAX@1@$$QAU?$pair@V?$basic_string@DU?$char_traits@D@std@@V?$allocator@D@2@@std@@V?$weak_ptr@VRawImageData@@@2@@1@@Z$0 00400000 f   BossEnemyObject.obj
 0001:fffff000       __unwindfunclet$??$?0VRawImageData@@$0A@@?$shared_ptr@VRawImageData@@@std@@QAE@PAVRawImageData@@@Z$0 00400000 f   BossEnemyObject.obj
 0001:fffff000       __unwindfunclet$??$?6U?$char_traits@D@std@@@std@@YAAAV?$basic_ostream@DU?$char_traits@D@std@@@0@AAV10@PBD@Z$2 00400000 f   BossEnemyObject.obj
 0001:fffff000       __unwindfunclet$??$_Construct_n_copies_of_ty@H@?$vector@HV?$allocator@H@std@@@std@@AAEXIABH@Z$0 00400000 f   BossEnemyObject.obj
 0001:fffff000       __unwindfunclet$??$_Construct_n_copies_of_ty@V?$vector@HV?$allocator@H@std@@@std@@@?$vector@V?$vector@HV?$allocator@H@std@@@std@@V?$allocator@V?$vector@HV?$allocator@H@std@@@std@@@2@@std@@AAEXIABV?$vector@HV?$allocator@H@std@@@1@@Z$0 00400000 f   BossEnemyObject.obj
 0001:fffff000       __unwindfunclet$??$_Insert_string@DU?$char_traits@D@std@@I@std@@YAAAV?$basic_ostream@DU?$char_traits@D@std@@@0@AAV10@QBDI@Z$2 00400000 f   BossEnemyObject.obj
 0001:fffff000       __unwindfunclet$??$_Uninitialized_copy@PAHV?$allocator@H@std@@@std@@YAPAHQAH0PAHAAV?$allocator@H@0@@Z$0 00400000 f   BossEnemyObject.obj
 0001:fffff000       __unwindfunclet$??$_Uninitialized_fill_n@V?$allocator@H@std@@@std@@YAPAHPAHIABHAAV?$allocator@H@0@@Z$0 00400000 f   BossEnemyObject.obj
 0001:fffff000       __unwindfunclet$??$_Uninitialized_fill_n@V?$allocator@V?$vector@HV?$allocator@H@std@@@std@@@std@@@std@@YAPAV?$vector@HV?$allocator@H@std@@@0@PAV10@IABV10@AAV?$allocator@V?$vector@HV?$allocator@H@std@@@std@@@0@@Z$0 00400000 f   BossEnemyObject.obj
 0001:fffff000       __unwindfunclet$??0?$_Tree_temp_node_alloc@V?$allocator@U?$_Tree_node@U?$pair@$$CBV?$basic_string@DU?$char_traits@D@std@@V?$allocator@D@2@@std@@V?$shared_ptr@VRawImageData@@@2@@std@@PAX@std@@@std@@@std@@QAE@AAV?$allocator@U?$_Tree_node@U?$pair@$$CBV?$basic_string@DU?$char_traits@D@std@@V?$allocator@D@2@@std@@V?$shared_ptr@VRawImageData@@@2@@std@@PAX@std@@@1@@Z$0 00400000 f   BossEnemyObject.obj
 0001:fffff000       __unwindfunclet$??0?$_Tree_temp_node_alloc@V?$allocator@U?$_Tree_node@U?$pair@$$CBV?$basic_string@DU?$char_traits@D@std@@V?$allocator@D@2@@std@@V?$weak_ptr@VRawImageData@@@2@@std@@PAX@std@@@std@@@std@@QAE@AAV?$allocator@U?$_Tree_node@U?$pair@$$CBV?$basic_string@DU?$char_traits@D@std@@V?$allocator@D@2@@std@@V?$weak_ptr@VRawImageData@@@2@@std@@PAX@std@@@1@@Z$0 00400000 f   BossEnemyObject.obj
 0001:fffff000       __unwindfunclet$??0?$basic_string@DU?$char_traits@D@std@@V?$allocator@D@2@@std@@QAE@ABV01@@Z$0 00400000 f   BossEnemyObject.obj
 0001:fffff000       __unwindfunclet$??0?$basic_string@DU?$char_traits@D@std@@V?$allocator@D@2@@std@@QAE@QBD@Z$0 00400000 f   BossEnemyObject.obj
 0001:fffff000       __unwindfunclet$??0?$vector@HV?$allocator@H@std@@@std@@QAE@ABV01@@Z$0 00400000 f   BossEnemyObject.obj
 0001:fffff000       __unwindfunclet$??0ImageManager@@QAE@XZ$0 00400000 f   BossEnemyObject.obj
 0001:fffff000       __unwindfunclet$??0RawImageData@@QAE@V?$basic_string@DU?$char_traits@D@std@@V?$allocator@D@2@@std@@@Z$0 00400000 f   BossEnemyObject.obj
 0001:fffff000       __unwindfunclet$??0sentry@?$basic_ostream@DU?$char_traits@D@std@@@std@@QAE@AAV12@@Z$0 00400000 f   BossEnemyObject.obj
 0001:fffff000       __unwindfunclet$?_Alloc_sentinel_and_proxy@?$_Tree@V?$_Tmap_traits@V?$basic_string@DU?$char_traits@D@std@@V?$allocator@D@2@@std@@V?$shared_ptr@VRawImageData@@@2@U?$less@V?$basic_string@DU?$char_traits@D@std@@V?$allocator@D@2@@std@@@2@V?$allocator@U?$pair@$$CBV?$basic_string@DU?$char_traits@D@std@@V?$allocator@D@2@@std@@V?$shared_ptr@VRawImageData@@@2@@std@@@2@$0A@@std@@@std@@IAEXXZ$0 00400000 f   BossEnemyObject.obj
 0001:fffff000       __unwindfunclet$?_Alloc_sentinel_and_proxy@?$_Tree@V?$_Tmap_traits@V?$basic_string@DU?$char_traits@D@std@@V?$allocator@D@2@@std@@V?$weak_ptr@VRawImageData@@@2@U?$less@V?$basic_string@DU?$char_traits@D@std@@V?$allocator@D@2@@std@@@2@V?$allocator@U?$pair@$$CBV?$basic_string@DU?$char_traits@D@std@@V?$allocator@D@2@@std@@V?$weak_ptr@VRawImageData@@@2@@std@@@2@$0A@@std@@@std@@IAEXXZ$0 00400000 f   BossEnemyObject.obj
 0001:fffff000       __unwindfunclet$?checkCollision@MyCollisionDetector@@SA_NHHV?$vector@V?$vector@HV?$allocator@H@std@@@std@@V?$allocator@V?$vector@HV?$allocator@H@std@@@std@@@2@@std@@HH0@Z$0 00400000 f   BossEnemyObject.obj
 0001:fffff000       __unwindfunclet$?get@ImageManager@@SAPAV1@XZ$0 00400000 f   BossEnemyObject.obj
 0001:fffff000       __unwindfunclet$?getImagePtrbyURL@ImageManager@@QAE?AV?$shared_ptr@VRawImageData@@@std@@V?$basic_string@DU?$char_traits@D@std@@V?$allocator@D@2@@3@_N1@Z$0 00400000 f   BossEnemyObject.obj
 0001:fffff000       __unwindfunclet$?getImagebyURL@ImageManager@@QAE?AVSimpleImage@@V?$basic_string@DU?$char_traits@D@std@@V?$allocator@D@2@@std@@_N1@Z$0 00400000 f   BossEnemyObject.obj
 0001:fffff000       __unwindfunclet$?loadAsNew@ImageManager@@QAE?AV?$shared_ptr@VRawImageData@@@std@@V?$basic_string@DU?$char_traits@D@std@@V?$allocator@D@2@@3@@Z$0 00400000 f   BossEnemyObject.obj
 0001:fffff000       __unwindfunclet$?loadImage@ImageManager@@SA?AVSimpleImage@@V?$basic_string@DU?$char_traits@D@std@@V?$allocator@D@2@@std@@_N@Z$0 00400000 f   BossEnemyObject.obj
 0001:fffff000       __unwindfunclet$?loadImage@RawImageData@@QAE_NV?$basic_string@DU?$char_traits@D@std@@V?$allocator@D@2@@std@@HHHHH_N@Z$0 00400000 f   BossEnemyObject.obj
 0002:fffb4000       __unwindtable$??$?0U?$pair@V?$basic_string@DU?$char_traits@D@std@@V?$allocator@D@2@@std@@V?$shared_ptr@VRawImageData@@@2@@std@@@?$_Tree_temp_node@V?$allocator@U?$_Tree_node@U?$pair@$$CBV?$basic_string@DU?$char_traits@D@std@@V?$allocator@D@2@@std@@V?$shared_ptr@VRawImageData@@@2@@std@@PAX@std@@@std@@@std@@QAE@AAV?$allocator@U?$_Tree_node@U?$pair@$$CBV?$basic_string@DU?$char_traits@D@std@@V?$allocator@D@2@@std@@V?$shared_ptr@VRawImageData@@@2@@std@@PAX@std@@@1@PAU?$_Tree_node@U?$pair@$$CBV?$basic_string@DU?$char_traits@D@std@@V?$allocator@D@2@@std@@V?$shared_ptr@VRawImageData@@@2@@std@@PAX@1@$$QAU?$pair@V?$basic_string@DU?$char_traits@D@std@@V?$allocator@D@2@@std@@V?$shared_ptr@VRawImageData@@@2@@1@@Z 00400000     BossEnemyObject.obj
 0002:fffb4000       __unwindtable$??$?0U?$pair@V?$basic_string@DU?$char_traits@D@std@@V?$allocator@D@2@@std@@V?$weak_ptr@VRawImageData@@@2@@std@@@?$_Tree_temp_node@V?$allocator@U?$_Tree_node@U?$pair@$$CBV?$basic_string@DU?$char_traits@D@std@@V?$allocator@D@2@@std@@V?$weak_ptr@VRawImageData@@@2@@std@@PAX@std@@@std@@@std@@QAE@AAV?$allocator@U?$_Tree_node@U?$pair@$$CBV?$basic_string@DU?$char_traits@D@std@@V?$allocator@D@2@@std@@V?$weak_ptr@VRawImageData@@@2@@std@@PAX@std@@@1@PAU?$_Tree_node@U?$pair@$$CBV?$basic_string@DU?$char_traits@D@std@@V?$allocator@D@2@@std@@V?$weak_ptr@VRawImageData@@@2@@std@@PAX@1@$$QAU?$pair@V?$basic_string@DU?$char_traits@D@std@@V?$allocator@D@2@@std@@V?$weak_ptr@VRawImageData@@@2@@1@@Z 00400000     BossEnemyObject.obj
 0002:fffb4000       __unwindtable$??$?0VRawImageData@@$0A@@?$shared_ptr@VRawImageData@@@std@@QAE@PAVRawImageData@@@Z 00400000     BossEnemyObject.obj
 0002:fffb4000       __unwindtable$??$_Construct_n_copies_of_ty@H@?$vector@HV?$allocator@H@std@@@std@@AAEXIABH@Z 00400000     BossEnemyObject.obj
 0002:fffb4000       __unwindtable$??$_Construct_n_copies_of_ty@V?$vector@HV?$allocator@H@std@@@std@@@?$vector@V?$vector@HV?$allocator@H@std@@@std@@V?$allocator@V?$vector@HV?$allocator@H@std@@@std@@@2@@std@@AAEXIABV?$vector@HV?$allocator@H@std@@@1@@Z 00400000     BossEnemyObject.obj
 0002:fffb4000       __unwindtable$??$_Uninitialized_copy@PAHV?$allocator@H@std@@@std@@YAPAHQAH0PAHAAV?$allocator@H@0@@Z 00400000     BossEnemyObject.obj
 0002:fffb4000       __unwindtable$??$_Uninitialized_fill_n@V?$allocator@H@std@@@std@@YAPAHPAHIABHAAV?$allocator@H@0@@Z 00400000     BossEnemyObject.obj
 0002:fffb4000       __unwindtable$??$_Uninitialized_fill_n@V?$allocator@V?$vector@HV?$allocator@H@std@@@std@@@std@@@std@@YAPAV?$vector@HV?$allocator@H@std@@@0@PAV10@IABV10@AAV?$allocator@V?$vector@HV?$allocator@H@std@@@std@@@0@@Z 00400000     BossEnemyObject.obj
 0002:fffb4000       __unwindtable$??0?$_Tree_temp_node_alloc@V?$allocator@U?$_Tree_node@U?$pair@$$CBV?$basic_string@DU?$char_traits@D@std@@V?$allocator@D@2@@std@@V?$shared_ptr@VRawImageData@@@2@@std@@PAX@std@@@std@@@std@@QAE@AAV?$allocator@U?$_Tree_node@U?$pair@$$CBV?$basic_string@DU?$char_traits@D@std@@V?$allocator@D@2@@std@@V?$shared_ptr@VRawImageData@@@2@@std@@PAX@std@@@1@@Z 00400000     BossEnemyObject.obj
 0002:fffb4000       __unwindtable$??0?$_Tree_temp_node_alloc@V?$allocator@U?$_Tree_node@U?$pair@$$CBV?$basic_string@DU?$char_traits@D@std@@V?$allocator@D@2@@std@@V?$weak_ptr@VRawImageData@@@2@@std@@PAX@std@@@std@@@std@@QAE@AAV?$allocator@U?$_Tree_node@U?$pair@$$CBV?$basic_string@DU?$char_traits@D@std@@V?$allocator@D@2@@std@@V?$weak_ptr@VRawImageData@@@2@@std@@PAX@std@@@1@@Z 00400000     BossEnemyObject.obj
 0002:fffb4000       __unwindtable$??0?$basic_string@DU?$char_traits@D@std@@V?$allocator@D@2@@std@@QAE@ABV01@@Z 00400000     BossEnemyObject.obj
 0002:fffb4000       __unwindtable$??0?$basic_string@DU?$char_traits@D@std@@V?$allocator@D@2@@std@@QAE@QBD@Z 00400000     BossEnemyObject.obj
 0002:fffb4000       __unwindtable$??0?$vector@HV?$allocator@H@std@@@std@@QAE@ABV01@@Z 00400000     BossEnemyObject.obj
 0002:fffb4000       __unwindtable$??0ImageManager@@QAE@XZ 00400000     BossEnemyObject.obj
 0002:fffb4000       __unwindtable$??0RawImageData@@QAE@V?$basic_string@DU?$char_traits@D@std@@V?$allocator@D@2@@std@@@Z 00400000     BossEnemyObject.obj
 0002:fffb4000       __unwindtable$??0sentry@?$basic_ostream@DU?$char_traits@D@std@@@std@@QAE@AAV12@@Z 00400000     BossEnemyObject.obj
 0002:fffb4000       __unwindtable$?_Alloc_sentinel_and_proxy@?$_Tree@V?$_Tmap_traits@V?$basic_string@DU?$char_traits@D@std@@V?$allocator@D@2@@std@@V?$shared_ptr@VRawImageData@@@2@U?$less@V?$basic_string@DU?$char_traits@D@std@@V?$allocator@D@2@@std@@@2@V?$allocator@U?$pair@$$CBV?$basic_string@DU?$char_traits@D@std@@V?$allocator@D@2@@std@@V?$shared_ptr@VRawImageData@@@2@@std@@@2@$0A@@std@@@std@@IAEXXZ 00400000     BossEnemyObject.obj
 0002:fffb4000       __unwindtable$?_Alloc_sentinel_and_proxy@?$_Tree@V?$_Tmap_traits@V?$basic_string@DU?$char_traits@D@std@@V?$allocator@D@2@@std@@V?$weak_ptr@VRawImageData@@@2@U?$less@V?$basic_string@DU?$char_traits@D@std@@V?$allocator@D@2@@std@@@2@V?$allocator@U?$pair@$$CBV?$basic_string@DU?$char_traits@D@std@@V?$allocator@D@2@@std@@V?$weak_ptr@VRawImageData@@@2@@std@@@2@$0A@@std@@@std@@IAEXXZ 00400000     BossEnemyObject.obj
 0002:fffb4000       __unwindtable$?checkCollision@MyCollisionDetector@@SA_NHHV?$vector@V?$vector@HV?$allocator@H@std@@@std@@V?$allocator@V?$vector@HV?$allocator@H@std@@@std@@@2@@std@@HH0@Z 00400000     BossEnemyObject.obj
 0002:fffb4000       __unwindtable$?get@ImageManager@@SAPAV1@XZ 00400000     BossEnemyObject.obj
 0002:fffb4000       __unwindtable$?getImagebyURL@ImageManager@@QAE?AVSimpleImage@@V?$basic_string@DU?$char_traits@D@std@@V?$allocator@D@2@@std@@_N1@Z 00400000     BossEnemyObject.obj
 0002:fffb4000       __unwindtable$?loadAsNew@ImageManager@@QAE?AV?$shared_ptr@VRawImageData@@@std@@V?$basic_string@DU?$char_traits@D@std@@V?$allocator@D@2@@3@@Z 00400000     BossEnemyObject.obj
 0002:fffb4000       __unwindtable$?loadImage@ImageManager@@SA?AVSimpleImage@@V?$basic_string@DU?$char_traits@D@std@@V?$allocator@D@2@@std@@_N@Z 00400000     BossEnemyObject.obj
 0002:fffb4000       __unwindtable$?loadImage@RawImageData@@QAE_NV?$basic_string@DU?$char_traits@D@std@@V?$allocator@D@2@@std@@HHHHH_N@Z 00400000     BossEnemyObject.obj
 0000:fff97000       _volmd                     00400000     BossEnemyObject.obj
 0000:fff97000       _volmd                     00400000     BossEnemyObject.obj
 0000:fff97000       _volmd                     00400000     BossEnemyObject.obj
 0000:fff97000       _volmd                     00400000     BossEnemyObject.obj
 0000:fff97000       _volmd                     00400000     BossEnemyObject.obj
 0000:fff97000       _volmd                     00400000     BossEnemyObject.obj
 0000:fff97000       _volmd                     00400000     BossEnemyObject.obj
 0000:fff97000       _volmd                     00400000     BossEnemyObject.obj
 0000:fff97000       _volmd                     00400000     BossEnemyObject.obj
 0000:fff97000       _volmd                     00400000     BossEnemyObject.obj
 0000:fff97000       _volmd                     00400000     BossEnemyObject.obj
 0000:fff97000       _volmd                     00400000     BossEnemyObject.obj
 0000:fff97000       _volmd                     00400000     BossEnemyObject.obj
 0000:fff97000       _volmd                     00400000     BossEnemyObject.obj
 0000:fff97000       _volmd                     00400000     BossEnemyObject.obj
 0000:fff97000       _volmd                     00400000     BossEnemyObject.obj
 0000:fff97000       _volmd                     00400000     BossEnemyObject.obj
 0000:fff97000       _volmd                     00400000     BossEnemyObject.obj
 0000:fff97000       _volmd                     00400000     BossEnemyObject.obj
 0000:fff97000       _volmd                     00400000     BossEnemyObject.obj
 0000:fff97000       _volmd                     00400000     BossEnemyObject.obj
 0000:fff97000       _volmd                     00400000     BossEnemyObject.obj
 0000:fff97000       _volmd                     00400000     BossEnemyObject.obj
 0000:fff97000       _volmd                     00400000     BossEnemyObject.obj
 0000:fff97000       _volmd                     00400000     BossEnemyObject.obj
 0000:fff97000       _volmd                     00400000     BossEnemyObject.obj
 0000:fff97000       _volmd                     00400000     BossEnemyObject.obj
 0000:fff97000       _volmd                     00400000     BossEnemyObject.obj
 0000:fff97000       _volmd                     00400000     BossEnemyObject.obj
 0000:fff97000       _volmd                     00400000     BossEnemyObject.obj
 0000:fff97000       _volmd                     00400000     BossEnemyObject.obj
 0000:fff97000       _volmd                     00400000     BossEnemyObject.obj
 0000:fff97000       _volmd                     00400000     BossEnemyObject.obj
 0000:fff97000       _volmd                     00400000     BossEnemyObject.obj
 0000:fff97000       _volmd                     00400000     BossEnemyObject.obj
 0000:fff97000       _volmd                     00400000     BossEnemyObject.obj
 0000:fff97000       _volmd                     00400000     BossEnemyObject.obj
 0000:fff97000       _volmd                     00400000     BossEnemyObject.obj
 0000:fff97000       _volmd                     00400000     BossEnemyObject.obj
 0000:fff97000       _volmd                     00400000     BossEnemyObject.obj
 0000:fff97000       _volmd                     00400000     BossEnemyObject.obj
 0000:fff97000       _volmd                     00400000     BossEnemyObject.obj
 0000:fff97000       _volmd                     00400000     BossEnemyObject.obj
 0000:fff97000       _volmd                     00400000     BossEnemyObject.obj
 0000:fff97000       _volmd                     00400000     BossEnemyObject.obj
 0000:fff97000       _volmd                     00400000     BossEnemyObject.obj
 0000:fff97000       _volmd                     00400000     BossEnemyObject.obj
 0000:fff97000       _volmd                     00400000     BossEnemyObject.obj
 0000:fff97000       _volmd                     00400000     BossEnemyObject.obj
 0000:fff97000       _volmd                     00400000     BossEnemyObject.obj
 0000:fff97000       _volmd                     00400000     BossEnemyObject.obj
 0000:fff97000       _volmd                     00400000     BossEnemyObject.obj
 0000:fff97000       _volmd                     00400000     BossEnemyObject.obj
 0000:fff97000       _volmd                     00400000     BossEnemyObject.obj
 0000:fff97000       _volmd                     00400000     BossEnemyObject.obj
 0000:fff97000       _volmd                     00400000     BossEnemyObject.obj
 0000:fff97000       _volmd                     00400000     BossEnemyObject.obj
 0000:fff97000       _volmd                     00400000     BossEnemyObject.obj
 0000:fff97000       _volmd                     00400000     BossEnemyObject.obj
 0000:fff97000       _volmd                     00400000     BossEnemyObject.obj
 0000:fff97000       _volmd                     00400000     BossEnemyObject.obj
 0002:fffb4000       __catchsym$??$?6U?$char_traits@D@std@@@std@@YAAAV?$basic_ostream@DU?$char_traits@D@std@@@0@AAV10@PBD@Z$3 00400000     BouncingBall.obj
 0002:fffb4000       __ehfuncinfo$??1_Sentry_base@?$basic_ostream@DU?$char_traits@D@std@@@std@@QAE@XZ 00400000     BouncingBall.obj
 0002:fffb4000       __ehfuncinfo$??1sentry@?$basic_ostream@DU?$char_traits@D@std@@@std@@QAE@XZ 00400000     BouncingBall.obj
 0001:fffff000       __ehhandler$??1_Sentry_base@?$basic_ostream@DU?$char_traits@D@std@@@std@@QAE@XZ 00400000 f   BouncingBall.obj
 0001:fffff000       __ehhandler$??1sentry@?$basic_ostream@DU?$char_traits@D@std@@@std@@QAE@XZ 00400000 f   BouncingBall.obj
 0001:fffff000       __unwindfunclet$??$?6U?$char_traits@D@std@@@std@@YAAAV?$basic_ostream@DU?$char_traits@D@std@@@0@AAV10@PBD@Z$2 00400000 f   BouncingBall.obj
 0001:fffff000       __unwindfunclet$??0sentry@?$basic_ostream@DU?$char_traits@D@std@@@std@@QAE@AAV12@@Z$0 00400000 f   BouncingBall.obj
 0002:fffb4000       __unwindtable$??0sentry@?$basic_ostream@DU?$char_traits@D@std@@@std@@QAE@AAV12@@Z 00400000     BouncingBall.obj
 0000:fff97000       _volmd                     00400000     BouncingBall.obj
 0000:fff97000       _volmd                     00400000     BouncingBall.obj
 0000:fff97000       _volmd                     00400000     BouncingBall.obj
 0000:fff97000       _volmd                     00400000     BouncingBall.obj
 0000:fff97000       _volmd                     00400000     BouncingBall.obj
 0002:fffb4000       __catchsym$??$?6U?$char_traits@D@std@@@std@@YAAAV?$basic_ostream@DU?$char_traits@D@std@@@0@AAV10@PBD@Z$3 00400000     BouncingBallMain.obj
 0002:fffb4000       __catchsym$??$_Resize_reallocate@U_Value_init_tag@std@@@?$vector@PAVDisplayableObject@@V?$allocator@PAVDisplayableObject@@@std@@@std@@AAEXIABU_Value_init_tag@1@@Z$2 00400000     BouncingBallMain.obj
 0002:fffb4000       __ehfuncinfo$??$_Deallocate@$07$0A@@std@@YAXPAXI@Z 00400000     BouncingBallMain.obj
 0002:fffb4000       __ehfuncinfo$??1_Sentry_base@?$basic_ostream@DU?$char_traits@D@std@@@std@@QAE@XZ 00400000     BouncingBallMain.obj
 0002:fffb4000       __ehfuncinfo$??1sentry@?$basic_ostream@DU?$char_traits@D@std@@@std@@QAE@XZ 00400000     BouncingBallMain.obj
 0001:fffff000       __ehhandler$??$_Deallocate@$07$0A@@std@@YAXPAXI@Z 00400000 f   BouncingBallMain.obj
 0001:fffff000       __ehhandler$??$_Resize_reallocate@U_Value_init_tag@std@@@?$vector@PAVDisplayableObject@@V?$allocator@PAVDisplayableObject@@@std@@@std@@AAEXIABU_Value_init_tag@1@@Z 00400000 f   BouncingBallMain.obj
 0001:fffff000       __ehhandler$??1_Sentry_base@?$basic_ostream@DU?$char_traits@D@std@@@std@@QAE@XZ 00400000 f   BouncingBallMain.obj
 0001:fffff000       __ehhandler$??1sentry@?$basic_ostream@DU?$char_traits@D@std@@@std@@QAE@XZ 00400000 f   BouncingBallMain.obj
 0001:fffff000       __unwindfunclet$??$?6U?$char_traits@D@std@@@std@@YAAAV?$basic_ostream@DU?$char_traits@D@std@@@0@AAV10@PBD@Z$2 00400000 f   BouncingBallMain.obj
 0001:fffff000       __unwindfunclet$??$_Uninitialized_move@PAPAVDisplayableObject@@V?$allocator@PAVDisplayableObject@@@std@@@std@@YAPAPAVDisplayableObject@@QAPAV1@0PAPAV1@AAV?$allocator@PAVDisplayableObject@@@0@@Z$0 00400000 f   BouncingBallMain.obj
 0001:fffff000       __unwindfunclet$??$_Uninitialized_value_construct_n@V?$allocator@PAVDisplayableObject@@@std@@@std@@YAPAPAVDisplayableObject@@PAPAV1@IAAV?$allocator@PAVDisplayableObject@@@0@@Z$0 00400000 f   BouncingBallMain.obj
 0001:fffff000       __unwindfunclet$??0sentry@?$basic_ostream@DU?$char_traits@D@std@@@std@@QAE@AAV12@@Z$0 00400000 f   BouncingBallMain.obj
 0001:fffff000       __unwindfunclet$?_Orphan_range_locked@?$vector@PAVDisplayableObject@@V?$allocator@PAVDisplayableObject@@@std@@@std@@ABEXPAPAVDisplayableObject@@0@Z$0 00400000 f   BouncingBallMain.obj
 0002:fffb4000       __unwindtable$??$_Uninitialized_move@PAPAVDisplayableObject@@V?$allocator@PAVDisplayableObject@@@std@@@std@@YAPAPAVDisplayableObject@@QAPAV1@0PAPAV1@AAV?$allocator@PAVDisplayableObject@@@0@@Z 00400000     BouncingBallMain.obj
 0002:fffb4000       __unwindtable$??$_Uninitialized_value_construct_n@V?$allocator@PAVDisplayableObject@@@std@@@std@@YAPAPAVDisplayableObject@@PAPAV1@IAAV?$allocator@PAVDisplayableObject@@@0@@Z 00400000     BouncingBallMain.obj
 0002:fffb4000       __unwindtable$??0sentry@?$basic_ostream@DU?$char_traits@D@std@@@std@@QAE@AAV12@@Z 00400000     BouncingBallMain.obj
 0002:fffb4000       __unwindtable$?_Orphan_range_locked@?$vector@PAVDisplayableObject@@V?$allocator@PAVDisplayableObject@@@std@@@std@@ABEXPAPAVDisplayableObject@@0@Z 00400000     BouncingBallMain.obj
 0000:fff97000       _volmd                     00400000     BouncingBallMain.obj
 0000:fff97000       _volmd                     00400000     BouncingBallMain.obj
 0000:fff97000       _volmd                     00400000     BouncingBallMain.obj
 0000:fff97000       _volmd                     00400000     BouncingBallMain.obj
 0000:fff97000       _volmd                     00400000     BouncingBallMain.obj
 0000:fff97000       _volmd                     00400000     BouncingBallMain.obj
 0000:fff97000       _volmd                     00400000     BouncingBallMain.obj
 0000:fff97000       _volmd                     00400000     BouncingBallMain.obj
 0000:fff97000       _volmd                     00400000     BouncingBallMain.obj
 0000:fff97000       _volmd                     00400000     BouncingBallMain.obj
 0000:fff97000       _volmd                     00400000     BouncingBallMain.obj
 0000:fff97000       _volmd                     00400000     BouncingBallMain.obj
 0000:fff97000       _volmd                     00400000     BouncingBallMain.obj
 0000:fff97000       _volmd                     00400000     BouncingBallMain.obj
 0000:fff97000       _volmd                     00400000     BouncingBallMain.obj
 0002:fffb4000       __catchsym$??$?6U?$char_traits@D@std@@@std@@YAAAV?$basic_ostream@DU?$char_traits@D@std@@@0@AAV10@PBD@Z$3 00400000     BulletObject.obj
 0002:fffb4000       __catchsym$??$_Insert_string@DU?$char_traits@D@std@@I@std@@YAAAV?$basic_ostream@DU?$char_traits@D@std@@@0@AAV10@QBDI@Z$3 00400000     BulletObject.obj
 0002:fffb4000       __catchsym$??$_Resize_reallocate@U_Value_init_tag@std@@@?$vector@VSimpleImage@@V?$allocator@VSimpleImage@@@std@@@std@@AAEXIABU_Value_init_tag@1@@Z$2 00400000     BulletObject.obj
 0002:fffb4000       __ehfuncinfo$??$_Deallocate@$07$0A@@std@@YAXPAXI@Z 00400000     BulletObject.obj
 0002:fffb4000       __ehfuncinfo$??$_Deallocate_plain@V?$allocator@U_Container_proxy@std@@@std@@@std@@YAXAAV?$allocator@U_Container_proxy@std@@@0@QAU_Container_proxy@0@@Z 00400000     BulletObject.obj
 0002:fffb4000       __ehfuncinfo$??$_Destroy_range@V?$allocator@V?$vector@HV?$allocator@H@std@@@std@@@std@@@std@@YAXPAV?$vector@HV?$allocator@H@std@@@0@QAV10@AAV?$allocator@V?$vector@HV?$allocator@H@std@@@std@@@0@@Z 00400000     BulletObject.obj
 0002:fffb4000       __ehfuncinfo$??$_Destroy_range@V?$allocator@VSimpleImage@@@std@@@std@@YAXPAVSimpleImage@@QAV1@AAV?$allocator@VSimpleImage@@@0@@Z 00400000     BulletObject.obj
 0002:fffb4000       __ehfuncinfo$??$_Freenode0@V?$allocator@U?$_Tree_node@U?$pair@$$CBV?$basic_string@DU?$char_traits@D@std@@V?$allocator@D@2@@std@@V?$weak_ptr@VRawImageData@@@2@@std@@PAX@std@@@std@@@?$_Tree_node@U?$pair@$$CBV?$basic_string@DU?$char_traits@D@std@@V?$allocator@D@2@@std@@V?$weak_ptr@VRawImageData@@@2@@std@@PAX@std@@SAXAAV?$allocator@U?$_Tree_node@U?$pair@$$CBV?$basic_string@DU?$char_traits@D@std@@V?$allocator@D@2@@std@@V?$weak_ptr@VRawImageData@@@2@@std@@PAX@std@@@1@PAU01@@Z 00400000     BulletObject.obj
 0002:fffb4000       __ehfuncinfo$??$_Freenode@V?$allocator@U?$_Tree_node@U?$pair@$$CBV?$basic_string@DU?$char_traits@D@std@@V?$allocator@D@2@@std@@V?$weak_ptr@VRawImageData@@@2@@std@@PAX@std@@@std@@@?$_Tree_node@U?$pair@$$CBV?$basic_string@DU?$char_traits@D@std@@V?$allocator@D@2@@std@@V?$weak_ptr@VRawImageData@@@2@@std@@PAX@std@@SAXAAV?$allocator@U?$_Tree_node@U?$pair@$$CBV?$basic_string@DU?$char_traits@D@std@@V?$allocator@D@2@@std@@V?$weak_ptr@VRawImageData@@@2@@std@@PAX@std@@@1@PAU01@@Z 00400000     BulletObject.obj
 0002:fffb4000       __ehfuncinfo$??0?$basic_string@DU?$char_traits@D@std@@V?$allocator@D@2@@std@@QAE@$$QAV01@@Z 00400000     BulletObject.obj
 0002:fffb4000       __ehfuncinfo$??0?$vector@V?$vector@HV?$allocator@H@std@@@std@@V?$allocator@V?$vector@HV?$allocator@H@std@@@std@@@2@@std@@QAE@$$QAV01@@Z 00400000     BulletObject.obj
 0002:fffb4000       __ehfuncinfo$??1?$_Alloc_construct_ptr@V?$allocator@U?$_Tree_node@U?$pair@$$CBV?$basic_string@DU?$char_traits@D@std@@V?$allocator@D@2@@std@@V?$shared_ptr@VRawImageData@@@2@@std@@PAX@std@@@std@@@std@@QAE@XZ 00400000     BulletObject.obj
 0002:fffb4000       __ehfuncinfo$??1?$_Alloc_construct_ptr@V?$allocator@U?$_Tree_node@U?$pair@$$CBV?$basic_string@DU?$char_traits@D@std@@V?$allocator@D@2@@std@@V?$weak_ptr@VRawImageData@@@2@@std@@PAX@std@@@std@@@std@@QAE@XZ 00400000     BulletObject.obj
 0002:fffb4000       __ehfuncinfo$??1?$_Tree_temp_node@V?$allocator@U?$_Tree_node@U?$pair@$$CBV?$basic_string@DU?$char_traits@D@std@@V?$allocator@D@2@@std@@V?$shared_ptr@VRawImageData@@@2@@std@@PAX@std@@@std@@@std@@QAE@XZ 00400000     BulletObject.obj
 0002:fffb4000       __ehfuncinfo$??1?$_Tree_temp_node@V?$allocator@U?$_Tree_node@U?$pair@$$CBV?$basic_string@DU?$char_traits@D@std@@V?$allocator@D@2@@std@@V?$weak_ptr@VRawImageData@@@2@@std@@PAX@std@@@std@@@std@@QAE@XZ 00400000     BulletObject.obj
 0002:fffb4000       __ehfuncinfo$??1RawImageData@@QAE@XZ 00400000     BulletObject.obj
 0002:fffb4000       __ehfuncinfo$??1_Sentry_base@?$basic_ostream@DU?$char_traits@D@std@@@std@@QAE@XZ 00400000     BulletObject.obj
 0002:fffb4000       __ehfuncinfo$??1sentry@?$basic_ostream@DU?$char_traits@D@std@@@std@@QAE@XZ 00400000     BulletObject.obj
 0002:fffb4000       __ehfuncinfo$?_Take_contents@?$basic_string@DU?$char_traits@D@std@@V?$allocator@D@2@@std@@AAEXAAV12@@Z 00400000     BulletObject.obj
 0002:fffb4000       __ehfuncinfo$?_Tidy@?$vector@HV?$allocator@H@std@@@std@@AAEXXZ 00400000     BulletObject.obj
 0002:fffb4000       __ehfuncinfo$?_Tidy@?$vector@V?$vector@HV?$allocator@H@std@@@std@@V?$allocator@V?$vector@HV?$allocator@H@std@@@std@@@2@@std@@AAEXXZ 00400000     BulletObject.obj
 0002:fffb4000       __ehfuncinfo$?_Tidy_deallocate@?$basic_string@DU?$char_traits@D@std@@V?$allocator@D@2@@std@@AAEXXZ 00400000     BulletObject.obj
 0002:fffb4000       __ehfuncinfo$?getImagePtrbyURL@ImageManager@@QAE?AV?$shared_ptr@VRawImageData@@@std@@V?$basic_string@DU?$char_traits@D@std@@V?$allocator@D@2@@3@_N1@Z 00400000     BulletObject.obj
 0001:fffff000       __ehhandler$??$_Deallocate@$07$0A@@std@@YAXPAXI@Z 00400000 f   BulletObject.obj
 0001:fffff000       __ehhandler$??$_Deallocate_plain@V?$allocator@U_Container_proxy@std@@@std@@@std@@YAXAAV?$allocator@U_Container_proxy@std@@@0@QAU_Container_proxy@0@@Z 00400000 f   BulletObject.obj
 0001:fffff000       __ehhandler$??$_Destroy_range@V?$allocator@V?$vector@HV?$allocator@H@std@@@std@@@std@@@std@@YAXPAV?$vector@HV?$allocator@H@std@@@0@QAV10@AAV?$allocator@V?$vector@HV?$allocator@H@std@@@std@@@0@@Z 00400000 f   BulletObject.obj
 0001:fffff000       __ehhandler$??$_Destroy_range@V?$allocator@VSimpleImage@@@std@@@std@@YAXPAVSimpleImage@@QAV1@AAV?$allocator@VSimpleImage@@@0@@Z 00400000 f   BulletObject.obj
 0001:fffff000       __ehhandler$??$_Freenode0@V?$allocator@U?$_Tree_node@U?$pair@$$CBV?$basic_string@DU?$char_traits@D@std@@V?$allocator@D@2@@std@@V?$weak_ptr@VRawImageData@@@2@@std@@PAX@std@@@std@@@?$_Tree_node@U?$pair@$$CBV?$basic_string@DU?$char_traits@D@std@@V?$allocator@D@2@@std@@V?$weak_ptr@VRawImageData@@@2@@std@@PAX@std@@SAXAAV?$allocator@U?$_Tree_node@U?$pair@$$CBV?$basic_string@DU?$char_traits@D@std@@V?$allocator@D@2@@std@@V?$weak_ptr@VRawImageData@@@2@@std@@PAX@std@@@1@PAU01@@Z 00400000 f   BulletObject.obj
 0001:fffff000       __ehhandler$??$_Freenode@V?$allocator@U?$_Tree_node@U?$pair@$$CBV?$basic_string@DU?$char_traits@D@std@@V?$allocator@D@2@@std@@V?$weak_ptr@VRawImageData@@@2@@std@@PAX@std@@@std@@@?$_Tree_node@U?$pair@$$CBV?$basic_string@DU?$char_traits@D@std@@V?$allocator@D@2@@std@@V?$weak_ptr@VRawImageData@@@2@@std@@PAX@std@@SAXAAV?$allocator@U?$_Tree_node@U?$pair@$$CBV?$basic_string@DU?$char_traits@D@std@@V?$allocator@D@2@@std@@V?$weak_ptr@VRawImageData@@@2@@std@@PAX@std@@@1@PAU01@@Z 00400000 f   BulletObject.obj
 0001:fffff000       __ehhandler$??$_Resize_reallocate@U_Value_init_tag@std@@@?$vector@VSimpleImage@@V?$allocator@VSimpleImage@@@std@@@std@@AAEXIABU_Value_init_tag@1@@Z 00400000 f   BulletObject.obj
 0001:fffff000       __ehhandler$??0?$basic_string@DU?$char_traits@D@std@@V?$allocator@D@2@@std@@QAE@$$QAV01@@Z 00400000 f   BulletObject.obj
 0001:fffff000       __ehhandler$??0?$vector@V?$vector@HV?$allocator@H@std@@@std@@V?$allocator@V?$vector@HV?$allocator@H@std@@@std@@@2@@std@@QAE@$$QAV01@@Z 00400000 f   BulletObject.obj
 0001:fffff000       __ehhandler$??1?$_Alloc_construct_ptr@V?$allocator@U?$_Tree_node@U?$pair@$$CBV?$basic_string@DU?$char_traits@D@std@@V?$allocator@D@2@@std@@V?$shared_ptr@VRawImageData@@@2@@std@@PAX@std@@@std@@@std@@QAE@XZ 00400000 f   BulletObject.obj
 0001:fffff000       __ehhandler$??1?$_Alloc_construct_ptr@V?$allocator@U?$_Tree_node@U?$pair@$$CBV?$basic_string@DU?$char_traits@D@std@@V?$allocator@D@2@@std@@V?$weak_ptr@VRawImageData@@@2@@std@@PAX@std@@@std@@@std@@QAE@XZ 00400000 f   BulletObject.obj
 0001:fffff000       __ehhandler$??1?$_Tree_temp_node@V?$allocator@U?$_Tree_node@U?$pair@$$CBV?$basic_string@DU?$char_traits@D@std@@V?$allocator@D@2@@std@@V?$shared_ptr@VRawImageData@@@2@@std@@PAX@std@@@std@@@std@@QAE@XZ 00400000 f   BulletObject.obj
 0001:fffff000       __ehhandler$??1?$_Tree_temp_node@V?$allocator@U?$_Tree_node@U?$pair@$$CBV?$basic_string@DU?$char_traits@D@std@@V?$allocator@D@2@@std@@V?$weak_ptr@VRawImageData@@@2@@std@@PAX@std@@@std@@@std@@QAE@XZ 00400000 f   BulletObject.obj
 0001:fffff000       __ehhandler$??1RawImageData@@QAE@XZ 00400000 f   BulletObject.obj
 0001:fffff000       __ehhandler$??1_Sentry_base@?$basic_ostream@DU?$char_traits@D@std@@@std@@QAE@XZ 00400000 f   BulletObject.obj
 0001:fffff000       __ehhandler$??1sentry@?$basic_ostream@DU?$char_traits@D@std@@@std@@QAE@XZ 00400000 f   BulletObject.obj
 0001:fffff000       __ehhandler$?_Take_contents@?$basic_string@DU?$char_traits@D@std@@V?$allocator@D@2@@std@@AAEXAAV12@@Z 00400000 f   BulletObject.obj
 0001:fffff000       __ehhandler$?_Tidy@?$vector@HV?$allocator@H@std@@@std@@AAEXXZ 00400000 f   BulletObject.obj
 0001:fffff000       __ehhandler$?_Tidy@?$vector@V?$vector@HV?$allocator@H@std@@@std@@V?$allocator@V?$vector@HV?$allocator@H@std@@@std@@@2@@std@@AAEXXZ 00400000 f   BulletObject.obj
 0001:fffff000       __ehhandler$?_Tidy_deallocate@?$basic_string@DU?$char_traits@D@std@@V?$allocator@D@2@@std@@AAEXXZ 00400000 f   BulletObject.obj
 0001:fffff000       __unwindfunclet$??$?0U?$pair@V?$basic_string@DU?$char_traits@D@std@@V?$allocator@D@2@@std@@V?$shared_ptr@VRawImageData@@@2@@std@@@?$_Tree_temp_node@V?$allocator@U?$_Tree_node@U?$pair@$$CBV?$basic_string@DU?$char_traits@D@std@@V?$allocator@D@2@@std@@V?$shared_ptr@VRawImageData@@@2@@std@@PAX@std@@@std@@@std@@QAE@AAV?$allocator@U?$_Tree_node@U?$pair@$$CBV?$basic_string@DU?$char_traits@D@std@@V?$allocator@D@2@@std@@V?$shared_ptr@VRawImageData@@@2@@std@@PAX@std@@@1@PAU?$_Tree_node@U?$pair@$$CBV?$basic_string@DU?$char_traits@D@std@@V?$allocator@D@2@@std@@V?$shared_ptr@VRawImageData@@@2@@std@@PAX@1@$$QAU?$pair@V?$basic_string@DU?$char_traits@D@std@@V?$allocator@D@2@@std@@V?$shared_ptr@VRawImageData@@@2@@1@@Z$0 00400000 f   BulletObject.obj
 0001:fffff000       __unwindfunclet$??$?0U?$pair@V?$basic_string@DU?$char_traits@D@std@@V?$allocator@D@2@@std@@V?$weak_ptr@VRawImageData@@@2@@std@@@?$_Tree_temp_node@V?$allocator@U?$_Tree_node@U?$pair@$$CBV?$basic_string@DU?$char_traits@D@std@@V?$allocator@D@2@@std@@V?$weak_ptr@VRawImageData@@@2@@std@@PAX@std@@@std@@@std@@QAE@AAV?$allocator@U?$_Tree_node@U?$pair@$$CBV?$basic_string@DU?$char_traits@D@std@@V?$allocator@D@2@@std@@V?$weak_ptr@VRawImageData@@@2@@std@@PAX@std@@@1@PAU?$_Tree_node@U?$pair@$$CBV?$basic_string@DU?$char_traits@D@std@@V?$allocator@D@2@@std@@V?$weak_ptr@VRawImageData@@@2@@std@@PAX@1@$$QAU?$pair@V?$basic_string@DU?$char_traits@D@std@@V?$allocator@D@2@@std@@V?$weak_ptr@VRawImageData@@@2@@1@@Z$0 00400000 f   BulletObject.obj
 0001:fffff000       __unwindfunclet$??$?0VRawImageData@@$0A@@?$shared_ptr@VRawImageData@@@std@@QAE@PAVRawImageData@@@Z$0 00400000 f   BulletObject.obj
 0001:fffff000       __unwindfunclet$??$?6U?$char_traits@D@std@@@std@@YAAAV?$basic_ostream@DU?$char_traits@D@std@@@0@AAV10@PBD@Z$2 00400000 f   BulletObject.obj
 0001:fffff000       __unwindfunclet$??$_Construct_n_copies_of_ty@H@?$vector@HV?$allocator@H@std@@@std@@AAEXIABH@Z$0 00400000 f   BulletObject.obj
 0001:fffff000       __unwindfunclet$??$_Construct_n_copies_of_ty@V?$vector@HV?$allocator@H@std@@@std@@@?$vector@V?$vector@HV?$allocator@H@std@@@std@@V?$allocator@V?$vector@HV?$allocator@H@std@@@std@@@2@@std@@AAEXIABV?$vector@HV?$allocator@H@std@@@1@@Z$0 00400000 f   BulletObject.obj
 0001:fffff000       __unwindfunclet$??$_Insert_string@DU?$char_traits@D@std@@I@std@@YAAAV?$basic_ostream@DU?$char_traits@D@std@@@0@AAV10@QBDI@Z$2 00400000 f   BulletObject.obj
 0001:fffff000       __unwindfunclet$??$_Uninitialized_copy@PAHV?$allocator@H@std@@@std@@YAPAHQAH0PAHAAV?$allocator@H@0@@Z$0 00400000 f   BulletObject.obj
 0001:fffff000       __unwindfunclet$??$_Uninitialized_fill_n@V?$allocator@H@std@@@std@@YAPAHPAHIABHAAV?$allocator@H@0@@Z$0 00400000 f   BulletObject.obj
 0001:fffff000       __unwindfunclet$??$_Uninitialized_fill_n@V?$allocator@V?$vector@HV?$allocator@H@std@@@std@@@std@@@std@@YAPAV?$vector@HV?$allocator@H@std@@@0@PAV10@IABV10@AAV?$allocator@V?$vector@HV?$allocator@H@std@@@std@@@0@@Z$0 00400000 f   BulletObject.obj
 0001:fffff000       __unwindfunclet$??$_Uninitialized_move@PAVSimpleImage@@V?$allocator@VSimpleImage@@@std@@@std@@YAPAVSimpleImage@@QAV1@0PAV1@AAV?$allocator@VSimpleImage@@@0@@Z$0 00400000 f   BulletObject.obj
 0001:fffff000       __unwindfunclet$??$_Uninitialized_value_construct_n@V?$allocator@VSimpleImage@@@std@@@std@@YAPAVSimpleImage@@PAV1@IAAV?$allocator@VSimpleImage@@@0@@Z$0 00400000 f   BulletObject.obj
 0001:fffff000       __unwindfunclet$??0?$_Tree_temp_node_alloc@V?$allocator@U?$_Tree_node@U?$pair@$$CBV?$basic_string@DU?$char_traits@D@std@@V?$allocator@D@2@@std@@V?$shared_ptr@VRawImageData@@@2@@std@@PAX@std@@@std@@@std@@QAE@AAV?$allocator@U?$_Tree_node@U?$pair@$$CBV?$basic_string@DU?$char_traits@D@std@@V?$allocator@D@2@@std@@V?$shared_ptr@VRawImageData@@@2@@std@@PAX@std@@@1@@Z$0 00400000 f   BulletObject.obj
 0001:fffff000       __unwindfunclet$??0?$_Tree_temp_node_alloc@V?$allocator@U?$_Tree_node@U?$pair@$$CBV?$basic_string@DU?$char_traits@D@std@@V?$allocator@D@2@@std@@V?$weak_ptr@VRawImageData@@@2@@std@@PAX@std@@@std@@@std@@QAE@AAV?$allocator@U?$_Tree_node@U?$pair@$$CBV?$basic_string@DU?$char_traits@D@std@@V?$allocator@D@2@@std@@V?$weak_ptr@VRawImageData@@@2@@std@@PAX@std@@@1@@Z$0 00400000 f   BulletObject.obj
 0001:fffff000       __unwindfunclet$??0?$basic_string@DU?$char_traits@D@std@@V?$allocator@D@2@@std@@QAE@ABV01@@Z$0 00400000 f   BulletObject.obj
 0001:fffff000       __unwindfunclet$??0?$basic_string@DU?$char_traits@D@std@@V?$allocator@D@2@@std@@QAE@QBD@Z$0 00400000 f   BulletObject.obj
 0001:fffff000       __unwindfunclet$??0?$vector@HV?$allocator@H@std@@@std@@QAE@ABV01@@Z$0 00400000 f   BulletObject.obj
 0001:fffff000       __unwindfunclet$??0ImageManager@@QAE@XZ$0 00400000 f   BulletObject.obj
 0001:fffff000       __unwindfunclet$??0RawImageData@@QAE@V?$basic_string@DU?$char_traits@D@std@@V?$allocator@D@2@@std@@@Z$0 00400000 f   BulletObject.obj
 0001:fffff000       __unwindfunclet$??0sentry@?$basic_ostream@DU?$char_traits@D@std@@@std@@QAE@AAV12@@Z$0 00400000 f   BulletObject.obj
 0001:fffff000       __unwindfunclet$?_Alloc_sentinel_and_proxy@?$_Tree@V?$_Tmap_traits@V?$basic_string@DU?$char_traits@D@std@@V?$allocator@D@2@@std@@V?$shared_ptr@VRawImageData@@@2@U?$less@V?$basic_string@DU?$char_traits@D@std@@V?$allocator@D@2@@std@@@2@V?$allocator@U?$pair@$$CBV?$basic_string@DU?$char_traits@D@std@@V?$allocator@D@2@@std@@V?$shared_ptr@VRawImageData@@@2@@std@@@2@$0A@@std@@@std@@IAEXXZ$0 00400000 f   BulletObject.obj
 0001:fffff000       __unwindfunclet$?_Alloc_sentinel_and_proxy@?$_Tree@V?$_Tmap_traits@V?$basic_string@DU?$char_traits@D@std@@V?$allocator@D@2@@std@@V?$weak_ptr@VRawImageData@@@2@U?$less@V?$basic_string@DU?$char_traits@D@std@@V?$allocator@D@2@@std@@@2@V?$allocator@U?$pair@$$CBV?$basic_string@DU?$char_traits@D@std@@V?$allocator@D@2@@std@@V?$weak_ptr@VRawImageData@@@2@@std@@@2@$0A@@std@@@std@@IAEXXZ$0 00400000 f   BulletObject.obj
 0001:fffff000       __unwindfunclet$?_Orphan_range_locked@?$vector@VSimpleImage@@V?$allocator@VSimpleImage@@@std@@@std@@ABEXPAVSimpleImage@@0@Z$0 00400000 f   BulletObject.obj
 0001:fffff000       __unwindfunclet$?checkCollision@MyCollisionDetector@@SA_NHHV?$vector@V?$vector@HV?$allocator@H@std@@@std@@V?$allocator@V?$vector@HV?$allocator@H@std@@@std@@@2@@std@@HH0@Z$0 00400000 f   BulletObject.obj
 0001:fffff000       __unwindfunclet$?get@ImageManager@@SAPAV1@XZ$0 00400000 f   BulletObject.obj
 0001:fffff000       __unwindfunclet$?getImagePtrbyURL@ImageManager@@QAE?AV?$shared_ptr@VRawImageData@@@std@@V?$basic_string@DU?$char_traits@D@std@@V?$allocator@D@2@@3@_N1@Z$0 00400000 f   BulletObject.obj
 0001:fffff000       __unwindfunclet$?getImagebyURL@ImageManager@@QAE?AVSimpleImage@@V?$basic_string@DU?$char_traits@D@std@@V?$allocator@D@2@@std@@_N1@Z$0 00400000 f   BulletObject.obj
 0001:fffff000       __unwindfunclet$?loadAsNew@ImageManager@@QAE?AV?$shared_ptr@VRawImageData@@@std@@V?$basic_string@DU?$char_traits@D@std@@V?$allocator@D@2@@3@@Z$0 00400000 f   BulletObject.obj
 0001:fffff000       __unwindfunclet$?loadImage@ImageManager@@SA?AVSimpleImage@@V?$basic_string@DU?$char_traits@D@std@@V?$allocator@D@2@@std@@_N@Z$0 00400000 f   BulletObject.obj
 0001:fffff000       __unwindfunclet$?loadImage@RawImageData@@QAE_NV?$basic_string@DU?$char_traits@D@std@@V?$allocator@D@2@@std@@HHHHH_N@Z$0 00400000 f   BulletObject.obj
 0002:fffb4000       __unwindtable$??$?0U?$pair@V?$basic_string@DU?$char_traits@D@std@@V?$allocator@D@2@@std@@V?$shared_ptr@VRawImageData@@@2@@std@@@?$_Tree_temp_node@V?$allocator@U?$_Tree_node@U?$pair@$$CBV?$basic_string@DU?$char_traits@D@std@@V?$allocator@D@2@@std@@V?$shared_ptr@VRawImageData@@@2@@std@@PAX@std@@@std@@@std@@QAE@AAV?$allocator@U?$_Tree_node@U?$pair@$$CBV?$basic_string@DU?$char_traits@D@std@@V?$allocator@D@2@@std@@V?$shared_ptr@VRawImageData@@@2@@std@@PAX@std@@@1@PAU?$_Tree_node@U?$pair@$$CBV?$basic_string@DU?$char_traits@D@std@@V?$allocator@D@2@@std@@V?$shared_ptr@VRawImageData@@@2@@std@@PAX@1@$$QAU?$pair@V?$basic_string@DU?$char_traits@D@std@@V?$allocator@D@2@@std@@V?$shared_ptr@VRawImageData@@@2@@1@@Z 00400000     BulletObject.obj
 0002:fffb4000       __unwindtable$??$?0U?$pair@V?$basic_string@DU?$char_traits@D@std@@V?$allocator@D@2@@std@@V?$weak_ptr@VRawImageData@@@2@@std@@@?$_Tree_temp_node@V?$allocator@U?$_Tree_node@U?$pair@$$CBV?$basic_string@DU?$char_traits@D@std@@V?$allocator@D@2@@std@@V?$weak_ptr@VRawImageData@@@2@@std@@PAX@std@@@std@@@std@@QAE@AAV?$allocator@U?$_Tree_node@U?$pair@$$CBV?$basic_string@DU?$char_traits@D@std@@V?$allocator@D@2@@std@@V?$weak_ptr@VRawImageData@@@2@@std@@PAX@std@@@1@PAU?$_Tree_node@U?$pair@$$CBV?$basic_string@DU?$char_traits@D@std@@V?$allocator@D@2@@std@@V?$weak_ptr@VRawImageData@@@2@@std@@PAX@1@$$QAU?$pair@V?$basic_string@DU?$char_traits@D@std@@V?$allocator@D@2@@std@@V?$weak_ptr@VRawImageData@@@2@@1@@Z 00400000     BulletObject.obj
 0002:fffb4000       __unwindtable$??$?0VRawImageData@@$0A@@?$shared_ptr@VRawImageData@@@std@@QAE@PAVRawImageData@@@Z 00400000     BulletObject.obj
 0002:fffb4000       __unwindtable$??$_Construct_n_copies_of_ty@H@?$vector@HV?$allocator@H@std@@@std@@AAEXIABH@Z 00400000     BulletObject.obj
 0002:fffb4000       __unwindtable$??$_Construct_n_copies_of_ty@V?$vector@HV?$allocator@H@std@@@std@@@?$vector@V?$vector@HV?$allocator@H@std@@@std@@V?$allocator@V?$vector@HV?$allocator@H@std@@@std@@@2@@std@@AAEXIABV?$vector@HV?$allocator@H@std@@@1@@Z 00400000     BulletObject.obj
 0002:fffb4000       __unwindtable$??$_Uninitialized_copy@PAHV?$allocator@H@std@@@std@@YAPAHQAH0PAHAAV?$allocator@H@0@@Z 00400000     BulletObject.obj
 0002:fffb4000       __unwindtable$??$_Uninitialized_fill_n@V?$allocator@H@std@@@std@@YAPAHPAHIABHAAV?$allocator@H@0@@Z 00400000     BulletObject.obj
 0002:fffb4000       __unwindtable$??$_Uninitialized_fill_n@V?$allocator@V?$vector@HV?$allocator@H@std@@@std@@@std@@@std@@YAPAV?$vector@HV?$allocator@H@std@@@0@PAV10@IABV10@AAV?$allocator@V?$vector@HV?$allocator@H@std@@@std@@@0@@Z 00400000     BulletObject.obj
 0002:fffb4000       __unwindtable$??$_Uninitialized_move@PAVSimpleImage@@V?$allocator@VSimpleImage@@@std@@@std@@YAPAVSimpleImage@@QAV1@0PAV1@AAV?$allocator@VSimpleImage@@@0@@Z 00400000     BulletObject.obj
 0002:fffb4000       __unwindtable$??$_Uninitialized_value_construct_n@V?$allocator@VSimpleImage@@@std@@@std@@YAPAVSimpleImage@@PAV1@IAAV?$allocator@VSimpleImage@@@0@@Z 00400000     BulletObject.obj
 0002:fffb4000       __unwindtable$??0?$_Tree_temp_node_alloc@V?$allocator@U?$_Tree_node@U?$pair@$$CBV?$basic_string@DU?$char_traits@D@std@@V?$allocator@D@2@@std@@V?$shared_ptr@VRawImageData@@@2@@std@@PAX@std@@@std@@@std@@QAE@AAV?$allocator@U?$_Tree_node@U?$pair@$$CBV?$basic_string@DU?$char_traits@D@std@@V?$allocator@D@2@@std@@V?$shared_ptr@VRawImageData@@@2@@std@@PAX@std@@@1@@Z 00400000     BulletObject.obj
 0002:fffb4000       __unwindtable$??0?$_Tree_temp_node_alloc@V?$allocator@U?$_Tree_node@U?$pair@$$CBV?$basic_string@DU?$char_traits@D@std@@V?$allocator@D@2@@std@@V?$weak_ptr@VRawImageData@@@2@@std@@PAX@std@@@std@@@std@@QAE@AAV?$allocator@U?$_Tree_node@U?$pair@$$CBV?$basic_string@DU?$char_traits@D@std@@V?$allocator@D@2@@std@@V?$weak_ptr@VRawImageData@@@2@@std@@PAX@std@@@1@@Z 00400000     BulletObject.obj
 0002:fffb4000       __unwindtable$??0?$basic_string@DU?$char_traits@D@std@@V?$allocator@D@2@@std@@QAE@ABV01@@Z 00400000     BulletObject.obj
 0002:fffb4000       __unwindtable$??0?$basic_string@DU?$char_traits@D@std@@V?$allocator@D@2@@std@@QAE@QBD@Z 00400000     BulletObject.obj
 0002:fffb4000       __unwindtable$??0?$vector@HV?$allocator@H@std@@@std@@QAE@ABV01@@Z 00400000     BulletObject.obj
 0002:fffb4000       __unwindtable$??0ImageManager@@QAE@XZ 00400000     BulletObject.obj
 0002:fffb4000       __unwindtable$??0RawImageData@@QAE@V?$basic_string@DU?$char_traits@D@std@@V?$allocator@D@2@@std@@@Z 00400000     BulletObject.obj
 0002:fffb4000       __unwindtable$??0sentry@?$basic_ostream@DU?$char_traits@D@std@@@std@@QAE@AAV12@@Z 00400000     BulletObject.obj
 0002:fffb4000       __unwindtable$?_Alloc_sentinel_and_proxy@?$_Tree@V?$_Tmap_traits@V?$basic_string@DU?$char_traits@D@std@@V?$allocator@D@2@@std@@V?$shared_ptr@VRawImageData@@@2@U?$less@V?$basic_string@DU?$char_traits@D@std@@V?$allocator@D@2@@std@@@2@V?$allocator@U?$pair@$$CBV?$basic_string@DU?$char_traits@D@std@@V?$allocator@D@2@@std@@V?$shared_ptr@VRawImageData@@@2@@std@@@2@$0A@@std@@@std@@IAEXXZ 00400000     BulletObject.obj
 0002:fffb4000       __unwindtable$?_Alloc_sentinel_and_proxy@?$_Tree@V?$_Tmap_traits@V?$basic_string@DU?$char_traits@D@std@@V?$allocator@D@2@@std@@V?$weak_ptr@VRawImageData@@@2@U?$less@V?$basic_string@DU?$char_traits@D@std@@V?$allocator@D@2@@std@@@2@V?$allocator@U?$pair@$$CBV?$basic_string@DU?$char_traits@D@std@@V?$allocator@D@2@@std@@V?$weak_ptr@VRawImageData@@@2@@std@@@2@$0A@@std@@@std@@IAEXXZ 00400000     BulletObject.obj
 0002:fffb4000       __unwindtable$?_Orphan_range_locked@?$vector@VSimpleImage@@V?$allocator@VSimpleImage@@@std@@@std@@ABEXPAVSimpleImage@@0@Z 00400000     BulletObject.obj
 0002:fffb4000       __unwindtable$?checkCollision@MyCollisionDetector@@SA_NHHV?$vector@V?$vector@HV?$allocator@H@std@@@std@@V?$allocator@V?$vector@HV?$allocator@H@std@@@std@@@2@@std@@HH0@Z 00400000     BulletObject.obj
 0002:fffb4000       __unwindtable$?get@ImageManager@@SAPAV1@XZ 00400000     BulletObject.obj
 0002:fffb4000       __unwindtable$?getImagebyURL@ImageManager@@QAE?AVSimpleImage@@V?$basic_string@DU?$char_traits@D@std@@V?$allocator@D@2@@std@@_N1@Z 00400000     BulletObject.obj
 0002:fffb4000       __unwindtable$?loadAsNew@ImageManager@@QAE?AV?$shared_ptr@VRawImageData@@@std@@V?$basic_string@DU?$char_traits@D@std@@V?$allocator@D@2@@3@@Z 00400000     BulletObject.obj
 0002:fffb4000       __unwindtable$?loadImage@ImageManager@@SA?AVSimpleImage@@V?$basic_string@DU?$char_traits@D@std@@V?$allocator@D@2@@std@@_N@Z 00400000     BulletObject.obj
 0002:fffb4000       __unwindtable$?loadImage@RawImageData@@QAE_NV?$basic_string@DU?$char_traits@D@std@@V?$allocator@D@2@@std@@HHHHH_N@Z 00400000     BulletObject.obj
 0000:fff97000       _volmd                     00400000     BulletObject.obj
 0000:fff97000       _volmd                     00400000     BulletObject.obj
 0000:fff97000       _volmd                     00400000     BulletObject.obj
 0000:fff97000       _volmd                     00400000     BulletObject.obj
 0000:fff97000       _volmd                     00400000     BulletObject.obj
 0000:fff97000       _volmd                     00400000     BulletObject.obj
 0000:fff97000       _volmd                     00400000     BulletObject.obj
 0000:fff97000       _volmd                     00400000     BulletObject.obj
 0000:fff97000       _volmd                     00400000     BulletObject.obj
 0000:fff97000       _volmd                     00400000     BulletObject.obj
 0000:fff97000       _volmd                     00400000     BulletObject.obj
 0000:fff97000       _volmd                     00400000     BulletObject.obj
 0000:fff97000       _volmd                     00400000     BulletObject.obj
 0000:fff97000       _volmd                     00400000     BulletObject.obj
 0000:fff97000       _volmd                     00400000     BulletObject.obj
 0000:fff97000       _volmd                     00400000     BulletObject.obj
 0000:fff97000       _volmd                     00400000     BulletObject.obj
 0000:fff97000       _volmd                     00400000     BulletObject.obj
 0000:fff97000       _volmd                     00400000     BulletObject.obj
 0000:fff97000       _volmd                     00400000     BulletObject.obj
 0000:fff97000       _volmd                     00400000     BulletObject.obj
 0000:fff97000       _volmd                     00400000     BulletObject.obj
 0000:fff97000       _volmd                     00400000     BulletObject.obj
 0000:fff97000       _volmd                     00400000     BulletObject.obj
 0000:fff97000       _volmd                     00400000     BulletObject.obj
 0000:fff97000       _volmd                     00400000     BulletObject.obj
 0000:fff97000       _volmd                     00400000     BulletObject.obj
 0000:fff97000       _volmd                     00400000     BulletObject.obj
 0000:fff97000       _volmd                     00400000     BulletObject.obj
 0000:fff97000       _volmd                     00400000     BulletObject.obj
 0000:fff97000       _volmd                     00400000     BulletObject.obj
 0000:fff97000       _volmd                     00400000     BulletObject.obj
 0000:fff97000       _volmd                     00400000     BulletObject.obj
 0000:fff97000       _volmd                     00400000     BulletObject.obj
 0000:fff97000       _volmd                     00400000     BulletObject.obj
 0000:fff97000       _volmd                     00400000     BulletObject.obj
 0000:fff97000       _volmd                     00400000     BulletObject.obj
 0000:fff97000       _volmd                     00400000     BulletObject.obj
 0000:fff97000       _volmd                     00400000     BulletObject.obj
 0000:fff97000       _volmd                     00400000     BulletObject.obj
 0000:fff97000       _volmd                     00400000     BulletObject.obj
 0000:fff97000       _volmd                     00400000     BulletObject.obj
 0000:fff97000       _volmd                     00400000     BulletObject.obj
 0000:fff97000       _volmd                     00400000     BulletObject.obj
 0000:fff97000       _volmd                     00400000     BulletObject.obj
 0000:fff97000       _volmd                     00400000     BulletObject.obj
 0000:fff97000       _volmd                     00400000     BulletObject.obj
 0000:fff97000       _volmd                     00400000     BulletObject.obj
 0000:fff97000       _volmd                     00400000     BulletObject.obj
 0000:fff97000       _volmd                     00400000     BulletObject.obj
 0000:fff97000       _volmd                     00400000     BulletObject.obj
 0000:fff97000       _volmd                     00400000     BulletObject.obj
 0000:fff97000       _volmd                     00400000     BulletObject.obj
 0002:fffb4000       __catchsym$??$?6U?$char_traits@D@std@@@std@@YAAAV?$basic_ostream@DU?$char_traits@D@std@@@0@AAV10@PBD@Z$3 00400000     DisplayableObject.obj
 0002:fffb4000       __ehfuncinfo$??1_Sentry_base@?$basic_ostream@DU?$char_traits@D@std@@@std@@QAE@XZ 00400000     DisplayableObject.obj
 0002:fffb4000       __ehfuncinfo$??1sentry@?$basic_ostream@DU?$char_traits@D@std@@@std@@QAE@XZ 00400000     DisplayableObject.obj
 0001:fffff000       __ehhandler$??1_Sentry_base@?$basic_ostream@DU?$char_traits@D@std@@@std@@QAE@XZ 00400000 f   DisplayableObject.obj
 0001:fffff000       __ehhandler$??1sentry@?$basic_ostream@DU?$char_traits@D@std@@@std@@QAE@XZ 00400000 f   DisplayableObject.obj
 0001:fffff000       __unwindfunclet$??$?6U?$char_traits@D@std@@@std@@YAAAV?$basic_ostream@DU?$char_traits@D@std@@@0@AAV10@PBD@Z$2 00400000 f   DisplayableObject.obj
 0001:fffff000       __unwindfunclet$??0sentry@?$basic_ostream@DU?$char_traits@D@std@@@std@@QAE@AAV12@@Z$0 00400000 f   DisplayableObject.obj
 0002:fffb4000       __unwindtable$??0sentry@?$basic_ostream@DU?$char_traits@D@std@@@std@@QAE@AAV12@@Z 00400000     DisplayableObject.obj
 0000:fff97000       _volmd                     00400000     DisplayableObject.obj
 0000:fff97000       _volmd                     00400000     DisplayableObject.obj
 0000:fff97000       _volmd                     00400000     DisplayableObject.obj
 0000:fff97000       _volmd                     00400000     DisplayableObject.obj
 0002:fffb4000       __catchsym$??$?6U?$char_traits@D@std@@@std@@YAAAV?$basic_ostream@DU?$char_traits@D@std@@@0@AAV10@PBD@Z$3 00400000     DraggingDemo.obj
 0002:fffb4000       __catchsym$??$_Insert_string@DU?$char_traits@D@std@@I@std@@YAAAV?$basic_ostream@DU?$char_traits@D@std@@@0@AAV10@QBDI@Z$3 00400000     DraggingDemo.obj
 0002:fffb4000       __ehfuncinfo$??$_Deallocate@$07$0A@@std@@YAXPAXI@Z 00400000     DraggingDemo.obj
 0002:fffb4000       __ehfuncinfo$??$_Deallocate_plain@V?$allocator@U_Container_proxy@std@@@std@@@std@@YAXAAV?$allocator@U_Container_proxy@std@@@0@QAU_Container_proxy@0@@Z 00400000     DraggingDemo.obj
 0002:fffb4000       __ehfuncinfo$??$_Freenode0@V?$allocator@U?$_Tree_node@U?$pair@$$CBV?$basic_string@DU?$char_traits@D@std@@V?$allocator@D@2@@std@@V?$weak_ptr@VRawImageData@@@2@@std@@PAX@std@@@std@@@?$_Tree_node@U?$pair@$$CBV?$basic_string@DU?$char_traits@D@std@@V?$allocator@D@2@@std@@V?$weak_ptr@VRawImageData@@@2@@std@@PAX@std@@SAXAAV?$allocator@U?$_Tree_node@U?$pair@$$CBV?$basic_string@DU?$char_traits@D@std@@V?$allocator@D@2@@std@@V?$weak_ptr@VRawImageData@@@2@@std@@PAX@std@@@1@PAU01@@Z 00400000     DraggingDemo.obj
 0002:fffb4000       __ehfuncinfo$??$_Freenode@V?$allocator@U?$_Tree_node@U?$pair@$$CBV?$basic_string@DU?$char_traits@D@std@@V?$allocator@D@2@@std@@V?$weak_ptr@VRawImageData@@@2@@std@@PAX@std@@@std@@@?$_Tree_node@U?$pair@$$CBV?$basic_string@DU?$char_traits@D@std@@V?$allocator@D@2@@std@@V?$weak_ptr@VRawImageData@@@2@@std@@PAX@std@@SAXAAV?$allocator@U?$_Tree_node@U?$pair@$$CBV?$basic_string@DU?$char_traits@D@std@@V?$allocator@D@2@@std@@V?$weak_ptr@VRawImageData@@@2@@std@@PAX@std@@@1@PAU01@@Z 00400000     DraggingDemo.obj
 0002:fffb4000       __ehfuncinfo$??0?$basic_string@DU?$char_traits@D@std@@V?$allocator@D@2@@std@@QAE@$$QAV01@@Z 00400000     DraggingDemo.obj
 0002:fffb4000       __ehfuncinfo$??1?$_Alloc_construct_ptr@V?$allocator@U?$_Tree_node@U?$pair@$$CBV?$basic_string@DU?$char_traits@D@std@@V?$allocator@D@2@@std@@V?$shared_ptr@VRawImageData@@@2@@std@@PAX@std@@@std@@@std@@QAE@XZ 00400000     DraggingDemo.obj
 0002:fffb4000       __ehfuncinfo$??1?$_Alloc_construct_ptr@V?$allocator@U?$_Tree_node@U?$pair@$$CBV?$basic_string@DU?$char_traits@D@std@@V?$allocator@D@2@@std@@V?$weak_ptr@VRawImageData@@@2@@std@@PAX@std@@@std@@@std@@QAE@XZ 00400000     DraggingDemo.obj
 0002:fffb4000       __ehfuncinfo$??1?$_Tree_temp_node@V?$allocator@U?$_Tree_node@U?$pair@$$CBV?$basic_string@DU?$char_traits@D@std@@V?$allocator@D@2@@std@@V?$shared_ptr@VRawImageData@@@2@@std@@PAX@std@@@std@@@std@@QAE@XZ 00400000     DraggingDemo.obj
 0002:fffb4000       __ehfuncinfo$??1?$_Tree_temp_node@V?$allocator@U?$_Tree_node@U?$pair@$$CBV?$basic_string@DU?$char_traits@D@std@@V?$allocator@D@2@@std@@V?$weak_ptr@VRawImageData@@@2@@std@@PAX@std@@@std@@@std@@QAE@XZ 00400000     DraggingDemo.obj
 0002:fffb4000       __ehfuncinfo$??1RawImageData@@QAE@XZ 00400000     DraggingDemo.obj
 0002:fffb4000       __ehfuncinfo$??1_Sentry_base@?$basic_ostream@DU?$char_traits@D@std@@@std@@QAE@XZ 00400000     DraggingDemo.obj
 0002:fffb4000       __ehfuncinfo$??1sentry@?$basic_ostream@DU?$char_traits@D@std@@@std@@QAE@XZ 00400000     DraggingDemo.obj
 0002:fffb4000       __ehfuncinfo$?_Take_contents@?$basic_string@DU?$char_traits@D@std@@V?$allocator@D@2@@std@@AAEXAAV12@@Z 00400000     DraggingDemo.obj
 0002:fffb4000       __ehfuncinfo$?_Tidy_deallocate@?$basic_string@DU?$char_traits@D@std@@V?$allocator@D@2@@std@@AAEXXZ 00400000     DraggingDemo.obj
 0002:fffb4000       __ehfuncinfo$?getImagePtrbyURL@ImageManager@@QAE?AV?$shared_ptr@VRawImageData@@@std@@V?$basic_string@DU?$char_traits@D@std@@V?$allocator@D@2@@3@_N1@Z 00400000     DraggingDemo.obj
 0001:fffff000       __ehhandler$??$_Deallocate@$07$0A@@std@@YAXPAXI@Z 00400000 f   DraggingDemo.obj
 0001:fffff000       __ehhandler$??$_Deallocate_plain@V?$allocator@U_Container_proxy@std@@@std@@@std@@YAXAAV?$allocator@U_Container_proxy@std@@@0@QAU_Container_proxy@0@@Z 00400000 f   DraggingDemo.obj
 0001:fffff000       __ehhandler$??$_Freenode0@V?$allocator@U?$_Tree_node@U?$pair@$$CBV?$basic_string@DU?$char_traits@D@std@@V?$allocator@D@2@@std@@V?$weak_ptr@VRawImageData@@@2@@std@@PAX@std@@@std@@@?$_Tree_node@U?$pair@$$CBV?$basic_string@DU?$char_traits@D@std@@V?$allocator@D@2@@std@@V?$weak_ptr@VRawImageData@@@2@@std@@PAX@std@@SAXAAV?$allocator@U?$_Tree_node@U?$pair@$$CBV?$basic_string@DU?$char_traits@D@std@@V?$allocator@D@2@@std@@V?$weak_ptr@VRawImageData@@@2@@std@@PAX@std@@@1@PAU01@@Z 00400000 f   DraggingDemo.obj
 0001:fffff000       __ehhandler$??$_Freenode@V?$allocator@U?$_Tree_node@U?$pair@$$CBV?$basic_string@DU?$char_traits@D@std@@V?$allocator@D@2@@std@@V?$weak_ptr@VRawImageData@@@2@@std@@PAX@std@@@std@@@?$_Tree_node@U?$pair@$$CBV?$basic_string@DU?$char_traits@D@std@@V?$allocator@D@2@@std@@V?$weak_ptr@VRawImageData@@@2@@std@@PAX@std@@SAXAAV?$allocator@U?$_Tree_node@U?$pair@$$CBV?$basic_string@DU?$char_traits@D@std@@V?$allocator@D@2@@std@@V?$weak_ptr@VRawImageData@@@2@@std@@PAX@std@@@1@PAU01@@Z 00400000 f   DraggingDemo.obj
 0001:fffff000       __ehhandler$??0?$basic_string@DU?$char_traits@D@std@@V?$allocator@D@2@@std@@QAE@$$QAV01@@Z 00400000 f   DraggingDemo.obj
 0001:fffff000       __ehhandler$??1?$_Alloc_construct_ptr@V?$allocator@U?$_Tree_node@U?$pair@$$CBV?$basic_string@DU?$char_traits@D@std@@V?$allocator@D@2@@std@@V?$shared_ptr@VRawImageData@@@2@@std@@PAX@std@@@std@@@std@@QAE@XZ 00400000 f   DraggingDemo.obj
 0001:fffff000       __ehhandler$??1?$_Alloc_construct_ptr@V?$allocator@U?$_Tree_node@U?$pair@$$CBV?$basic_string@DU?$char_traits@D@std@@V?$allocator@D@2@@std@@V?$weak_ptr@VRawImageData@@@2@@std@@PAX@std@@@std@@@std@@QAE@XZ 00400000 f   DraggingDemo.obj
 0001:fffff000       __ehhandler$??1?$_Tree_temp_node@V?$allocator@U?$_Tree_node@U?$pair@$$CBV?$basic_string@DU?$char_traits@D@std@@V?$allocator@D@2@@std@@V?$shared_ptr@VRawImageData@@@2@@std@@PAX@std@@@std@@@std@@QAE@XZ 00400000 f   DraggingDemo.obj
 0001:fffff000       __ehhandler$??1?$_Tree_temp_node@V?$allocator@U?$_Tree_node@U?$pair@$$CBV?$basic_string@DU?$char_traits@D@std@@V?$allocator@D@2@@std@@V?$weak_ptr@VRawImageData@@@2@@std@@PAX@std@@@std@@@std@@QAE@XZ 00400000 f   DraggingDemo.obj
 0001:fffff000       __ehhandler$??1RawImageData@@QAE@XZ 00400000 f   DraggingDemo.obj
 0001:fffff000       __ehhandler$??1_Sentry_base@?$basic_ostream@DU?$char_traits@D@std@@@std@@QAE@XZ 00400000 f   DraggingDemo.obj
 0001:fffff000       __ehhandler$??1sentry@?$basic_ostream@DU?$char_traits@D@std@@@std@@QAE@XZ 00400000 f   DraggingDemo.obj
 0001:fffff000       __ehhandler$?_Take_contents@?$basic_string@DU?$char_traits@D@std@@V?$allocator@D@2@@std@@AAEXAAV12@@Z 00400000 f   DraggingDemo.obj
 0001:fffff000       __ehhandler$?_Tidy_deallocate@?$basic_string@DU?$char_traits@D@std@@V?$allocator@D@2@@std@@AAEXXZ 00400000 f   DraggingDemo.obj
 0001:fffff000       __unwindfunclet$??$?0U?$pair@V?$basic_string@DU?$char_traits@D@std@@V?$allocator@D@2@@std@@V?$shared_ptr@VRawImageData@@@2@@std@@@?$_Tree_temp_node@V?$allocator@U?$_Tree_node@U?$pair@$$CBV?$basic_string@DU?$char_traits@D@std@@V?$allocator@D@2@@std@@V?$shared_ptr@VRawImageData@@@2@@std@@PAX@std@@@std@@@std@@QAE@AAV?$allocator@U?$_Tree_node@U?$pair@$$CBV?$basic_string@DU?$char_traits@D@std@@V?$allocator@D@2@@std@@V?$shared_ptr@VRawImageData@@@2@@std@@PAX@std@@@1@PAU?$_Tree_node@U?$pair@$$CBV?$basic_string@DU?$char_traits@D@std@@V?$allocator@D@2@@std@@V?$shared_ptr@VRawImageData@@@2@@std@@PAX@1@$$QAU?$pair@V?$basic_string@DU?$char_traits@D@std@@V?$allocator@D@2@@std@@V?$shared_ptr@VRawImageData@@@2@@1@@Z$0 00400000 f   DraggingDemo.obj
 0001:fffff000       __unwindfunclet$??$?0U?$pair@V?$basic_string@DU?$char_traits@D@std@@V?$allocator@D@2@@std@@V?$weak_ptr@VRawImageData@@@2@@std@@@?$_Tree_temp_node@V?$allocator@U?$_Tree_node@U?$pair@$$CBV?$basic_string@DU?$char_traits@D@std@@V?$allocator@D@2@@std@@V?$weak_ptr@VRawImageData@@@2@@std@@PAX@std@@@std@@@std@@QAE@AAV?$allocator@U?$_Tree_node@U?$pair@$$CBV?$basic_string@DU?$char_traits@D@std@@V?$allocator@D@2@@std@@V?$weak_ptr@VRawImageData@@@2@@std@@PAX@std@@@1@PAU?$_Tree_node@U?$pair@$$CBV?$basic_string@DU?$char_traits@D@std@@V?$allocator@D@2@@std@@V?$weak_ptr@VRawImageData@@@2@@std@@PAX@1@$$QAU?$pair@V?$basic_string@DU?$char_traits@D@std@@V?$allocator@D@2@@std@@V?$weak_ptr@VRawImageData@@@2@@1@@Z$0 00400000 f   DraggingDemo.obj
 0001:fffff000       __unwindfunclet$??$?0VRawImageData@@$0A@@?$shared_ptr@VRawImageData@@@std@@QAE@PAVRawImageData@@@Z$0 00400000 f   DraggingDemo.obj
 0001:fffff000       __unwindfunclet$??$?6U?$char_traits@D@std@@@std@@YAAAV?$basic_ostream@DU?$char_traits@D@std@@@0@AAV10@PBD@Z$2 00400000 f   DraggingDemo.obj
 0001:fffff000       __unwindfunclet$??$_Insert_string@DU?$char_traits@D@std@@I@std@@YAAAV?$basic_ostream@DU?$char_traits@D@std@@@0@AAV10@QBDI@Z$2 00400000 f   DraggingDemo.obj
 0001:fffff000       __unwindfunclet$??0?$_Tree_temp_node_alloc@V?$allocator@U?$_Tree_node@U?$pair@$$CBV?$basic_string@DU?$char_traits@D@std@@V?$allocator@D@2@@std@@V?$shared_ptr@VRawImageData@@@2@@std@@PAX@std@@@std@@@std@@QAE@AAV?$allocator@U?$_Tree_node@U?$pair@$$CBV?$basic_string@DU?$char_traits@D@std@@V?$allocator@D@2@@std@@V?$shared_ptr@VRawImageData@@@2@@std@@PAX@std@@@1@@Z$0 00400000 f   DraggingDemo.obj
 0001:fffff000       __unwindfunclet$??0?$_Tree_temp_node_alloc@V?$allocator@U?$_Tree_node@U?$pair@$$CBV?$basic_string@DU?$char_traits@D@std@@V?$allocator@D@2@@std@@V?$weak_ptr@VRawImageData@@@2@@std@@PAX@std@@@std@@@std@@QAE@AAV?$allocator@U?$_Tree_node@U?$pair@$$CBV?$basic_string@DU?$char_traits@D@std@@V?$allocator@D@2@@std@@V?$weak_ptr@VRawImageData@@@2@@std@@PAX@std@@@1@@Z$0 00400000 f   DraggingDemo.obj
 0001:fffff000       __unwindfunclet$??0?$basic_string@DU?$char_traits@D@std@@V?$allocator@D@2@@std@@QAE@ABV01@@Z$0 00400000 f   DraggingDemo.obj
 0001:fffff000       __unwindfunclet$??0?$basic_string@DU?$char_traits@D@std@@V?$allocator@D@2@@std@@QAE@QBD@Z$0 00400000 f   DraggingDemo.obj
 0001:fffff000       __unwindfunclet$??0ImageManager@@QAE@XZ$0 00400000 f   DraggingDemo.obj
 0001:fffff000       __unwindfunclet$??0RawImageData@@QAE@V?$basic_string@DU?$char_traits@D@std@@V?$allocator@D@2@@std@@@Z$0 00400000 f   DraggingDemo.obj
 0001:fffff000       __unwindfunclet$??0sentry@?$basic_ostream@DU?$char_traits@D@std@@@std@@QAE@AAV12@@Z$0 00400000 f   DraggingDemo.obj
 0001:fffff000       __unwindfunclet$?_Alloc_sentinel_and_proxy@?$_Tree@V?$_Tmap_traits@V?$basic_string@DU?$char_traits@D@std@@V?$allocator@D@2@@std@@V?$shared_ptr@VRawImageData@@@2@U?$less@V?$basic_string@DU?$char_traits@D@std@@V?$allocator@D@2@@std@@@2@V?$allocator@U?$pair@$$CBV?$basic_string@DU?$char_traits@D@std@@V?$allocator@D@2@@std@@V?$shared_ptr@VRawImageData@@@2@@std@@@2@$0A@@std@@@std@@IAEXXZ$0 00400000 f   DraggingDemo.obj
 0001:fffff000       __unwindfunclet$?_Alloc_sentinel_and_proxy@?$_Tree@V?$_Tmap_traits@V?$basic_string@DU?$char_traits@D@std@@V?$allocator@D@2@@std@@V?$weak_ptr@VRawImageData@@@2@U?$less@V?$basic_string@DU?$char_traits@D@std@@V?$allocator@D@2@@std@@@2@V?$allocator@U?$pair@$$CBV?$basic_string@DU?$char_traits@D@std@@V?$allocator@D@2@@std@@V?$weak_ptr@VRawImageData@@@2@@std@@@2@$0A@@std@@@std@@IAEXXZ$0 00400000 f   DraggingDemo.obj
 0001:fffff000       __unwindfunclet$?get@ImageManager@@SAPAV1@XZ$0 00400000 f   DraggingDemo.obj
 0001:fffff000       __unwindfunclet$?getImagePtrbyURL@ImageManager@@QAE?AV?$shared_ptr@VRawImageData@@@std@@V?$basic_string@DU?$char_traits@D@std@@V?$allocator@D@2@@3@_N1@Z$0 00400000 f   DraggingDemo.obj
 0001:fffff000       __unwindfunclet$?getImagebyURL@ImageManager@@QAE?AVSimpleImage@@V?$basic_string@DU?$char_traits@D@std@@V?$allocator@D@2@@std@@_N1@Z$0 00400000 f   DraggingDemo.obj
 0001:fffff000       __unwindfunclet$?loadAsNew@ImageManager@@QAE?AV?$shared_ptr@VRawImageData@@@std@@V?$basic_string@DU?$char_traits@D@std@@V?$allocator@D@2@@3@@Z$0 00400000 f   DraggingDemo.obj
 0001:fffff000       __unwindfunclet$?loadImage@RawImageData@@QAE_NV?$basic_string@DU?$char_traits@D@std@@V?$allocator@D@2@@std@@HHHHH_N@Z$0 00400000 f   DraggingDemo.obj
 0002:fffb4000       __unwindtable$??$?0U?$pair@V?$basic_string@DU?$char_traits@D@std@@V?$allocator@D@2@@std@@V?$shared_ptr@VRawImageData@@@2@@std@@@?$_Tree_temp_node@V?$allocator@U?$_Tree_node@U?$pair@$$CBV?$basic_string@DU?$char_traits@D@std@@V?$allocator@D@2@@std@@V?$shared_ptr@VRawImageData@@@2@@std@@PAX@std@@@std@@@std@@QAE@AAV?$allocator@U?$_Tree_node@U?$pair@$$CBV?$basic_string@DU?$char_traits@D@std@@V?$allocator@D@2@@std@@V?$shared_ptr@VRawImageData@@@2@@std@@PAX@std@@@1@PAU?$_Tree_node@U?$pair@$$CBV?$basic_string@DU?$char_traits@D@std@@V?$allocator@D@2@@std@@V?$shared_ptr@VRawImageData@@@2@@std@@PAX@1@$$QAU?$pair@V?$basic_string@DU?$char_traits@D@std@@V?$allocator@D@2@@std@@V?$shared_ptr@VRawImageData@@@2@@1@@Z 00400000     DraggingDemo.obj
 0002:fffb4000       __unwindtable$??$?0U?$pair@V?$basic_string@DU?$char_traits@D@std@@V?$allocator@D@2@@std@@V?$weak_ptr@VRawImageData@@@2@@std@@@?$_Tree_temp_node@V?$allocator@U?$_Tree_node@U?$pair@$$CBV?$basic_string@DU?$char_traits@D@std@@V?$allocator@D@2@@std@@V?$weak_ptr@VRawImageData@@@2@@std@@PAX@std@@@std@@@std@@QAE@AAV?$allocator@U?$_Tree_node@U?$pair@$$CBV?$basic_string@DU?$char_traits@D@std@@V?$allocator@D@2@@std@@V?$weak_ptr@VRawImageData@@@2@@std@@PAX@std@@@1@PAU?$_Tree_node@U?$pair@$$CBV?$basic_string@DU?$char_traits@D@std@@V?$allocator@D@2@@std@@V?$weak_ptr@VRawImageData@@@2@@std@@PAX@1@$$QAU?$pair@V?$basic_string@DU?$char_traits@D@std@@V?$allocator@D@2@@std@@V?$weak_ptr@VRawImageData@@@2@@1@@Z 00400000     DraggingDemo.obj
 0002:fffb4000       __unwindtable$??$?0VRawImageData@@$0A@@?$shared_ptr@VRawImageData@@@std@@QAE@PAVRawImageData@@@Z 00400000     DraggingDemo.obj
 0002:fffb4000       __unwindtable$??0?$_Tree_temp_node_alloc@V?$allocator@U?$_Tree_node@U?$pair@$$CBV?$basic_string@DU?$char_traits@D@std@@V?$allocator@D@2@@std@@V?$shared_ptr@VRawImageData@@@2@@std@@PAX@std@@@std@@@std@@QAE@AAV?$allocator@U?$_Tree_node@U?$pair@$$CBV?$basic_string@DU?$char_traits@D@std@@V?$allocator@D@2@@std@@V?$shared_ptr@VRawImageData@@@2@@std@@PAX@std@@@1@@Z 00400000     DraggingDemo.obj
 0002:fffb4000       __unwindtable$??0?$_Tree_temp_node_alloc@V?$allocator@U?$_Tree_node@U?$pair@$$CBV?$basic_string@DU?$char_traits@D@std@@V?$allocator@D@2@@std@@V?$weak_ptr@VRawImageData@@@2@@std@@PAX@std@@@std@@@std@@QAE@AAV?$allocator@U?$_Tree_node@U?$pair@$$CBV?$basic_string@DU?$char_traits@D@std@@V?$allocator@D@2@@std@@V?$weak_ptr@VRawImageData@@@2@@std@@PAX@std@@@1@@Z 00400000     DraggingDemo.obj
 0002:fffb4000       __unwindtable$??0?$basic_string@DU?$char_traits@D@std@@V?$allocator@D@2@@std@@QAE@ABV01@@Z 00400000     DraggingDemo.obj
 0002:fffb4000       __unwindtable$??0?$basic_string@DU?$char_traits@D@std@@V?$allocator@D@2@@std@@QAE@QBD@Z 00400000     DraggingDemo.obj
 0002:fffb4000       __unwindtable$??0ImageManager@@QAE@XZ 00400000     DraggingDemo.obj
 0002:fffb4000       __unwindtable$??0RawImageData@@QAE@V?$basic_string@DU?$char_traits@D@std@@V?$allocator@D@2@@std@@@Z 00400000     DraggingDemo.obj
 0002:fffb4000       __unwindtable$??0sentry@?$basic_ostream@DU?$char_traits@D@std@@@std@@QAE@AAV12@@Z 00400000     DraggingDemo.obj
 0002:fffb4000       __unwindtable$?_Alloc_sentinel_and_proxy@?$_Tree@V?$_Tmap_traits@V?$basic_string@DU?$char_traits@D@std@@V?$allocator@D@2@@std@@V?$shared_ptr@VRawImageData@@@2@U?$less@V?$basic_string@DU?$char_traits@D@std@@V?$allocator@D@2@@std@@@2@V?$allocator@U?$pair@$$CBV?$basic_string@DU?$char_traits@D@std@@V?$allocator@D@2@@std@@V?$shared_ptr@VRawImageData@@@2@@std@@@2@$0A@@std@@@std@@IAEXXZ 00400000     DraggingDemo.obj
 0002:fffb4000       __unwindtable$?_Alloc_sentinel_and_proxy@?$_Tree@V?$_Tmap_traits@V?$basic_string@DU?$char_traits@D@std@@V?$allocator@D@2@@std@@V?$weak_ptr@VRawImageData@@@2@U?$less@V?$basic_string@DU?$char_traits@D@std@@V?$allocator@D@2@@std@@@2@V?$allocator@U?$pair@$$CBV?$basic_string@DU?$char_traits@D@std@@V?$allocator@D@2@@std@@V?$weak_ptr@VRawImageData@@@2@@std@@@2@$0A@@std@@@std@@IAEXXZ 00400000     DraggingDemo.obj
 0002:fffb4000       __unwindtable$?get@ImageManager@@SAPAV1@XZ 00400000     DraggingDemo.obj
 0002:fffb4000       __unwindtable$?getImagebyURL@ImageManager@@QAE?AVSimpleImage@@V?$basic_string@DU?$char_traits@D@std@@V?$allocator@D@2@@std@@_N1@Z 00400000     DraggingDemo.obj
 0002:fffb4000       __unwindtable$?loadAsNew@ImageManager@@QAE?AV?$shared_ptr@VRawImageData@@@std@@V?$basic_string@DU?$char_traits@D@std@@V?$allocator@D@2@@3@@Z 00400000     DraggingDemo.obj
 0002:fffb4000       __unwindtable$?loadImage@RawImageData@@QAE_NV?$basic_string@DU?$char_traits@D@std@@V?$allocator@D@2@@std@@HHHHH_N@Z 00400000     DraggingDemo.obj
 0000:fff97000       _volmd                     00400000     DraggingDemo.obj
 0000:fff97000       _volmd                     00400000     DraggingDemo.obj
 0000:fff97000       _volmd                     00400000     DraggingDemo.obj
 0000:fff97000       _volmd                     00400000     DraggingDemo.obj
 0000:fff97000       _volmd                     00400000     DraggingDemo.obj
 0000:fff97000       _volmd                     00400000     DraggingDemo.obj
 0000:fff97000       _volmd                     00400000     DraggingDemo.obj
 0000:fff97000       _volmd                     00400000     DraggingDemo.obj
 0000:fff97000       _volmd                     00400000     DraggingDemo.obj
 0000:fff97000       _volmd                     00400000     DraggingDemo.obj
 0000:fff97000       _volmd                     00400000     DraggingDemo.obj
 0000:fff97000       _volmd                     00400000     DraggingDemo.obj
 0000:fff97000       _volmd                     00400000     DraggingDemo.obj
 0000:fff97000       _volmd                     00400000     DraggingDemo.obj
 0000:fff97000       _volmd                     00400000     DraggingDemo.obj
 0000:fff97000       _volmd                     00400000     DraggingDemo.obj
 0000:fff97000       _volmd                     00400000     DraggingDemo.obj
 0000:fff97000       _volmd                     00400000     DraggingDemo.obj
 0000:fff97000       _volmd                     00400000     DraggingDemo.obj
 0000:fff97000       _volmd                     00400000     DraggingDemo.obj
 0000:fff97000       _volmd                     00400000     DraggingDemo.obj
 0000:fff97000       _volmd                     00400000     DraggingDemo.obj
 0000:fff97000       _volmd                     00400000     DraggingDemo.obj
 0000:fff97000       _volmd                     00400000     DraggingDemo.obj
 0000:fff97000       _volmd                     00400000     DraggingDemo.obj
 0000:fff97000       _volmd                     00400000     DraggingDemo.obj
 0000:fff97000       _volmd                     00400000     DraggingDemo.obj
 0000:fff97000       _volmd                     00400000     DraggingDemo.obj
 0000:fff97000       _volmd                     00400000     DraggingDemo.obj
 0000:fff97000       _volmd                     00400000     DraggingDemo.obj
 0000:fff97000       _volmd                     00400000     DraggingDemo.obj
 0000:fff97000       _volmd                     00400000     DraggingDemo.obj
 0000:fff97000       _volmd                     00400000     DraggingDemo.obj
 0000:fff97000       _volmd                     00400000     DraggingDemo.obj
 0000:fff97000       _volmd                     00400000     DraggingDemo.obj
 0000:fff97000       _volmd                     00400000     DraggingDemo.obj
 0000:fff97000       _volmd                     00400000     DraggingDemo.obj
 0000:fff97000       _volmd                     00400000     DraggingDemo.obj
 0000:fff97000       _volmd                     00400000     DraggingDemo.obj
 0000:fff97000       _volmd                     00400000     DraggingDemo.obj
 0000:fff97000       _volmd                     00400000     DraggingDemo.obj
 0000:fff97000       _volmd                     00400000     DraggingDemo.obj
 0000:fff97000       _volmd                     00400000     DraggingDemo.obj
 0000:fff97000       _volmd                     00400000     DraggingDemo.obj
 0002:fffb4000       __catchsym$??$?6U?$char_traits@D@std@@@std@@YAAAV?$basic_ostream@DU?$char_traits@D@std@@@0@AAV10@PBD@Z$3 00400000     DrawingSurface.obj
 0002:fffb4000       __ehfuncinfo$??1_Sentry_base@?$basic_ostream@DU?$char_traits@D@std@@@std@@QAE@XZ 00400000     DrawingSurface.obj
 0002:fffb4000       __ehfuncinfo$??1sentry@?$basic_ostream@DU?$char_traits@D@std@@@std@@QAE@XZ 00400000     DrawingSurface.obj
 0001:fffff000       __ehhandler$??1_Sentry_base@?$basic_ostream@DU?$char_traits@D@std@@@std@@QAE@XZ 00400000 f   DrawingSurface.obj
 0001:fffff000       __ehhandler$??1sentry@?$basic_ostream@DU?$char_traits@D@std@@@std@@QAE@XZ 00400000 f   DrawingSurface.obj
 0001:fffff000       __unwindfunclet$??$?6U?$char_traits@D@std@@@std@@YAAAV?$basic_ostream@DU?$char_traits@D@std@@@0@AAV10@PBD@Z$2 00400000 f   DrawingSurface.obj
 0001:fffff000       __unwindfunclet$??0sentry@?$basic_ostream@DU?$char_traits@D@std@@@std@@QAE@AAV12@@Z$0 00400000 f   DrawingSurface.obj
 0002:fffb4000       __unwindtable$??0sentry@?$basic_ostream@DU?$char_traits@D@std@@@std@@QAE@AAV12@@Z 00400000     DrawingSurface.obj
 0000:fff97000       _volmd                     00400000     DrawingSurface.obj
 0000:fff97000       _volmd                     00400000     DrawingSurface.obj
 0000:fff97000       _volmd                     00400000     DrawingSurface.obj
 0000:fff97000       _volmd                     00400000     DrawingSurface.obj
 0000:fff97000       _volmd                     00400000     DrawingSurface.obj
 0002:fffb4000       __catchsym$??$?6U?$char_traits@D@std@@@std@@YAAAV?$basic_ostream@DU?$char_traits@D@std@@@0@AAV10@PBD@Z$3 00400000     EliteEnemyObject.obj
 0002:fffb4000       __catchsym$??$_Insert_string@DU?$char_traits@D@std@@I@std@@YAAAV?$basic_ostream@DU?$char_traits@D@std@@@0@AAV10@QBDI@Z$3 00400000     EliteEnemyObject.obj
 0002:fffb4000       __catchsym$??$_Resize_reallocate@U_Value_init_tag@std@@@?$vector@VSimpleImage@@V?$allocator@VSimpleImage@@@std@@@std@@AAEXIABU_Value_init_tag@1@@Z$2 00400000     EliteEnemyObject.obj
 0002:fffb4000       __ehfuncinfo$??$_Deallocate@$07$0A@@std@@YAXPAXI@Z 00400000     EliteEnemyObject.obj
 0002:fffb4000       __ehfuncinfo$??$_Deallocate_plain@V?$allocator@U_Container_proxy@std@@@std@@@std@@YAXAAV?$allocator@U_Container_proxy@std@@@0@QAU_Container_proxy@0@@Z 00400000     EliteEnemyObject.obj
 0002:fffb4000       __ehfuncinfo$??$_Destroy_range@V?$allocator@VSimpleImage@@@std@@@std@@YAXPAVSimpleImage@@QAV1@AAV?$allocator@VSimpleImage@@@0@@Z 00400000     EliteEnemyObject.obj
 0002:fffb4000       __ehfuncinfo$??$_Freenode0@V?$allocator@U?$_Tree_node@U?$pair@$$CBV?$basic_string@DU?$char_traits@D@std@@V?$allocator@D@2@@std@@V?$weak_ptr@VRawImageData@@@2@@std@@PAX@std@@@std@@@?$_Tree_node@U?$pair@$$CBV?$basic_string@DU?$char_traits@D@std@@V?$allocator@D@2@@std@@V?$weak_ptr@VRawImageData@@@2@@std@@PAX@std@@SAXAAV?$allocator@U?$_Tree_node@U?$pair@$$CBV?$basic_string@DU?$char_traits@D@std@@V?$allocator@D@2@@std@@V?$weak_ptr@VRawImageData@@@2@@std@@PAX@std@@@1@PAU01@@Z 00400000     EliteEnemyObject.obj
 0002:fffb4000       __ehfuncinfo$??$_Freenode@V?$allocator@U?$_Tree_node@U?$pair@$$CBV?$basic_string@DU?$char_traits@D@std@@V?$allocator@D@2@@std@@V?$weak_ptr@VRawImageData@@@2@@std@@PAX@std@@@std@@@?$_Tree_node@U?$pair@$$CBV?$basic_string@DU?$char_traits@D@std@@V?$allocator@D@2@@std@@V?$weak_ptr@VRawImageData@@@2@@std@@PAX@std@@SAXAAV?$allocator@U?$_Tree_node@U?$pair@$$CBV?$basic_string@DU?$char_traits@D@std@@V?$allocator@D@2@@std@@V?$weak_ptr@VRawImageData@@@2@@std@@PAX@std@@@1@PAU01@@Z 00400000     EliteEnemyObject.obj
 0002:fffb4000       __ehfuncinfo$??0?$basic_string@DU?$char_traits@D@std@@V?$allocator@D@2@@std@@QAE@$$QAV01@@Z 00400000     EliteEnemyObject.obj
 0002:fffb4000       __ehfuncinfo$??1?$_Alloc_construct_ptr@V?$allocator@U?$_Tree_node@U?$pair@$$CBV?$basic_string@DU?$char_traits@D@std@@V?$allocator@D@2@@std@@V?$shared_ptr@VRawImageData@@@2@@std@@PAX@std@@@std@@@std@@QAE@XZ 00400000     EliteEnemyObject.obj
 0002:fffb4000       __ehfuncinfo$??1?$_Alloc_construct_ptr@V?$allocator@U?$_Tree_node@U?$pair@$$CBV?$basic_string@DU?$char_traits@D@std@@V?$allocator@D@2@@std@@V?$weak_ptr@VRawImageData@@@2@@std@@PAX@std@@@std@@@std@@QAE@XZ 00400000     EliteEnemyObject.obj
 0002:fffb4000       __ehfuncinfo$??1?$_Tree_temp_node@V?$allocator@U?$_Tree_node@U?$pair@$$CBV?$basic_string@DU?$char_traits@D@std@@V?$allocator@D@2@@std@@V?$shared_ptr@VRawImageData@@@2@@std@@PAX@std@@@std@@@std@@QAE@XZ 00400000     EliteEnemyObject.obj
 0002:fffb4000       __ehfuncinfo$??1?$_Tree_temp_node@V?$allocator@U?$_Tree_node@U?$pair@$$CBV?$basic_string@DU?$char_traits@D@std@@V?$allocator@D@2@@std@@V?$weak_ptr@VRawImageData@@@2@@std@@PAX@std@@@std@@@std@@QAE@XZ 00400000     EliteEnemyObject.obj
 0002:fffb4000       __ehfuncinfo$??1RawImageData@@QAE@XZ 00400000     EliteEnemyObject.obj
 0002:fffb4000       __ehfuncinfo$??1_Sentry_base@?$basic_ostream@DU?$char_traits@D@std@@@std@@QAE@XZ 00400000     EliteEnemyObject.obj
 0002:fffb4000       __ehfuncinfo$??1sentry@?$basic_ostream@DU?$char_traits@D@std@@@std@@QAE@XZ 00400000     EliteEnemyObject.obj
 0002:fffb4000       __ehfuncinfo$?_Take_contents@?$basic_string@DU?$char_traits@D@std@@V?$allocator@D@2@@std@@AAEXAAV12@@Z 00400000     EliteEnemyObject.obj
 0002:fffb4000       __ehfuncinfo$?_Tidy_deallocate@?$basic_string@DU?$char_traits@D@std@@V?$allocator@D@2@@std@@AAEXXZ 00400000     EliteEnemyObject.obj
 0002:fffb4000       __ehfuncinfo$?getImagePtrbyURL@ImageManager@@QAE?AV?$shared_ptr@VRawImageData@@@std@@V?$basic_string@DU?$char_traits@D@std@@V?$allocator@D@2@@3@_N1@Z 00400000     EliteEnemyObject.obj
 0001:fffff000       __ehhandler$??$_Deallocate@$07$0A@@std@@YAXPAXI@Z 00400000 f   EliteEnemyObject.obj
 0001:fffff000       __ehhandler$??$_Deallocate_plain@V?$allocator@U_Container_proxy@std@@@std@@@std@@YAXAAV?$allocator@U_Container_proxy@std@@@0@QAU_Container_proxy@0@@Z 00400000 f   EliteEnemyObject.obj
 0001:fffff000       __ehhandler$??$_Destroy_range@V?$allocator@VSimpleImage@@@std@@@std@@YAXPAVSimpleImage@@QAV1@AAV?$allocator@VSimpleImage@@@0@@Z 00400000 f   EliteEnemyObject.obj
 0001:fffff000       __ehhandler$??$_Freenode0@V?$allocator@U?$_Tree_node@U?$pair@$$CBV?$basic_string@DU?$char_traits@D@std@@V?$allocator@D@2@@std@@V?$weak_ptr@VRawImageData@@@2@@std@@PAX@std@@@std@@@?$_Tree_node@U?$pair@$$CBV?$basic_string@DU?$char_traits@D@std@@V?$allocator@D@2@@std@@V?$weak_ptr@VRawImageData@@@2@@std@@PAX@std@@SAXAAV?$allocator@U?$_Tree_node@U?$pair@$$CBV?$basic_string@DU?$char_traits@D@std@@V?$allocator@D@2@@std@@V?$weak_ptr@VRawImageData@@@2@@std@@PAX@std@@@1@PAU01@@Z 00400000 f   EliteEnemyObject.obj
 0001:fffff000       __ehhandler$??$_Freenode@V?$allocator@U?$_Tree_node@U?$pair@$$CBV?$basic_string@DU?$char_traits@D@std@@V?$allocator@D@2@@std@@V?$weak_ptr@VRawImageData@@@2@@std@@PAX@std@@@std@@@?$_Tree_node@U?$pair@$$CBV?$basic_string@DU?$char_traits@D@std@@V?$allocator@D@2@@std@@V?$weak_ptr@VRawImageData@@@2@@std@@PAX@std@@SAXAAV?$allocator@U?$_Tree_node@U?$pair@$$CBV?$basic_string@DU?$char_traits@D@std@@V?$allocator@D@2@@std@@V?$weak_ptr@VRawImageData@@@2@@std@@PAX@std@@@1@PAU01@@Z 00400000 f   EliteEnemyObject.obj
 0001:fffff000       __ehhandler$??$_Resize_reallocate@U_Value_init_tag@std@@@?$vector@VSimpleImage@@V?$allocator@VSimpleImage@@@std@@@std@@AAEXIABU_Value_init_tag@1@@Z 00400000 f   EliteEnemyObject.obj
 0001:fffff000       __ehhandler$??0?$basic_string@DU?$char_traits@D@std@@V?$allocator@D@2@@std@@QAE@$$QAV01@@Z 00400000 f   EliteEnemyObject.obj
 0001:fffff000       __ehhandler$??1?$_Alloc_construct_ptr@V?$allocator@U?$_Tree_node@U?$pair@$$CBV?$basic_string@DU?$char_traits@D@std@@V?$allocator@D@2@@std@@V?$shared_ptr@VRawImageData@@@2@@std@@PAX@std@@@std@@@std@@QAE@XZ 00400000 f   EliteEnemyObject.obj
 0001:fffff000       __ehhandler$??1?$_Alloc_construct_ptr@V?$allocator@U?$_Tree_node@U?$pair@$$CBV?$basic_string@DU?$char_traits@D@std@@V?$allocator@D@2@@std@@V?$weak_ptr@VRawImageData@@@2@@std@@PAX@std@@@std@@@std@@QAE@XZ 00400000 f   EliteEnemyObject.obj
 0001:fffff000       __ehhandler$??1?$_Tree_temp_node@V?$allocator@U?$_Tree_node@U?$pair@$$CBV?$basic_string@DU?$char_traits@D@std@@V?$allocator@D@2@@std@@V?$shared_ptr@VRawImageData@@@2@@std@@PAX@std@@@std@@@std@@QAE@XZ 00400000 f   EliteEnemyObject.obj
 0001:fffff000       __ehhandler$??1?$_Tree_temp_node@V?$allocator@U?$_Tree_node@U?$pair@$$CBV?$basic_string@DU?$char_traits@D@std@@V?$allocator@D@2@@std@@V?$weak_ptr@VRawImageData@@@2@@std@@PAX@std@@@std@@@std@@QAE@XZ 00400000 f   EliteEnemyObject.obj
 0001:fffff000       __ehhandler$??1RawImageData@@QAE@XZ 00400000 f   EliteEnemyObject.obj
 0001:fffff000       __ehhandler$??1_Sentry_base@?$basic_ostream@DU?$char_traits@D@std@@@std@@QAE@XZ 00400000 f   EliteEnemyObject.obj
 0001:fffff000       __ehhandler$??1sentry@?$basic_ostream@DU?$char_traits@D@std@@@std@@QAE@XZ 00400000 f   EliteEnemyObject.obj
 0001:fffff000       __ehhandler$?_Take_contents@?$basic_string@DU?$char_traits@D@std@@V?$allocator@D@2@@std@@AAEXAAV12@@Z 00400000 f   EliteEnemyObject.obj
 0001:fffff000       __ehhandler$?_Tidy_deallocate@?$basic_string@DU?$char_traits@D@std@@V?$allocator@D@2@@std@@AAEXXZ 00400000 f   EliteEnemyObject.obj
 0001:fffff000       __unwindfunclet$??$?0U?$pair@V?$basic_string@DU?$char_traits@D@std@@V?$allocator@D@2@@std@@V?$shared_ptr@VRawImageData@@@2@@std@@@?$_Tree_temp_node@V?$allocator@U?$_Tree_node@U?$pair@$$CBV?$basic_string@DU?$char_traits@D@std@@V?$allocator@D@2@@std@@V?$shared_ptr@VRawImageData@@@2@@std@@PAX@std@@@std@@@std@@QAE@AAV?$allocator@U?$_Tree_node@U?$pair@$$CBV?$basic_string@DU?$char_traits@D@std@@V?$allocator@D@2@@std@@V?$shared_ptr@VRawImageData@@@2@@std@@PAX@std@@@1@PAU?$_Tree_node@U?$pair@$$CBV?$basic_string@DU?$char_traits@D@std@@V?$allocator@D@2@@std@@V?$shared_ptr@VRawImageData@@@2@@std@@PAX@1@$$QAU?$pair@V?$basic_string@DU?$char_traits@D@std@@V?$allocator@D@2@@std@@V?$shared_ptr@VRawImageData@@@2@@1@@Z$0 00400000 f   EliteEnemyObject.obj
 0001:fffff000       __unwindfunclet$??$?0U?$pair@V?$basic_string@DU?$char_traits@D@std@@V?$allocator@D@2@@std@@V?$weak_ptr@VRawImageData@@@2@@std@@@?$_Tree_temp_node@V?$allocator@U?$_Tree_node@U?$pair@$$CBV?$basic_string@DU?$char_traits@D@std@@V?$allocator@D@2@@std@@V?$weak_ptr@VRawImageData@@@2@@std@@PAX@std@@@std@@@std@@QAE@AAV?$allocator@U?$_Tree_node@U?$pair@$$CBV?$basic_string@DU?$char_traits@D@std@@V?$allocator@D@2@@std@@V?$weak_ptr@VRawImageData@@@2@@std@@PAX@std@@@1@PAU?$_Tree_node@U?$pair@$$CBV?$basic_string@DU?$char_traits@D@std@@V?$allocator@D@2@@std@@V?$weak_ptr@VRawImageData@@@2@@std@@PAX@1@$$QAU?$pair@V?$basic_string@DU?$char_traits@D@std@@V?$allocator@D@2@@std@@V?$weak_ptr@VRawImageData@@@2@@1@@Z$0 00400000 f   EliteEnemyObject.obj
 0001:fffff000       __unwindfunclet$??$?0VRawImageData@@$0A@@?$shared_ptr@VRawImageData@@@std@@QAE@PAVRawImageData@@@Z$0 00400000 f   EliteEnemyObject.obj
 0001:fffff000       __unwindfunclet$??$?6U?$char_traits@D@std@@@std@@YAAAV?$basic_ostream@DU?$char_traits@D@std@@@0@AAV10@PBD@Z$2 00400000 f   EliteEnemyObject.obj
 0001:fffff000       __unwindfunclet$??$_Insert_string@DU?$char_traits@D@std@@I@std@@YAAAV?$basic_ostream@DU?$char_traits@D@std@@@0@AAV10@QBDI@Z$2 00400000 f   EliteEnemyObject.obj
 0001:fffff000       __unwindfunclet$??$_Uninitialized_move@PAVSimpleImage@@V?$allocator@VSimpleImage@@@std@@@std@@YAPAVSimpleImage@@QAV1@0PAV1@AAV?$allocator@VSimpleImage@@@0@@Z$0 00400000 f   EliteEnemyObject.obj
 0001:fffff000       __unwindfunclet$??$_Uninitialized_value_construct_n@V?$allocator@VSimpleImage@@@std@@@std@@YAPAVSimpleImage@@PAV1@IAAV?$allocator@VSimpleImage@@@0@@Z$0 00400000 f   EliteEnemyObject.obj
 0001:fffff000       __unwindfunclet$??0?$_Tree_temp_node_alloc@V?$allocator@U?$_Tree_node@U?$pair@$$CBV?$basic_string@DU?$char_traits@D@std@@V?$allocator@D@2@@std@@V?$shared_ptr@VRawImageData@@@2@@std@@PAX@std@@@std@@@std@@QAE@AAV?$allocator@U?$_Tree_node@U?$pair@$$CBV?$basic_string@DU?$char_traits@D@std@@V?$allocator@D@2@@std@@V?$shared_ptr@VRawImageData@@@2@@std@@PAX@std@@@1@@Z$0 00400000 f   EliteEnemyObject.obj
 0001:fffff000       __unwindfunclet$??0?$_Tree_temp_node_alloc@V?$allocator@U?$_Tree_node@U?$pair@$$CBV?$basic_string@DU?$char_traits@D@std@@V?$allocator@D@2@@std@@V?$weak_ptr@VRawImageData@@@2@@std@@PAX@std@@@std@@@std@@QAE@AAV?$allocator@U?$_Tree_node@U?$pair@$$CBV?$basic_string@DU?$char_traits@D@std@@V?$allocator@D@2@@std@@V?$weak_ptr@VRawImageData@@@2@@std@@PAX@std@@@1@@Z$0 00400000 f   EliteEnemyObject.obj
 0001:fffff000       __unwindfunclet$??0?$basic_string@DU?$char_traits@D@std@@V?$allocator@D@2@@std@@QAE@ABV01@@Z$0 00400000 f   EliteEnemyObject.obj
 0001:fffff000       __unwindfunclet$??0?$basic_string@DU?$char_traits@D@std@@V?$allocator@D@2@@std@@QAE@QBD@Z$0 00400000 f   EliteEnemyObject.obj
 0001:fffff000       __unwindfunclet$??0ImageManager@@QAE@XZ$0 00400000 f   EliteEnemyObject.obj
 0001:fffff000       __unwindfunclet$??0RawImageData@@QAE@V?$basic_string@DU?$char_traits@D@std@@V?$allocator@D@2@@std@@@Z$0 00400000 f   EliteEnemyObject.obj
 0001:fffff000       __unwindfunclet$??0sentry@?$basic_ostream@DU?$char_traits@D@std@@@std@@QAE@AAV12@@Z$0 00400000 f   EliteEnemyObject.obj
 0001:fffff000       __unwindfunclet$?_Alloc_sentinel_and_proxy@?$_Tree@V?$_Tmap_traits@V?$basic_string@DU?$char_traits@D@std@@V?$allocator@D@2@@std@@V?$shared_ptr@VRawImageData@@@2@U?$less@V?$basic_string@DU?$char_traits@D@std@@V?$allocator@D@2@@std@@@2@V?$allocator@U?$pair@$$CBV?$basic_string@DU?$char_traits@D@std@@V?$allocator@D@2@@std@@V?$shared_ptr@VRawImageData@@@2@@std@@@2@$0A@@std@@@std@@IAEXXZ$0 00400000 f   EliteEnemyObject.obj
 0001:fffff000       __unwindfunclet$?_Alloc_sentinel_and_proxy@?$_Tree@V?$_Tmap_traits@V?$basic_string@DU?$char_traits@D@std@@V?$allocator@D@2@@std@@V?$weak_ptr@VRawImageData@@@2@U?$less@V?$basic_string@DU?$char_traits@D@std@@V?$allocator@D@2@@std@@@2@V?$allocator@U?$pair@$$CBV?$basic_string@DU?$char_traits@D@std@@V?$allocator@D@2@@std@@V?$weak_ptr@VRawImageData@@@2@@std@@@2@$0A@@std@@@std@@IAEXXZ$0 00400000 f   EliteEnemyObject.obj
 0001:fffff000       __unwindfunclet$?_Orphan_range_locked@?$vector@VSimpleImage@@V?$allocator@VSimpleImage@@@std@@@std@@ABEXPAVSimpleImage@@0@Z$0 00400000 f   EliteEnemyObject.obj
 0001:fffff000       __unwindfunclet$?get@ImageManager@@SAPAV1@XZ$0 00400000 f   EliteEnemyObject.obj
 0001:fffff000       __unwindfunclet$?getImagePtrbyURL@ImageManager@@QAE?AV?$shared_ptr@VRawImageData@@@std@@V?$basic_string@DU?$char_traits@D@std@@V?$allocator@D@2@@3@_N1@Z$0 00400000 f   EliteEnemyObject.obj
 0001:fffff000       __unwindfunclet$?getImagebyURL@ImageManager@@QAE?AVSimpleImage@@V?$basic_string@DU?$char_traits@D@std@@V?$allocator@D@2@@std@@_N1@Z$0 00400000 f   EliteEnemyObject.obj
 0001:fffff000       __unwindfunclet$?loadAsNew@ImageManager@@QAE?AV?$shared_ptr@VRawImageData@@@std@@V?$basic_string@DU?$char_traits@D@std@@V?$allocator@D@2@@3@@Z$0 00400000 f   EliteEnemyObject.obj
 0001:fffff000       __unwindfunclet$?loadImage@ImageManager@@SA?AVSimpleImage@@V?$basic_string@DU?$char_traits@D@std@@V?$allocator@D@2@@std@@_N@Z$0 00400000 f   EliteEnemyObject.obj
 0001:fffff000       __unwindfunclet$?loadImage@RawImageData@@QAE_NV?$basic_string@DU?$char_traits@D@std@@V?$allocator@D@2@@std@@HHHHH_N@Z$0 00400000 f   EliteEnemyObject.obj
 0002:fffb4000       __unwindtable$??$?0U?$pair@V?$basic_string@DU?$char_traits@D@std@@V?$allocator@D@2@@std@@V?$shared_ptr@VRawImageData@@@2@@std@@@?$_Tree_temp_node@V?$allocator@U?$_Tree_node@U?$pair@$$CBV?$basic_string@DU?$char_traits@D@std@@V?$allocator@D@2@@std@@V?$shared_ptr@VRawImageData@@@2@@std@@PAX@std@@@std@@@std@@QAE@AAV?$allocator@U?$_Tree_node@U?$pair@$$CBV?$basic_string@DU?$char_traits@D@std@@V?$allocator@D@2@@std@@V?$shared_ptr@VRawImageData@@@2@@std@@PAX@std@@@1@PAU?$_Tree_node@U?$pair@$$CBV?$basic_string@DU?$char_traits@D@std@@V?$allocator@D@2@@std@@V?$shared_ptr@VRawImageData@@@2@@std@@PAX@1@$$QAU?$pair@V?$basic_string@DU?$char_traits@D@std@@V?$allocator@D@2@@std@@V?$shared_ptr@VRawImageData@@@2@@1@@Z 00400000     EliteEnemyObject.obj
 0002:fffb4000       __unwindtable$??$?0U?$pair@V?$basic_string@DU?$char_traits@D@std@@V?$allocator@D@2@@std@@V?$weak_ptr@VRawImageData@@@2@@std@@@?$_Tree_temp_node@V?$allocator@U?$_Tree_node@U?$pair@$$CBV?$basic_string@DU?$char_traits@D@std@@V?$allocator@D@2@@std@@V?$weak_ptr@VRawImageData@@@2@@std@@PAX@std@@@std@@@std@@QAE@AAV?$allocator@U?$_Tree_node@U?$pair@$$CBV?$basic_string@DU?$char_traits@D@std@@V?$allocator@D@2@@std@@V?$weak_ptr@VRawImageData@@@2@@std@@PAX@std@@@1@PAU?$_Tree_node@U?$pair@$$CBV?$basic_string@DU?$char_traits@D@std@@V?$allocator@D@2@@std@@V?$weak_ptr@VRawImageData@@@2@@std@@PAX@1@$$QAU?$pair@V?$basic_string@DU?$char_traits@D@std@@V?$allocator@D@2@@std@@V?$weak_ptr@VRawImageData@@@2@@1@@Z 00400000     EliteEnemyObject.obj
 0002:fffb4000       __unwindtable$??$?0VRawImageData@@$0A@@?$shared_ptr@VRawImageData@@@std@@QAE@PAVRawImageData@@@Z 00400000     EliteEnemyObject.obj
 0002:fffb4000       __unwindtable$??$_Uninitialized_move@PAVSimpleImage@@V?$allocator@VSimpleImage@@@std@@@std@@YAPAVSimpleImage@@QAV1@0PAV1@AAV?$allocator@VSimpleImage@@@0@@Z 00400000     EliteEnemyObject.obj
 0002:fffb4000       __unwindtable$??$_Uninitialized_value_construct_n@V?$allocator@VSimpleImage@@@std@@@std@@YAPAVSimpleImage@@PAV1@IAAV?$allocator@VSimpleImage@@@0@@Z 00400000     EliteEnemyObject.obj
 0002:fffb4000       __unwindtable$??0?$_Tree_temp_node_alloc@V?$allocator@U?$_Tree_node@U?$pair@$$CBV?$basic_string@DU?$char_traits@D@std@@V?$allocator@D@2@@std@@V?$shared_ptr@VRawImageData@@@2@@std@@PAX@std@@@std@@@std@@QAE@AAV?$allocator@U?$_Tree_node@U?$pair@$$CBV?$basic_string@DU?$char_traits@D@std@@V?$allocator@D@2@@std@@V?$shared_ptr@VRawImageData@@@2@@std@@PAX@std@@@1@@Z 00400000     EliteEnemyObject.obj
 0002:fffb4000       __unwindtable$??0?$_Tree_temp_node_alloc@V?$allocator@U?$_Tree_node@U?$pair@$$CBV?$basic_string@DU?$char_traits@D@std@@V?$allocator@D@2@@std@@V?$weak_ptr@VRawImageData@@@2@@std@@PAX@std@@@std@@@std@@QAE@AAV?$allocator@U?$_Tree_node@U?$pair@$$CBV?$basic_string@DU?$char_traits@D@std@@V?$allocator@D@2@@std@@V?$weak_ptr@VRawImageData@@@2@@std@@PAX@std@@@1@@Z 00400000     EliteEnemyObject.obj
 0002:fffb4000       __unwindtable$??0?$basic_string@DU?$char_traits@D@std@@V?$allocator@D@2@@std@@QAE@ABV01@@Z 00400000     EliteEnemyObject.obj
 0002:fffb4000       __unwindtable$??0?$basic_string@DU?$char_traits@D@std@@V?$allocator@D@2@@std@@QAE@QBD@Z 00400000     EliteEnemyObject.obj
 0002:fffb4000       __unwindtable$??0ImageManager@@QAE@XZ 00400000     EliteEnemyObject.obj
 0002:fffb4000       __unwindtable$??0RawImageData@@QAE@V?$basic_string@DU?$char_traits@D@std@@V?$allocator@D@2@@std@@@Z 00400000     EliteEnemyObject.obj
 0002:fffb4000       __unwindtable$??0sentry@?$basic_ostream@DU?$char_traits@D@std@@@std@@QAE@AAV12@@Z 00400000     EliteEnemyObject.obj
 0002:fffb4000       __unwindtable$?_Alloc_sentinel_and_proxy@?$_Tree@V?$_Tmap_traits@V?$basic_string@DU?$char_traits@D@std@@V?$allocator@D@2@@std@@V?$shared_ptr@VRawImageData@@@2@U?$less@V?$basic_string@DU?$char_traits@D@std@@V?$allocator@D@2@@std@@@2@V?$allocator@U?$pair@$$CBV?$basic_string@DU?$char_traits@D@std@@V?$allocator@D@2@@std@@V?$shared_ptr@VRawImageData@@@2@@std@@@2@$0A@@std@@@std@@IAEXXZ 00400000     EliteEnemyObject.obj
 0002:fffb4000       __unwindtable$?_Alloc_sentinel_and_proxy@?$_Tree@V?$_Tmap_traits@V?$basic_string@DU?$char_traits@D@std@@V?$allocator@D@2@@std@@V?$weak_ptr@VRawImageData@@@2@U?$less@V?$basic_string@DU?$char_traits@D@std@@V?$allocator@D@2@@std@@@2@V?$allocator@U?$pair@$$CBV?$basic_string@DU?$char_traits@D@std@@V?$allocator@D@2@@std@@V?$weak_ptr@VRawImageData@@@2@@std@@@2@$0A@@std@@@std@@IAEXXZ 00400000     EliteEnemyObject.obj
 0002:fffb4000       __unwindtable$?_Orphan_range_locked@?$vector@VSimpleImage@@V?$allocator@VSimpleImage@@@std@@@std@@ABEXPAVSimpleImage@@0@Z 00400000     EliteEnemyObject.obj
 0002:fffb4000       __unwindtable$?get@ImageManager@@SAPAV1@XZ 00400000     EliteEnemyObject.obj
 0002:fffb4000       __unwindtable$?getImagebyURL@ImageManager@@QAE?AVSimpleImage@@V?$basic_string@DU?$char_traits@D@std@@V?$allocator@D@2@@std@@_N1@Z 00400000     EliteEnemyObject.obj
 0002:fffb4000       __unwindtable$?loadAsNew@ImageManager@@QAE?AV?$shared_ptr@VRawImageData@@@std@@V?$basic_string@DU?$char_traits@D@std@@V?$allocator@D@2@@3@@Z 00400000     EliteEnemyObject.obj
 0002:fffb4000       __unwindtable$?loadImage@ImageManager@@SA?AVSimpleImage@@V?$basic_string@DU?$char_traits@D@std@@V?$allocator@D@2@@std@@_N@Z 00400000     EliteEnemyObject.obj
 0002:fffb4000       __unwindtable$?loadImage@RawImageData@@QAE_NV?$basic_string@DU?$char_traits@D@std@@V?$allocator@D@2@@std@@HHHHH_N@Z 00400000     EliteEnemyObject.obj
 0000:fff97000       _volmd                     00400000     EliteEnemyObject.obj
 0000:fff97000       _volmd                     00400000     EliteEnemyObject.obj
 0000:fff97000       _volmd                     00400000     EliteEnemyObject.obj
 0000:fff97000       _volmd                     00400000     EliteEnemyObject.obj
 0000:fff97000       _volmd                     00400000     EliteEnemyObject.obj
 0000:fff97000       _volmd                     00400000     EliteEnemyObject.obj
 0000:fff97000       _volmd                     00400000     EliteEnemyObject.obj
 0000:fff97000       _volmd                     00400000     EliteEnemyObject.obj
 0000:fff97000       _volmd                     00400000     EliteEnemyObject.obj
 0000:fff97000       _volmd                     00400000     EliteEnemyObject.obj
 0000:fff97000       _volmd                     00400000     EliteEnemyObject.obj
 0000:fff97000       _volmd                     00400000     EliteEnemyObject.obj
 0000:fff97000       _volmd                     00400000     EliteEnemyObject.obj
 0000:fff97000       _volmd                     00400000     EliteEnemyObject.obj
 0000:fff97000       _volmd                     00400000     EliteEnemyObject.obj
 0000:fff97000       _volmd                     00400000     EliteEnemyObject.obj
 0000:fff97000       _volmd                     00400000     EliteEnemyObject.obj
 0000:fff97000       _volmd                     00400000     EliteEnemyObject.obj
 0000:fff97000       _volmd                     00400000     EliteEnemyObject.obj
 0000:fff97000       _volmd                     00400000     EliteEnemyObject.obj
 0000:fff97000       _volmd                     00400000     EliteEnemyObject.obj
 0000:fff97000       _volmd                     00400000     EliteEnemyObject.obj
 0000:fff97000       _volmd                     00400000     EliteEnemyObject.obj
 0000:fff97000       _volmd                     00400000     EliteEnemyObject.obj
 0000:fff97000       _volmd                     00400000     EliteEnemyObject.obj
 0000:fff97000       _volmd                     00400000     EliteEnemyObject.obj
 0000:fff97000       _volmd                     00400000     EliteEnemyObject.obj
 0000:fff97000       _volmd                     00400000     EliteEnemyObject.obj
 0000:fff97000       _volmd                     00400000     EliteEnemyObject.obj
 0000:fff97000       _volmd                     00400000     EliteEnemyObject.obj
 0000:fff97000       _volmd                     00400000     EliteEnemyObject.obj
 0000:fff97000       _volmd                     00400000     EliteEnemyObject.obj
 0000:fff97000       _volmd                     00400000     EliteEnemyObject.obj
 0000:fff97000       _volmd                     00400000     EliteEnemyObject.obj
 0000:fff97000       _volmd                     00400000     EliteEnemyObject.obj
 0000:fff97000       _volmd                     00400000     EliteEnemyObject.obj
 0000:fff97000       _volmd                     00400000     EliteEnemyObject.obj
 0000:fff97000       _volmd                     00400000     EliteEnemyObject.obj
 0000:fff97000       _volmd                     00400000     EliteEnemyObject.obj
 0000:fff97000       _volmd                     00400000     EliteEnemyObject.obj
 0000:fff97000       _volmd                     00400000     EliteEnemyObject.obj
 0002:fffb4000       __catchsym$??$?6U?$char_traits@D@std@@@std@@YAAAV?$basic_ostream@DU?$char_traits@D@std@@@0@AAV10@PBD@Z$3 00400000     FlashingDemo.obj
 0002:fffb4000       __ehfuncinfo$??1_Sentry_base@?$basic_ostream@DU?$char_traits@D@std@@@std@@QAE@XZ 00400000     FlashingDemo.obj
 0002:fffb4000       __ehfuncinfo$??1sentry@?$basic_ostream@DU?$char_traits@D@std@@@std@@QAE@XZ 00400000     FlashingDemo.obj
 0001:fffff000       __ehhandler$??1_Sentry_base@?$basic_ostream@DU?$char_traits@D@std@@@std@@QAE@XZ 00400000 f   FlashingDemo.obj
 0001:fffff000       __ehhandler$??1sentry@?$basic_ostream@DU?$char_traits@D@std@@@std@@QAE@XZ 00400000 f   FlashingDemo.obj
 0001:fffff000       __unwindfunclet$??$?6U?$char_traits@D@std@@@std@@YAAAV?$basic_ostream@DU?$char_traits@D@std@@@0@AAV10@PBD@Z$2 00400000 f   FlashingDemo.obj
 0001:fffff000       __unwindfunclet$??0sentry@?$basic_ostream@DU?$char_traits@D@std@@@std@@QAE@AAV12@@Z$0 00400000 f   FlashingDemo.obj
 0002:fffb4000       __unwindtable$??0sentry@?$basic_ostream@DU?$char_traits@D@std@@@std@@QAE@AAV12@@Z 00400000     FlashingDemo.obj
 0000:fff97000       _volmd                     00400000     FlashingDemo.obj
 0000:fff97000       _volmd                     00400000     FlashingDemo.obj
 0000:fff97000       _volmd                     00400000     FlashingDemo.obj
 0000:fff97000       _volmd                     00400000     FlashingDemo.obj
 0000:fff97000       _volmd                     00400000     FlashingDemo.obj
 0000:fff97000       _volmd                     00400000     FlashingDemo.obj
 0000:fff97000       _volmd                     00400000     FontManager.obj
 0002:fffb4000       __catchsym$??$?6U?$char_traits@D@std@@@std@@YAAAV?$basic_ostream@DU?$char_traits@D@std@@@0@AAV10@PBD@Z$3 00400000     GameState.obj
 0002:fffb4000       __catchsym$??$_Insert_string@DU?$char_traits@D@std@@I@std@@YAAAV?$basic_ostream@DU?$char_traits@D@std@@@0@AAV10@QBDI@Z$3 00400000     GameState.obj
 0002:fffb4000       __catchsym$??$_Resize_reallocate@U_Value_init_tag@std@@@?$vector@PAVDisplayableObject@@V?$allocator@PAVDisplayableObject@@@std@@@std@@AAEXIABU_Value_init_tag@1@@Z$2 00400000     GameState.obj
 0002:fffb4000       __catchsym$??$_Resize_reallocate@U_Value_init_tag@std@@@?$vector@VSimpleImage@@V?$allocator@VSimpleImage@@@std@@@std@@AAEXIABU_Value_init_tag@1@@Z$2 00400000     GameState.obj
 0002:fffb4000       __ehfuncinfo$??$_Deallocate@$07$0A@@std@@YAXPAXI@Z 00400000     GameState.obj
 0002:fffb4000       __ehfuncinfo$??$_Deallocate_plain@V?$allocator@U_Container_proxy@std@@@std@@@std@@YAXAAV?$allocator@U_Container_proxy@std@@@0@QAU_Container_proxy@0@@Z 00400000     GameState.obj
 0002:fffb4000       __ehfuncinfo$??$_Destroy_range@V?$allocator@V?$vector@HV?$allocator@H@std@@@std@@@std@@@std@@YAXPAV?$vector@HV?$allocator@H@std@@@0@QAV10@AAV?$allocator@V?$vector@HV?$allocator@H@std@@@std@@@0@@Z 00400000     GameState.obj
 0002:fffb4000       __ehfuncinfo$??$_Destroy_range@V?$allocator@VSimpleImage@@@std@@@std@@YAXPAVSimpleImage@@QAV1@AAV?$allocator@VSimpleImage@@@0@@Z 00400000     GameState.obj
 0002:fffb4000       __ehfuncinfo$??$_Freenode0@V?$allocator@U?$_Tree_node@U?$pair@$$CBV?$basic_string@DU?$char_traits@D@std@@V?$allocator@D@2@@std@@V?$weak_ptr@VRawImageData@@@2@@std@@PAX@std@@@std@@@?$_Tree_node@U?$pair@$$CBV?$basic_string@DU?$char_traits@D@std@@V?$allocator@D@2@@std@@V?$weak_ptr@VRawImageData@@@2@@std@@PAX@std@@SAXAAV?$allocator@U?$_Tree_node@U?$pair@$$CBV?$basic_string@DU?$char_traits@D@std@@V?$allocator@D@2@@std@@V?$weak_ptr@VRawImageData@@@2@@std@@PAX@std@@@1@PAU01@@Z 00400000     GameState.obj
 0002:fffb4000       __ehfuncinfo$??$_Freenode@V?$allocator@U?$_Tree_node@U?$pair@$$CBV?$basic_string@DU?$char_traits@D@std@@V?$allocator@D@2@@std@@V?$weak_ptr@VRawImageData@@@2@@std@@PAX@std@@@std@@@?$_Tree_node@U?$pair@$$CBV?$basic_string@DU?$char_traits@D@std@@V?$allocator@D@2@@std@@V?$weak_ptr@VRawImageData@@@2@@std@@PAX@std@@SAXAAV?$allocator@U?$_Tree_node@U?$pair@$$CBV?$basic_string@DU?$char_traits@D@std@@V?$allocator@D@2@@std@@V?$weak_ptr@VRawImageData@@@2@@std@@PAX@std@@@1@PAU01@@Z 00400000     GameState.obj
 0002:fffb4000       __ehfuncinfo$??0?$basic_string@DU?$char_traits@D@std@@V?$allocator@D@2@@std@@QAE@$$QAV01@@Z 00400000     GameState.obj
 0002:fffb4000       __ehfuncinfo$??0?$vector@V?$vector@HV?$allocator@H@std@@@std@@V?$allocator@V?$vector@HV?$allocator@H@std@@@std@@@2@@std@@QAE@$$QAV01@@Z 00400000     GameState.obj
 0002:fffb4000       __ehfuncinfo$??1?$_Alloc_construct_ptr@V?$allocator@U?$_Tree_node@U?$pair@$$CBV?$basic_string@DU?$char_traits@D@std@@V?$allocator@D@2@@std@@V?$shared_ptr@VRawImageData@@@2@@std@@PAX@std@@@std@@@std@@QAE@XZ 00400000     GameState.obj
 0002:fffb4000       __ehfuncinfo$??1?$_Alloc_construct_ptr@V?$allocator@U?$_Tree_node@U?$pair@$$CBV?$basic_string@DU?$char_traits@D@std@@V?$allocator@D@2@@std@@V?$weak_ptr@VRawImageData@@@2@@std@@PAX@std@@@std@@@std@@QAE@XZ 00400000     GameState.obj
 0002:fffb4000       __ehfuncinfo$??1?$_Tree_temp_node@V?$allocator@U?$_Tree_node@U?$pair@$$CBV?$basic_string@DU?$char_traits@D@std@@V?$allocator@D@2@@std@@V?$shared_ptr@VRawImageData@@@2@@std@@PAX@std@@@std@@@std@@QAE@XZ 00400000     GameState.obj
 0002:fffb4000       __ehfuncinfo$??1?$_Tree_temp_node@V?$allocator@U?$_Tree_node@U?$pair@$$CBV?$basic_string@DU?$char_traits@D@std@@V?$allocator@D@2@@std@@V?$weak_ptr@VRawImageData@@@2@@std@@PAX@std@@@std@@@std@@QAE@XZ 00400000     GameState.obj
 0002:fffb4000       __ehfuncinfo$??1RawImageData@@QAE@XZ 00400000     GameState.obj
 0002:fffb4000       __ehfuncinfo$??1_Sentry_base@?$basic_ostream@DU?$char_traits@D@std@@@std@@QAE@XZ 00400000     GameState.obj
 0002:fffb4000       __ehfuncinfo$??1sentry@?$basic_ostream@DU?$char_traits@D@std@@@std@@QAE@XZ 00400000     GameState.obj
 0002:fffb4000       __ehfuncinfo$?_Take_contents@?$basic_string@DU?$char_traits@D@std@@V?$allocator@D@2@@std@@AAEXAAV12@@Z 00400000     GameState.obj
 0002:fffb4000       __ehfuncinfo$?_Tidy@?$vector@HV?$allocator@H@std@@@std@@AAEXXZ 00400000     GameState.obj
 0002:fffb4000       __ehfuncinfo$?_Tidy@?$vector@V?$vector@HV?$allocator@H@std@@@std@@V?$allocator@V?$vector@HV?$allocator@H@std@@@std@@@2@@std@@AAEXXZ 00400000     GameState.obj
 0002:fffb4000       __ehfuncinfo$?_Tidy_deallocate@?$basic_string@DU?$char_traits@D@std@@V?$allocator@D@2@@std@@AAEXXZ 00400000     GameState.obj
 0002:fffb4000       __ehfuncinfo$?getImagePtrbyURL@ImageManager@@QAE?AV?$shared_ptr@VRawImageData@@@std@@V?$basic_string@DU?$char_traits@D@std@@V?$allocator@D@2@@3@_N1@Z 00400000     GameState.obj
 0001:fffff000       __ehhandler$??$_Deallocate@$07$0A@@std@@YAXPAXI@Z 00400000 f   GameState.obj
 0001:fffff000       __ehhandler$??$_Deallocate_plain@V?$allocator@U_Container_proxy@std@@@std@@@std@@YAXAAV?$allocator@U_Container_proxy@std@@@0@QAU_Container_proxy@0@@Z 00400000 f   GameState.obj
 0001:fffff000       __ehhandler$??$_Destroy_range@V?$allocator@V?$vector@HV?$allocator@H@std@@@std@@@std@@@std@@YAXPAV?$vector@HV?$allocator@H@std@@@0@QAV10@AAV?$allocator@V?$vector@HV?$allocator@H@std@@@std@@@0@@Z 00400000 f   GameState.obj
 0001:fffff000       __ehhandler$??$_Destroy_range@V?$allocator@VSimpleImage@@@std@@@std@@YAXPAVSimpleImage@@QAV1@AAV?$allocator@VSimpleImage@@@0@@Z 00400000 f   GameState.obj
 0001:fffff000       __ehhandler$??$_Freenode0@V?$allocator@U?$_Tree_node@U?$pair@$$CBV?$basic_string@DU?$char_traits@D@std@@V?$allocator@D@2@@std@@V?$weak_ptr@VRawImageData@@@2@@std@@PAX@std@@@std@@@?$_Tree_node@U?$pair@$$CBV?$basic_string@DU?$char_traits@D@std@@V?$allocator@D@2@@std@@V?$weak_ptr@VRawImageData@@@2@@std@@PAX@std@@SAXAAV?$allocator@U?$_Tree_node@U?$pair@$$CBV?$basic_string@DU?$char_traits@D@std@@V?$allocator@D@2@@std@@V?$weak_ptr@VRawImageData@@@2@@std@@PAX@std@@@1@PAU01@@Z 00400000 f   GameState.obj
 0001:fffff000       __ehhandler$??$_Freenode@V?$allocator@U?$_Tree_node@U?$pair@$$CBV?$basic_string@DU?$char_traits@D@std@@V?$allocator@D@2@@std@@V?$weak_ptr@VRawImageData@@@2@@std@@PAX@std@@@std@@@?$_Tree_node@U?$pair@$$CBV?$basic_string@DU?$char_traits@D@std@@V?$allocator@D@2@@std@@V?$weak_ptr@VRawImageData@@@2@@std@@PAX@std@@SAXAAV?$allocator@U?$_Tree_node@U?$pair@$$CBV?$basic_string@DU?$char_traits@D@std@@V?$allocator@D@2@@std@@V?$weak_ptr@VRawImageData@@@2@@std@@PAX@std@@@1@PAU01@@Z 00400000 f   GameState.obj
 0001:fffff000       __ehhandler$??$_Resize_reallocate@U_Value_init_tag@std@@@?$vector@PAVDisplayableObject@@V?$allocator@PAVDisplayableObject@@@std@@@std@@AAEXIABU_Value_init_tag@1@@Z 00400000 f   GameState.obj
 0001:fffff000       __ehhandler$??$_Resize_reallocate@U_Value_init_tag@std@@@?$vector@VSimpleImage@@V?$allocator@VSimpleImage@@@std@@@std@@AAEXIABU_Value_init_tag@1@@Z 00400000 f   GameState.obj
 0001:fffff000       __ehhandler$??0?$basic_string@DU?$char_traits@D@std@@V?$allocator@D@2@@std@@QAE@$$QAV01@@Z 00400000 f   GameState.obj
 0001:fffff000       __ehhandler$??0?$vector@V?$vector@HV?$allocator@H@std@@@std@@V?$allocator@V?$vector@HV?$allocator@H@std@@@std@@@2@@std@@QAE@$$QAV01@@Z 00400000 f   GameState.obj
 0001:fffff000       __ehhandler$??1?$_Alloc_construct_ptr@V?$allocator@U?$_Tree_node@U?$pair@$$CBV?$basic_string@DU?$char_traits@D@std@@V?$allocator@D@2@@std@@V?$shared_ptr@VRawImageData@@@2@@std@@PAX@std@@@std@@@std@@QAE@XZ 00400000 f   GameState.obj
 0001:fffff000       __ehhandler$??1?$_Alloc_construct_ptr@V?$allocator@U?$_Tree_node@U?$pair@$$CBV?$basic_string@DU?$char_traits@D@std@@V?$allocator@D@2@@std@@V?$weak_ptr@VRawImageData@@@2@@std@@PAX@std@@@std@@@std@@QAE@XZ 00400000 f   GameState.obj
 0001:fffff000       __ehhandler$??1?$_Tree_temp_node@V?$allocator@U?$_Tree_node@U?$pair@$$CBV?$basic_string@DU?$char_traits@D@std@@V?$allocator@D@2@@std@@V?$shared_ptr@VRawImageData@@@2@@std@@PAX@std@@@std@@@std@@QAE@XZ 00400000 f   GameState.obj
 0001:fffff000       __ehhandler$??1?$_Tree_temp_node@V?$allocator@U?$_Tree_node@U?$pair@$$CBV?$basic_string@DU?$char_traits@D@std@@V?$allocator@D@2@@std@@V?$weak_ptr@VRawImageData@@@2@@std@@PAX@std@@@std@@@std@@QAE@XZ 00400000 f   GameState.obj
 0001:fffff000       __ehhandler$??1RawImageData@@QAE@XZ 00400000 f   GameState.obj
 0001:fffff000       __ehhandler$??1_Sentry_base@?$basic_ostream@DU?$char_traits@D@std@@@std@@QAE@XZ 00400000 f   GameState.obj
 0001:fffff000       __ehhandler$??1sentry@?$basic_ostream@DU?$char_traits@D@std@@@std@@QAE@XZ 00400000 f   GameState.obj
 0001:fffff000       __ehhandler$?_Take_contents@?$basic_string@DU?$char_traits@D@std@@V?$allocator@D@2@@std@@AAEXAAV12@@Z 00400000 f   GameState.obj
 0001:fffff000       __ehhandler$?_Tidy@?$vector@HV?$allocator@H@std@@@std@@AAEXXZ 00400000 f   GameState.obj
 0001:fffff000       __ehhandler$?_Tidy@?$vector@V?$vector@HV?$allocator@H@std@@@std@@V?$allocator@V?$vector@HV?$allocator@H@std@@@std@@@2@@std@@AAEXXZ 00400000 f   GameState.obj
 0001:fffff000       __ehhandler$?_Tidy_deallocate@?$basic_string@DU?$char_traits@D@std@@V?$allocator@D@2@@std@@AAEXXZ 00400000 f   GameState.obj
 0001:fffff000       __unwindfunclet$??$?0U?$pair@V?$basic_string@DU?$char_traits@D@std@@V?$allocator@D@2@@std@@V?$shared_ptr@VRawImageData@@@2@@std@@@?$_Tree_temp_node@V?$allocator@U?$_Tree_node@U?$pair@$$CBV?$basic_string@DU?$char_traits@D@std@@V?$allocator@D@2@@std@@V?$shared_ptr@VRawImageData@@@2@@std@@PAX@std@@@std@@@std@@QAE@AAV?$allocator@U?$_Tree_node@U?$pair@$$CBV?$basic_string@DU?$char_traits@D@std@@V?$allocator@D@2@@std@@V?$shared_ptr@VRawImageData@@@2@@std@@PAX@std@@@1@PAU?$_Tree_node@U?$pair@$$CBV?$basic_string@DU?$char_traits@D@std@@V?$allocator@D@2@@std@@V?$shared_ptr@VRawImageData@@@2@@std@@PAX@1@$$QAU?$pair@V?$basic_string@DU?$char_traits@D@std@@V?$allocator@D@2@@std@@V?$shared_ptr@VRawImageData@@@2@@1@@Z$0 00400000 f   GameState.obj
 0001:fffff000       __unwindfunclet$??$?0U?$pair@V?$basic_string@DU?$char_traits@D@std@@V?$allocator@D@2@@std@@V?$weak_ptr@VRawImageData@@@2@@std@@@?$_Tree_temp_node@V?$allocator@U?$_Tree_node@U?$pair@$$CBV?$basic_string@DU?$char_traits@D@std@@V?$allocator@D@2@@std@@V?$weak_ptr@VRawImageData@@@2@@std@@PAX@std@@@std@@@std@@QAE@AAV?$allocator@U?$_Tree_node@U?$pair@$$CBV?$basic_string@DU?$char_traits@D@std@@V?$allocator@D@2@@std@@V?$weak_ptr@VRawImageData@@@2@@std@@PAX@std@@@1@PAU?$_Tree_node@U?$pair@$$CBV?$basic_string@DU?$char_traits@D@std@@V?$allocator@D@2@@std@@V?$weak_ptr@VRawImageData@@@2@@std@@PAX@1@$$QAU?$pair@V?$basic_string@DU?$char_traits@D@std@@V?$allocator@D@2@@std@@V?$weak_ptr@VRawImageData@@@2@@1@@Z$0 00400000 f   GameState.obj
 0001:fffff000       __unwindfunclet$??$?0VRawImageData@@$0A@@?$shared_ptr@VRawImageData@@@std@@QAE@PAVRawImageData@@@Z$0 00400000 f   GameState.obj
 0001:fffff000       __unwindfunclet$??$?6U?$char_traits@D@std@@@std@@YAAAV?$basic_ostream@DU?$char_traits@D@std@@@0@AAV10@PBD@Z$2 00400000 f   GameState.obj
 0001:fffff000       __unwindfunclet$??$_Construct_n_copies_of_ty@H@?$vector@HV?$allocator@H@std@@@std@@AAEXIABH@Z$0 00400000 f   GameState.obj
 0001:fffff000       __unwindfunclet$??$_Construct_n_copies_of_ty@V?$vector@HV?$allocator@H@std@@@std@@@?$vector@V?$vector@HV?$allocator@H@std@@@std@@V?$allocator@V?$vector@HV?$allocator@H@std@@@std@@@2@@std@@AAEXIABV?$vector@HV?$allocator@H@std@@@1@@Z$0 00400000 f   GameState.obj
 0001:fffff000       __unwindfunclet$??$_Insert_string@DU?$char_traits@D@std@@I@std@@YAAAV?$basic_ostream@DU?$char_traits@D@std@@@0@AAV10@QBDI@Z$2 00400000 f   GameState.obj
 0001:fffff000       __unwindfunclet$??$_Uninitialized_copy@PAHV?$allocator@H@std@@@std@@YAPAHQAH0PAHAAV?$allocator@H@0@@Z$0 00400000 f   GameState.obj
 0001:fffff000       __unwindfunclet$??$_Uninitialized_fill_n@V?$allocator@H@std@@@std@@YAPAHPAHIABHAAV?$allocator@H@0@@Z$0 00400000 f   GameState.obj
 0001:fffff000       __unwindfunclet$??$_Uninitialized_fill_n@V?$allocator@V?$vector@HV?$allocator@H@std@@@std@@@std@@@std@@YAPAV?$vector@HV?$allocator@H@std@@@0@PAV10@IABV10@AAV?$allocator@V?$vector@HV?$allocator@H@std@@@std@@@0@@Z$0 00400000 f   GameState.obj
 0001:fffff000       __unwindfunclet$??$_Uninitialized_move@PAPAVDisplayableObject@@V?$allocator@PAVDisplayableObject@@@std@@@std@@YAPAPAVDisplayableObject@@QAPAV1@0PAPAV1@AAV?$allocator@PAVDisplayableObject@@@0@@Z$0 00400000 f   GameState.obj
 0001:fffff000       __unwindfunclet$??$_Uninitialized_move@PAVSimpleImage@@V?$allocator@VSimpleImage@@@std@@@std@@YAPAVSimpleImage@@QAV1@0PAV1@AAV?$allocator@VSimpleImage@@@0@@Z$0 00400000 f   GameState.obj
 0001:fffff000       __unwindfunclet$??$_Uninitialized_value_construct_n@V?$allocator@PAVDisplayableObject@@@std@@@std@@YAPAPAVDisplayableObject@@PAPAV1@IAAV?$allocator@PAVDisplayableObject@@@0@@Z$0 00400000 f   GameState.obj
 0001:fffff000       __unwindfunclet$??$_Uninitialized_value_construct_n@V?$allocator@VSimpleImage@@@std@@@std@@YAPAVSimpleImage@@PAV1@IAAV?$allocator@VSimpleImage@@@0@@Z$0 00400000 f   GameState.obj
 0001:fffff000       __unwindfunclet$??0?$_Tree_temp_node_alloc@V?$allocator@U?$_Tree_node@U?$pair@$$CBV?$basic_string@DU?$char_traits@D@std@@V?$allocator@D@2@@std@@V?$shared_ptr@VRawImageData@@@2@@std@@PAX@std@@@std@@@std@@QAE@AAV?$allocator@U?$_Tree_node@U?$pair@$$CBV?$basic_string@DU?$char_traits@D@std@@V?$allocator@D@2@@std@@V?$shared_ptr@VRawImageData@@@2@@std@@PAX@std@@@1@@Z$0 00400000 f   GameState.obj
 0001:fffff000       __unwindfunclet$??0?$_Tree_temp_node_alloc@V?$allocator@U?$_Tree_node@U?$pair@$$CBV?$basic_string@DU?$char_traits@D@std@@V?$allocator@D@2@@std@@V?$weak_ptr@VRawImageData@@@2@@std@@PAX@std@@@std@@@std@@QAE@AAV?$allocator@U?$_Tree_node@U?$pair@$$CBV?$basic_string@DU?$char_traits@D@std@@V?$allocator@D@2@@std@@V?$weak_ptr@VRawImageData@@@2@@std@@PAX@std@@@1@@Z$0 00400000 f   GameState.obj
 0001:fffff000       __unwindfunclet$??0?$basic_string@DU?$char_traits@D@std@@V?$allocator@D@2@@std@@QAE@ABV01@@Z$0 00400000 f   GameState.obj
 0001:fffff000       __unwindfunclet$??0?$basic_string@DU?$char_traits@D@std@@V?$allocator@D@2@@std@@QAE@QBD@Z$0 00400000 f   GameState.obj
 0001:fffff000       __unwindfunclet$??0?$vector@HV?$allocator@H@std@@@std@@QAE@ABV01@@Z$0 00400000 f   GameState.obj
 0001:fffff000       __unwindfunclet$??0ImageManager@@QAE@XZ$0 00400000 f   GameState.obj
 0001:fffff000       __unwindfunclet$??0RawImageData@@QAE@V?$basic_string@DU?$char_traits@D@std@@V?$allocator@D@2@@std@@@Z$0 00400000 f   GameState.obj
 0001:fffff000       __unwindfunclet$??0sentry@?$basic_ostream@DU?$char_traits@D@std@@@std@@QAE@AAV12@@Z$0 00400000 f   GameState.obj
 0001:fffff000       __unwindfunclet$?_Alloc_sentinel_and_proxy@?$_Tree@V?$_Tmap_traits@V?$basic_string@DU?$char_traits@D@std@@V?$allocator@D@2@@std@@V?$shared_ptr@VRawImageData@@@2@U?$less@V?$basic_string@DU?$char_traits@D@std@@V?$allocator@D@2@@std@@@2@V?$allocator@U?$pair@$$CBV?$basic_string@DU?$char_traits@D@std@@V?$allocator@D@2@@std@@V?$shared_ptr@VRawImageData@@@2@@std@@@2@$0A@@std@@@std@@IAEXXZ$0 00400000 f   GameState.obj
 0001:fffff000       __unwindfunclet$?_Alloc_sentinel_and_proxy@?$_Tree@V?$_Tmap_traits@V?$basic_string@DU?$char_traits@D@std@@V?$allocator@D@2@@std@@V?$weak_ptr@VRawImageData@@@2@U?$less@V?$basic_string@DU?$char_traits@D@std@@V?$allocator@D@2@@std@@@2@V?$allocator@U?$pair@$$CBV?$basic_string@DU?$char_traits@D@std@@V?$allocator@D@2@@std@@V?$weak_ptr@VRawImageData@@@2@@std@@@2@$0A@@std@@@std@@IAEXXZ$0 00400000 f   GameState.obj
 0001:fffff000       __unwindfunclet$?_Orphan_range_locked@?$vector@PAVDisplayableObject@@V?$allocator@PAVDisplayableObject@@@std@@@std@@ABEXPAPAVDisplayableObject@@0@Z$0 00400000 f   GameState.obj
 0001:fffff000       __unwindfunclet$?_Orphan_range_locked@?$vector@VSimpleImage@@V?$allocator@VSimpleImage@@@std@@@std@@ABEXPAVSimpleImage@@0@Z$0 00400000 f   GameState.obj
 0001:fffff000       __unwindfunclet$?get@ImageManager@@SAPAV1@XZ$0 00400000 f   GameState.obj
 0001:fffff000       __unwindfunclet$?getImagePtrbyURL@ImageManager@@QAE?AV?$shared_ptr@VRawImageData@@@std@@V?$basic_string@DU?$char_traits@D@std@@V?$allocator@D@2@@3@_N1@Z$0 00400000 f   GameState.obj
 0001:fffff000       __unwindfunclet$?getImagebyURL@ImageManager@@QAE?AVSimpleImage@@V?$basic_string@DU?$char_traits@D@std@@V?$allocator@D@2@@std@@_N1@Z$0 00400000 f   GameState.obj
 0001:fffff000       __unwindfunclet$?loadAsNew@ImageManager@@QAE?AV?$shared_ptr@VRawImageData@@@std@@V?$basic_string@DU?$char_traits@D@std@@V?$allocator@D@2@@3@@Z$0 00400000 f   GameState.obj
 0001:fffff000       __unwindfunclet$?loadImage@ImageManager@@SA?AVSimpleImage@@V?$basic_string@DU?$char_traits@D@std@@V?$allocator@D@2@@std@@_N@Z$0 00400000 f   GameState.obj
 0001:fffff000       __unwindfunclet$?loadImage@RawImageData@@QAE_NV?$basic_string@DU?$char_traits@D@std@@V?$allocator@D@2@@std@@HHHHH_N@Z$0 00400000 f   GameState.obj
 0002:fffb4000       __unwindtable$??$?0U?$pair@V?$basic_string@DU?$char_traits@D@std@@V?$allocator@D@2@@std@@V?$shared_ptr@VRawImageData@@@2@@std@@@?$_Tree_temp_node@V?$allocator@U?$_Tree_node@U?$pair@$$CBV?$basic_string@DU?$char_traits@D@std@@V?$allocator@D@2@@std@@V?$shared_ptr@VRawImageData@@@2@@std@@PAX@std@@@std@@@std@@QAE@AAV?$allocator@U?$_Tree_node@U?$pair@$$CBV?$basic_string@DU?$char_traits@D@std@@V?$allocator@D@2@@std@@V?$shared_ptr@VRawImageData@@@2@@std@@PAX@std@@@1@PAU?$_Tree_node@U?$pair@$$CBV?$basic_string@DU?$char_traits@D@std@@V?$allocator@D@2@@std@@V?$shared_ptr@VRawImageData@@@2@@std@@PAX@1@$$QAU?$pair@V?$basic_string@DU?$char_traits@D@std@@V?$allocator@D@2@@std@@V?$shared_ptr@VRawImageData@@@2@@1@@Z 00400000     GameState.obj
